 j2pcsc

 Timestamp is 4ecc60dc (Tue Nov 22 21:56:28 2011)

 Preferred load address is 10000000

 Start         Length     Name                   Class
 0001:00000000 000008c4H .text                   CODE
 0002:00000000 0000005cH .idata$5                DATA
 0002:00000060 000000e0H .rdata                  DATA
 0002:00000140 0000006aH .rdata$debug            DATA
 0002:000001b0 00000004H .rdata$sxdata           DATA
 0002:000001b4 00000004H .rtc$IAA                DATA
 0002:000001b8 00000004H .rtc$IZZ                DATA
 0002:000001bc 00000004H .rtc$TAA                DATA
 0002:000001c0 00000004H .rtc$TZZ                DATA
 0002:000001c4 0000003cH .idata$2                DATA
 0002:00000200 00000014H .idata$3                DATA
 0002:00000214 0000005cH .idata$4                DATA
 0002:00000270 0000017eH .idata$6                DATA
 0002:000003f0 000002dfH .edata                  DATA
 0003:00000000 00000004H .CRT$XCA                DATA
 0003:00000004 00000004H .CRT$XCZ                DATA
 0003:00000008 00000004H .CRT$XIA                DATA
 0003:0000000c 00000004H .CRT$XIZ                DATA
 0003:00000010 00000004H .data                   DATA
 0003:00000014 00000014H .bss                    DATA
 0004:00000000 00000058H .rsrc$01                DATA
 0004:00000060 00000318H .rsrc$02                DATA

  Address         Publics by Value              Rva+Base     Lib:Object

 0000:00000001       ___safe_se_handler_count   00000001     <absolute>
 0001:00000000       _throwPCSCException        10001000 f   pcsc.obj
 0001:00000040       _handleRV                  10001040 f   pcsc.obj
 0001:0000005c       _JNI_OnLoad@8              1000105c f   pcsc.obj
 0001:00000064       _Java_sun_security_smartcardio_PCSC_SCardEstablishContext@12 10001064 f   pcsc.obj
 0001:00000093       _pcsc_multi2jstring        10001093 f   pcsc.obj
 0001:0000012a       _Java_sun_security_smartcardio_PCSC_SCardListReaders@16 1000112a f   pcsc.obj
 0001:00000199       _Java_sun_security_smartcardio_PCSC_SCardConnect@28 10001199 f   pcsc.obj
 0001:000001f6       _Java_sun_security_smartcardio_PCSC_SCardTransmit@32 100011f6 f   pcsc.obj
 0001:0000029f       _Java_sun_security_smartcardio_PCSC_SCardStatus@20 1000129f f   pcsc.obj
 0001:0000034f       _Java_sun_security_smartcardio_PCSC_SCardDisconnect@20 1000134f f   pcsc.obj
 0001:0000036b       _Java_sun_security_smartcardio_PCSC_SCardGetStatusChange@32 1000136b f   pcsc.obj
 0001:00000488       _Java_sun_security_smartcardio_PCSC_SCardBeginTransaction@16 10001488 f   pcsc.obj
 0001:000004a0       _Java_sun_security_smartcardio_PCSC_SCardEndTransaction@20 100014a0 f   pcsc.obj
 0001:000004bc       _Java_sun_security_smartcardio_PCSC_SCardControl@24 100014bc f   pcsc.obj
 0001:0000055c       _SCardEstablishContext@16  1000155c f   winscard:WinSCard.dll
 0001:00000562       _SCardListReadersA@16      10001562 f   winscard:WinSCard.dll
 0001:00000568       _SCardConnectA@24          10001568 f   winscard:WinSCard.dll
 0001:0000056e       _SCardTransmit@28          1000156e f   winscard:WinSCard.dll
 0001:00000574       _SCardStatusA@28           10001574 f   winscard:WinSCard.dll
 0001:0000057a       _SCardDisconnect@8         1000157a f   winscard:WinSCard.dll
 0001:00000580       _SCardGetStatusChangeA@16  10001580 f   winscard:WinSCard.dll
 0001:00000586       _SCardBeginTransaction@4   10001586 f   winscard:WinSCard.dll
 0001:0000058c       _SCardEndTransaction@8     1000158c f   winscard:WinSCard.dll
 0001:00000592       _SCardControl@28           10001592 f   winscard:WinSCard.dll
 0001:00000598       _strlen                    10001598 f   MSVCRT:MSVCR71.dll
 0001:000005a0       __chkstk                   100015a0 f   MSVCRT:chkstk.obj
 0001:000005a0       __alloca_probe             100015a0     MSVCRT:chkstk.obj
 0001:000005dd       __CRT_INIT@12              100015dd f   MSVCRT:crtdll.obj
 0001:0000069b       __DllMainCRTStartup@12     1000169b f   MSVCRT:crtdll.obj
 0001:00000780       __initterm                 10001780 f   MSVCRT:MSVCR71.dll
 0001:00000786       __onexit                   10001786 f   MSVCRT:atonexit.obj
 0001:000007ac       _atexit                    100017ac f   MSVCRT:atonexit.obj
 0001:000007be       __RTC_Initialize           100017be f   MSVCRT:initsect.obj
 0001:00000802       __RTC_Terminate            10001802 f   MSVCRT:initsect.obj
 0001:00000846       ___CppXcptFilter           10001846 f   MSVCRT:MSVCR71.dll
 0001:0000084c       _DllMain@12                1000184c f   MSVCRT:dllmain.obj
 0001:0000086c       __SEH_prolog               1000186c f   MSVCRT:sehprolg.obj
 0001:000008a7       __SEH_epilog               100018a7 f   MSVCRT:sehprolg.obj
 0001:000008b8       __except_handler3          100018b8 f   MSVCRT:MSVCR71.dll
 0001:000008be       ___dllonexit               100018be f   MSVCRT:MSVCR71.dll
 0002:00000000       __imp__DisableThreadLibraryCalls@4 10002000     kernel32:KERNEL32.dll
 0002:00000004       \177KERNEL32_NULL_THUNK_DATA 10002004     kernel32:KERNEL32.dll
 0002:00000008       __imp___onexit             10002008     MSVCRT:MSVCR71.dll
 0002:0000000c       __imp____dllonexit         1000200c     MSVCRT:MSVCR71.dll
 0002:00000010       __imp___except_handler3    10002010     MSVCRT:MSVCR71.dll
 0002:00000014       __imp____CppXcptFilter     10002014     MSVCRT:MSVCR71.dll
 0002:00000018       __imp___adjust_fdiv        10002018     MSVCRT:MSVCR71.dll
 0002:0000001c       __imp___initterm           1000201c     MSVCRT:MSVCR71.dll
 0002:00000020       __imp__strlen              10002020     MSVCRT:MSVCR71.dll
 0002:00000024       __imp__malloc              10002024     MSVCRT:MSVCR71.dll
 0002:00000028       __imp__free                10002028     MSVCRT:MSVCR71.dll
 0002:0000002c       \177MSVCR71_NULL_THUNK_DATA 1000202c     MSVCRT:MSVCR71.dll
 0002:00000030       __imp__SCardControl@28     10002030     winscard:WinSCard.dll
 0002:00000034       __imp__SCardEndTransaction@8 10002034     winscard:WinSCard.dll
 0002:00000038       __imp__SCardBeginTransaction@4 10002038     winscard:WinSCard.dll
 0002:0000003c       __imp__SCardGetStatusChangeA@16 1000203c     winscard:WinSCard.dll
 0002:00000040       __imp__SCardDisconnect@8   10002040     winscard:WinSCard.dll
 0002:00000044       __imp__SCardStatusA@28     10002044     winscard:WinSCard.dll
 0002:00000048       __imp__SCardTransmit@28    10002048     winscard:WinSCard.dll
 0002:0000004c       __imp__SCardConnectA@24    1000204c     winscard:WinSCard.dll
 0002:00000050       __imp__SCardListReadersA@16 10002050     winscard:WinSCard.dll
 0002:00000054       __imp__SCardEstablishContext@16 10002054     winscard:WinSCard.dll
 0002:00000058       \177WinSCard_NULL_THUNK_DATA 10002058     winscard:WinSCard.dll
 0002:0000007c       ??_C@_06FALKBLGB@?$DMinit?$DO?$AA@ 1000207c     pcsc.obj
 0002:00000084       ??_C@_04PFANPMCN@?$CII?$CJV?$AA@ 10002084     pcsc.obj
 0002:0000008c       ??_C@_0CH@CNFHJICF@sun?1security?1smartcardio?1PCSCExc@ 1000208c     pcsc.obj
 0002:000000b4       ??_C@_0BB@FLFAIHG@java?1lang?1String?$AA@ 100020b4     pcsc.obj
 0002:000000f8       __load_config_used         100020f8     MSVCRT:loadcfg.obj
 0002:000001b0       ___safe_se_handler_table   100021b0     <linker-defined>
 0002:000001b4       ___rtc_iaa                 100021b4     MSVCRT:initsect.obj
 0002:000001b8       ___rtc_izz                 100021b8     MSVCRT:initsect.obj
 0002:000001bc       ___rtc_taa                 100021bc     MSVCRT:initsect.obj
 0002:000001c0       ___rtc_tzz                 100021c0     MSVCRT:initsect.obj
 0002:000001c4       __IMPORT_DESCRIPTOR_WinSCard 100021c4     winscard:WinSCard.dll
 0002:000001d8       __IMPORT_DESCRIPTOR_MSVCR71 100021d8     MSVCRT:MSVCR71.dll
 0002:000001ec       __IMPORT_DESCRIPTOR_KERNEL32 100021ec     kernel32:KERNEL32.dll
 0002:00000200       __NULL_IMPORT_DESCRIPTOR   10002200     winscard:WinSCard.dll
 0003:00000000       ___xc_a                    10003000     MSVCRT:cinitexe.obj
 0003:00000004       ___xc_z                    10003004     MSVCRT:cinitexe.obj
 0003:00000008       ___xi_a                    10003008     MSVCRT:cinitexe.obj
 0003:0000000c       ___xi_z                    1000300c     MSVCRT:cinitexe.obj
 0003:00000010       ___security_cookie         10003010     MSVCRT:seccook.obj
 0003:00000018       __adjust_fdiv              10003018     <common>
 0003:0000001c       ___onexitend               1000301c     <common>
 0003:00000020       ___onexitbegin             10003020     <common>
 0003:00000024       __pRawDllMain              10003024     <common>

 entry point at        0001:0000069b

 Static symbols

