 mlib_image

 Timestamp is 4ecc61d6 (Tue Nov 22 22:00:38 2011)

 Preferred load address is 10000000

 Start         Length     Name                   Class
 0001:00000000 00081aa8H .text                   CODE
 0002:00000000 0000002cH .idata$5                DATA
 0002:00000030 0000b348H .rdata                  DATA
 0002:0000b378 0000006aH .rdata$debug            DATA
 0002:0000b3f0 00000004H .rdata$sxdata           DATA
 0002:0000b3f4 00000004H .rtc$IAA                DATA
 0002:0000b3f8 00000004H .rtc$IZZ                DATA
 0002:0000b3fc 00000004H .rtc$TAA                DATA
 0002:0000b400 00000004H .rtc$TZZ                DATA
 0002:0000b404 00000028H .idata$2                DATA
 0002:0000b42c 00000014H .idata$3                DATA
 0002:0000b440 0000002cH .idata$4                DATA
 0002:0000b46c 000000a2H .idata$6                DATA
 0002:0000b510 00000122H .edata                  DATA
 0003:00000000 00000004H .CRT$XCA                DATA
 0003:00000004 00000004H .CRT$XCZ                DATA
 0003:00000008 00000004H .CRT$XIA                DATA
 0003:0000000c 00000004H .CRT$XIZ                DATA
 0003:00000010 000002c4H .data                   DATA
 0003:000002d4 00000014H .bss                    DATA
 0004:00000000 00000058H .rsrc$01                DATA
 0004:00000060 00000328H .rsrc$02                DATA

  Address         Publics by Value              Rva+Base     Lib:Object

 0000:00000000       __except_list              00000000     <absolute>
 0000:00000001       ___safe_se_handler_count   00000001     <absolute>
 0000:00009876       __ldused                   00009876     <absolute>
 0000:00009876       __fltused                  00009876     <absolute>
 0001:00000000       _mlib_ImageAffine_alltypes 10001000 f   mlib_ImageAffine.obj
 0001:000003a0       _j2d_mlib_ImageAffine      100013a0 f   mlib_ImageAffine.obj
 0001:00000400       _mlib_ImageSet             10001400 f   mlib_ImageCreate.obj
 0001:00000560       _j2d_mlib_ImageCreateStruct 10001560 f   mlib_ImageCreate.obj
 0001:000005c0       _j2d_mlib_ImageCreate      100015c0 f   mlib_ImageCreate.obj
 0001:00000720       _mlib_ImageSetSubimage     10001720 f   mlib_ImageCreate.obj
 0001:00000810       _j2d_mlib_ImageDelete      10001810 f   mlib_ImageCreate.obj
 0001:00000860       _j2d_mlib_ImageLookUp      10001860 f   mlib_c_ImageLookUp.obj
 0001:00001250       _mlib_ImageConvMxN_f       10002250 f   mlib_ImageConvMxN.obj
 0001:000018e0       _j2d_mlib_ImageConvMxN     100028e0 f   mlib_ImageConvMxN.obj
 0001:00001950       _j2d_mlib_ImageConvKernelConvert 10002950 f   mlib_ImageConvKernelConvert.obj
 0001:00002000       _mlib_ImageAffine_s32_1ch_nn 10003000 f   mlib_ImageAffine_NN.obj
 0001:00002240       _mlib_ImageAffine_s32_2ch_nn 10003240 f   mlib_ImageAffine_NN.obj
 0001:000023c0       _mlib_ImageAffine_s32_3ch_nn 100033c0 f   mlib_ImageAffine_NN.obj
 0001:00002550       _mlib_ImageAffine_s32_4ch_nn 10003550 f   mlib_ImageAffine_NN.obj
 0001:000026f0       _mlib_ImageAffine_d64_1ch_nn 100036f0 f   mlib_ImageAffine_NN.obj
 0001:00002860       _mlib_ImageAffine_d64_2ch_nn 10003860 f   mlib_ImageAffine_NN.obj
 0001:000029e0       _mlib_ImageAffine_d64_3ch_nn 100039e0 f   mlib_ImageAffine_NN.obj
 0001:00002b70       _mlib_ImageAffine_d64_4ch_nn 10003b70 f   mlib_ImageAffine_NN.obj
 0001:00002d10       _mlib_ImageAffine_bit_1ch_nn 10003d10 f   mlib_ImageAffine_NN_Bit.obj
 0001:00003120       _mlib_ImageAffine_s32_1ch_bc 10004120 f   mlib_ImageAffine_BC_S32.obj
 0001:00003a90       _mlib_ImageAffine_s32_2ch_bc 10004a90 f   mlib_ImageAffine_BC_S32.obj
 0001:000044a0       _mlib_ImageAffine_s32_3ch_bc 100054a0 f   mlib_ImageAffine_BC_S32.obj
 0001:00004ec0       _mlib_ImageAffine_s32_4ch_bc 10005ec0 f   mlib_ImageAffine_BC_S32.obj
 0001:000058e0       _mlib_ImageAffine_d64_1ch_bc 100068e0 f   mlib_ImageAffine_BC_D64.obj
 0001:00006190       _mlib_ImageAffine_d64_2ch_bc 10007190 f   mlib_ImageAffine_BC_D64.obj
 0001:00006b00       _mlib_ImageAffine_d64_3ch_bc 10007b00 f   mlib_ImageAffine_BC_D64.obj
 0001:00007450       _mlib_ImageAffine_d64_4ch_bc 10008450 f   mlib_ImageAffine_BC_D64.obj
 0001:00007dc0       _mlib_ImageAffine_f32_1ch_bc 10008dc0 f   mlib_ImageAffine_BC_F32.obj
 0001:00008630       _mlib_ImageAffine_f32_2ch_bc 10009630 f   mlib_ImageAffine_BC_F32.obj
 0001:00008f50       _mlib_ImageAffine_f32_3ch_bc 10009f50 f   mlib_ImageAffine_BC_F32.obj
 0001:00009880       _mlib_ImageAffine_f32_4ch_bc 1000a880 f   mlib_ImageAffine_BC_F32.obj
 0001:0000a1a0       _mlib_ImageAffine_s32_1ch_bl 1000b1a0 f   mlib_ImageAffine_BL_S32.obj
 0001:0000a4d0       _mlib_ImageAffine_s32_2ch_bl 1000b4d0 f   mlib_ImageAffine_BL_S32.obj
 0001:0000a950       _mlib_ImageAffine_s32_3ch_bl 1000b950 f   mlib_ImageAffine_BL_S32.obj
 0001:0000af00       _mlib_ImageAffine_s32_4ch_bl 1000bf00 f   mlib_ImageAffine_BL_S32.obj
 0001:0000b5f0       _mlib_ImageAffine_d64_1ch_bl 1000c5f0 f   mlib_ImageAffine_BL_D64.obj
 0001:0000bbb0       _mlib_ImageAffine_d64_2ch_bl 1000cbb0 f   mlib_ImageAffine_BL_D64.obj
 0001:0000c3e0       _mlib_ImageAffine_d64_3ch_bl 1000d3e0 f   mlib_ImageAffine_BL_D64.obj
 0001:0000c7f0       _mlib_ImageAffine_d64_4ch_bl 1000d7f0 f   mlib_ImageAffine_BL_D64.obj
 0001:0000ccd0       _mlib_ImageAffine_f32_1ch_bl 1000dcd0 f   mlib_ImageAffine_BL_F32.obj
 0001:0000d2a0       _mlib_ImageAffine_f32_2ch_bl 1000e2a0 f   mlib_ImageAffine_BL_F32.obj
 0001:0000da50       _mlib_ImageAffine_f32_3ch_bl 1000ea50 f   mlib_ImageAffine_BL_F32.obj
 0001:0000de40       _mlib_ImageAffine_f32_4ch_bl 1000ee40 f   mlib_ImageAffine_BL_F32.obj
 0001:0000e2e0       _mlib_ImageAffine_u8_1ch_nn 1000f2e0 f   mlib_c_ImageAffine_NN.obj
 0001:0000e410       _mlib_ImageAffine_u8_2ch_nn 1000f410 f   mlib_c_ImageAffine_NN.obj
 0001:0000e5b0       _mlib_ImageAffine_u8_3ch_nn 1000f5b0 f   mlib_c_ImageAffine_NN.obj
 0001:0000e770       _mlib_ImageAffine_u8_4ch_nn 1000f770 f   mlib_c_ImageAffine_NN.obj
 0001:0000e950       _mlib_ImageAffine_s16_1ch_nn 1000f950 f   mlib_c_ImageAffine_NN.obj
 0001:0000eac0       _mlib_ImageAffine_s16_2ch_nn 1000fac0 f   mlib_c_ImageAffine_NN.obj
 0001:0000ec60       _mlib_ImageAffine_s16_3ch_nn 1000fc60 f   mlib_c_ImageAffine_NN.obj
 0001:0000ee40       _mlib_ImageAffine_s16_4ch_nn 1000fe40 f   mlib_c_ImageAffine_NN.obj
 0001:0000f030       _mlib_ImageAffine_u8_1ch_bl 10010030 f   mlib_c_ImageAffine_BL.obj
 0001:0000f270       _mlib_ImageAffine_u8_2ch_bl 10010270 f   mlib_c_ImageAffine_BL.obj
 0001:0000f5a0       _mlib_ImageAffine_u8_3ch_bl 100105a0 f   mlib_c_ImageAffine_BL.obj
 0001:0000f9e0       _mlib_ImageAffine_u8_4ch_bl 100109e0 f   mlib_c_ImageAffine_BL.obj
 0001:0000ff50       _mlib_ImageAffine_s16_1ch_bl 10010f50 f   mlib_c_ImageAffine_BL_S16.obj
 0001:000101e0       _mlib_ImageAffine_s16_2ch_bl 100111e0 f   mlib_c_ImageAffine_BL_S16.obj
 0001:00010540       _mlib_ImageAffine_s16_3ch_bl 10011540 f   mlib_c_ImageAffine_BL_S16.obj
 0001:000109a0       _mlib_ImageAffine_s16_4ch_bl 100119a0 f   mlib_c_ImageAffine_BL_S16.obj
 0001:00010f20       _mlib_ImageAffine_u16_1ch_bl 10011f20 f   mlib_c_ImageAffine_BL_U16.obj
 0001:000111b0       _mlib_ImageAffine_u16_2ch_bl 100121b0 f   mlib_c_ImageAffine_BL_U16.obj
 0001:00011510       _mlib_ImageAffine_u16_3ch_bl 10012510 f   mlib_c_ImageAffine_BL_U16.obj
 0001:00011970       _mlib_ImageAffine_u16_4ch_bl 10012970 f   mlib_c_ImageAffine_BL_U16.obj
 0001:00011ef0       _mlib_ImageAffine_u8_1ch_bc 10012ef0 f   mlib_c_ImageAffine_BC.obj
 0001:00012380       _mlib_ImageAffine_u8_2ch_bc 10013380 f   mlib_c_ImageAffine_BC.obj
 0001:000128a0       _mlib_ImageAffine_u8_3ch_bc 100138a0 f   mlib_c_ImageAffine_BC.obj
 0001:00012db0       _mlib_ImageAffine_u8_4ch_bc 10013db0 f   mlib_c_ImageAffine_BC.obj
 0001:000132d0       _mlib_ImageAffine_s16_1ch_bc 100142d0 f   mlib_c_ImageAffine_BC_S16.obj
 0001:000137b0       _mlib_ImageAffine_s16_2ch_bc 100147b0 f   mlib_c_ImageAffine_BC_S16.obj
 0001:00013d50       _mlib_ImageAffine_s16_3ch_bc 10014d50 f   mlib_c_ImageAffine_BC_S16.obj
 0001:00014300       _mlib_ImageAffine_s16_4ch_bc 10015300 f   mlib_c_ImageAffine_BC_S16.obj
 0001:000148a0       _mlib_ImageAffine_u16_1ch_bc 100158a0 f   mlib_c_ImageAffine_BC_U16.obj
 0001:00014da0       _mlib_ImageAffine_u16_2ch_bc 10015da0 f   mlib_c_ImageAffine_BC_U16.obj
 0001:00015340       _mlib_ImageAffine_u16_3ch_bc 10016340 f   mlib_c_ImageAffine_BC_U16.obj
 0001:000158f0       _mlib_ImageAffine_u16_4ch_bc 100168f0 f   mlib_c_ImageAffine_BC_U16.obj
 0001:00015e90       _mlib_ImageAffineIndex_U8_U8_3CH_BC 10016e90 f   mlib_c_ImageAffineIndex_BC.obj
 0001:00016ae0       _mlib_ImageAffineIndex_U8_S16_3CH_BC 10017ae0 f   mlib_c_ImageAffineIndex_BC.obj
 0001:00017710       _mlib_ImageAffineIndex_U8_U8_4CH_BC 10018710 f   mlib_c_ImageAffineIndex_BC.obj
 0001:00018670       _mlib_ImageAffineIndex_U8_S16_4CH_BC 10019670 f   mlib_c_ImageAffineIndex_BC.obj
 0001:000195b0       _mlib_ImageAffineIndex_S16_U8_3CH_BC 1001a5b0 f   mlib_c_ImageAffineIndex_BC.obj
 0001:0001a200       _mlib_ImageAffineIndex_S16_S16_3CH_BC 1001b200 f   mlib_c_ImageAffineIndex_BC.obj
 0001:0001ae30       _mlib_ImageAffineIndex_S16_U8_4CH_BC 1001be30 f   mlib_c_ImageAffineIndex_BC.obj
 0001:0001bda0       _mlib_ImageAffineIndex_S16_S16_4CH_BC 1001cda0 f   mlib_c_ImageAffineIndex_BC.obj
 0001:0001cce0       _mlib_ImageAffineIndex_U8_U8_3CH_BL 1001dce0 f   mlib_c_ImageAffineIndex_BL.obj
 0001:0001d240       _mlib_ImageAffineIndex_U8_S16_3CH_BL 1001e240 f   mlib_c_ImageAffineIndex_BL.obj
 0001:0001d790       _mlib_ImageAffineIndex_U8_U8_4CH_BL 1001e790 f   mlib_c_ImageAffineIndex_BL.obj
 0001:0001ddd0       _mlib_ImageAffineIndex_U8_S16_4CH_BL 1001edd0 f   mlib_c_ImageAffineIndex_BL.obj
 0001:0001e3e0       _mlib_ImageAffineIndex_S16_U8_3CH_BL 1001f3e0 f   mlib_c_ImageAffineIndex_BL.obj
 0001:0001e940       _mlib_ImageAffineIndex_S16_S16_3CH_BL 1001f940 f   mlib_c_ImageAffineIndex_BL.obj
 0001:0001ee90       _mlib_ImageAffineIndex_S16_U8_4CH_BL 1001fe90 f   mlib_c_ImageAffineIndex_BL.obj
 0001:0001f4d0       _mlib_ImageAffineIndex_S16_S16_4CH_BL 100204d0 f   mlib_c_ImageAffineIndex_BL.obj
 0001:0001fae0       _mlib_ImageAffineEdgeZero  10020ae0 f   mlib_ImageAffineEdge.obj
 0001:000202d0       _mlib_ImageAffineEdgeNearest 100212d0 f   mlib_ImageAffineEdge.obj
 0001:00021470       _mlib_ImageAffineEdgeExtend_BL 10022470 f   mlib_ImageAffineEdge.obj
 0001:00027210       _mlib_ImageAffineEdgeExtend_BC 10028210 f   mlib_ImageAffineEdge.obj
 0001:00039770       _mlib_AffineEdges          1003a770 f   mlib_ImageScanPoly.obj
 0001:0003ab60       _mlib_search_quadrant_U8_3 1003bb60 f   mlib_ImageColorTrue2Index.obj
 0001:0003ac30       _mlib_search_quadrant_part_to_left_U8_3 1003bc30 f   mlib_ImageColorTrue2Index.obj
 0001:0003ae40       _mlib_search_quadrant_part_to_right_U8_3 1003be40 f   mlib_ImageColorTrue2Index.obj
 0001:0003b040       _mlib_search_quadrant_S16_3 1003c040 f   mlib_ImageColorTrue2Index.obj
 0001:0003b120       _mlib_search_quadrant_part_to_left_S16_3 1003c120 f   mlib_ImageColorTrue2Index.obj
 0001:0003b370       _mlib_search_quadrant_part_to_right_S16_3 1003c370 f   mlib_ImageColorTrue2Index.obj
 0001:0003b5c0       _mlib_search_quadrant_U8_4 1003c5c0 f   mlib_ImageColorTrue2Index.obj
 0001:0003b6a0       _mlib_search_quadrant_part_to_left_U8_4 1003c6a0 f   mlib_ImageColorTrue2Index.obj
 0001:0003b900       _mlib_search_quadrant_part_to_right_U8_4 1003c900 f   mlib_ImageColorTrue2Index.obj
 0001:0003bb60       _mlib_search_quadrant_S16_4 1003cb60 f   mlib_ImageColorTrue2Index.obj
 0001:0003bc70       _mlib_search_quadrant_part_to_left_S16_4 1003cc70 f   mlib_ImageColorTrue2Index.obj
 0001:0003bf20       _mlib_search_quadrant_part_to_right_S16_4 1003cf20 f   mlib_ImageColorTrue2Index.obj
 0001:0003c1c0       _mlib_ImageColorTrue2IndexLine_U8_U8_3 1003d1c0 f   mlib_ImageColorTrue2Index.obj
 0001:0003c5f0       _mlib_ImageColorTrue2IndexLine_U8_U8_4 1003d5f0 f   mlib_ImageColorTrue2Index.obj
 0001:0003cbb0       _mlib_ImageColorTrue2IndexLine_U8_S16_3 1003dbb0 f   mlib_ImageColorTrue2Index.obj
 0001:00040570       _mlib_ImageColorTrue2IndexLine_U8_S16_4 10041570 f   mlib_ImageColorTrue2Index.obj
 0001:00046db0       _mlib_ImageColorTrue2IndexLine_S16_S16_3 10047db0 f   mlib_ImageColorTrue2Index.obj
 0001:0004b000       _mlib_ImageColorTrue2IndexLine_S16_S16_4 1004c000 f   mlib_ImageColorTrue2Index.obj
 0001:000529d0       _mlib_ImageColorTrue2IndexLine_S16_U8_3 100539d0 f   mlib_ImageColorTrue2Index.obj
 0001:00052e10       _mlib_ImageColorTrue2IndexLine_S16_U8_4 10053e10 f   mlib_ImageColorTrue2Index.obj
 0001:000533d0       _mlib_c_ImageLookUp_U8_U8  100543d0 f   mlib_c_ImageLookUp_f.obj
 0001:00054240       _mlib_c_ImageLookUp_S16_U8 10055240 f   mlib_c_ImageLookUp_f.obj
 0001:00054450       _mlib_c_ImageLookUp_U16_U8 10055450 f   mlib_c_ImageLookUp_f.obj
 0001:00054640       _mlib_c_ImageLookUp_S32_U8 10055640 f   mlib_c_ImageLookUp_f.obj
 0001:00054860       _mlib_c_ImageLookUp_U8_S16 10055860 f   mlib_c_ImageLookUp_f.obj
 0001:00055940       _mlib_c_ImageLookUp_S16_S16 10056940 f   mlib_c_ImageLookUp_f.obj
 0001:00055ba0       _mlib_c_ImageLookUp_U16_S16 10056ba0 f   mlib_c_ImageLookUp_f.obj
 0001:00055dd0       _mlib_c_ImageLookUp_S32_S16 10056dd0 f   mlib_c_ImageLookUp_f.obj
 0001:00056050       _mlib_c_ImageLookUp_S16_U16 10057050 f   mlib_c_ImageLookUp_f.obj
 0001:000562b0       _mlib_c_ImageLookUp_U16_U16 100572b0 f   mlib_c_ImageLookUp_f.obj
 0001:000564e0       _mlib_c_ImageLookUp_S32_U16 100574e0 f   mlib_c_ImageLookUp_f.obj
 0001:00056760       _mlib_c_ImageLookUp_U8_S32 10057760 f   mlib_c_ImageLookUp_f.obj
 0001:000571e0       _mlib_c_ImageLookUp_S16_S32 100581e0 f   mlib_c_ImageLookUp_f.obj
 0001:00057450       _mlib_c_ImageLookUp_U16_S32 10058450 f   mlib_c_ImageLookUp_f.obj
 0001:000576a0       _mlib_c_ImageLookUp_S32_S32 100586a0 f   mlib_c_ImageLookUp_f.obj
 0001:00057920       _mlib_c_ImageLookUpSI_U8_U8 10058920 f   mlib_c_ImageLookUp_f.obj
 0001:000584f0       _mlib_c_ImageLookUpSI_S16_U8 100594f0 f   mlib_c_ImageLookUp_f.obj
 0001:00059180       _mlib_c_ImageLookUpSI_U16_U8 1005a180 f   mlib_c_ImageLookUp_f.obj
 0001:000597f0       _mlib_c_ImageLookUpSI_S32_U8 1005a7f0 f   mlib_c_ImageLookUp_f.obj
 0001:000599c0       _mlib_c_ImageLookUpSI_U8_S16 1005a9c0 f   mlib_c_ImageLookUp_f.obj
 0001:0005a5d0       _mlib_c_ImageLookUpSI_S16_S16 1005b5d0 f   mlib_c_ImageLookUp_f.obj
 0001:0005a7f0       _mlib_c_ImageLookUpSI_U16_S16 1005b7f0 f   mlib_c_ImageLookUp_f.obj
 0001:0005a9f0       _mlib_c_ImageLookUpSI_S32_S16 1005b9f0 f   mlib_c_ImageLookUp_f.obj
 0001:0005ac10       _mlib_c_ImageLookUpSI_S16_U16 1005bc10 f   mlib_c_ImageLookUp_f.obj
 0001:0005ae30       _mlib_c_ImageLookUpSI_U16_U16 1005be30 f   mlib_c_ImageLookUp_f.obj
 0001:0005b030       _mlib_c_ImageLookUpSI_S32_U16 1005c030 f   mlib_c_ImageLookUp_f.obj
 0001:0005b250       _mlib_c_ImageLookUpSI_U8_S32 1005c250 f   mlib_c_ImageLookUp_f.obj
 0001:0005bc50       _mlib_c_ImageLookUpSI_S16_S32 1005cc50 f   mlib_c_ImageLookUp_f.obj
 0001:0005be70       _mlib_c_ImageLookUpSI_U16_S32 1005ce70 f   mlib_c_ImageLookUp_f.obj
 0001:0005c060       _mlib_c_ImageLookUpSI_S32_S32 1005d060 f   mlib_c_ImageLookUp_f.obj
 0001:0005c260       _mlib_ImageLookUp_U8_D64   1005d260 f   mlib_ImageLookUp_64.obj
 0001:0005cdf0       _mlib_ImageLookUp_S16_D64  1005ddf0 f   mlib_ImageLookUp_64.obj
 0001:0005d0c0       _mlib_ImageLookUp_U16_D64  1005e0c0 f   mlib_ImageLookUp_64.obj
 0001:0005d360       _mlib_ImageLookUp_S32_D64  1005e360 f   mlib_ImageLookUp_64.obj
 0001:0005d640       _mlib_ImageLookUpSI_U8_D64 1005e640 f   mlib_ImageLookUp_64.obj
 0001:0005e5e0       _mlib_ImageLookUpSI_S16_D64 1005f5e0 f   mlib_ImageLookUp_64.obj
 0001:0005e860       _mlib_ImageLookUpSI_U16_D64 1005f860 f   mlib_ImageLookUp_64.obj
 0001:0005eaa0       _mlib_ImageLookUpSI_S32_D64 1005faa0 f   mlib_ImageLookUp_64.obj
 0001:0005ed20       _mlib_ImageLookUp_Bit_U8_1 1005fd20 f   mlib_ImageLookUp_Bit.obj
 0001:0005efa0       _mlib_ImageLookUp_Bit_U8_2 1005ffa0 f   mlib_ImageLookUp_Bit.obj
 0001:0005f210       _mlib_ImageLookUp_Bit_U8_3 10060210 f   mlib_ImageLookUp_Bit.obj
 0001:0005f6a0       _mlib_ImageLookUp_Bit_U8_4 100606a0 f   mlib_ImageLookUp_Bit.obj
 0001:0005faa0       _mlib_ImageCopy_na         10060aa0 f   mlib_c_ImageCopy.obj
 0001:000609d0       _mlib_convMxNext_s16       100619d0 f   mlib_ImageConv_16ext.obj
 0001:00062870       _mlib_i_convMxNext_s16     10063870 f   mlib_ImageConv_16ext.obj
 0001:00064e10       _mlib_convMxNext_u16       10065e10 f   mlib_ImageConv_u16ext.obj
 0001:00066d30       _mlib_i_convMxNext_u16     10067d30 f   mlib_ImageConv_u16ext.obj
 0001:00068950       _mlib_convMxNext_s32       10069950 f   mlib_ImageConvMxN_ext.obj
 0001:000695d0       _mlib_convMxNext_f32       1006a5d0 f   mlib_ImageConvMxN_Fp.obj
 0001:0006a0e0       _mlib_convMxNext_d64       1006b0e0 f   mlib_ImageConvMxN_Fp.obj
 0001:0006b060       _mlib_c_convMxNext_u8      1006c060 f   mlib_ImageConv_8ext.obj
 0001:0006ce50       _mlib_i_convMxNext_u8      1006de50 f   mlib_ImageConv_8ext.obj
 0001:0006e610       _mlib_convMxNnw_u8         1006f610 f   mlib_c_ImageConv_f.obj
 0001:0006e670       _mlib_convMxNext_u8        1006f670 f   mlib_c_ImageConv_f.obj
 0001:0006e700       _mlib_ImageClippingMxN     1006f700 f   mlib_ImageClipping.obj
 0001:0006e930       _mlib_ImageConvCopyEdge    1006f930 f   mlib_c_ImageConvCopyEdge.obj
 0001:0006fb90       _mlib_ImageConvClearEdge   10070b90 f   mlib_c_ImageConvClearEdge.obj
 0001:000701d0       _mlib_ImageConvZeroEdge    100711d0 f   mlib_c_ImageConvClearEdge.obj
 0001:00070d20       _mlib_c_convMxNnw_u8       10071d20 f   mlib_ImageConv_8nw.obj
 0001:00072930       _mlib_i_convMxNnw_u8       10073930 f   mlib_ImageConv_8nw.obj
 0001:00074720       _mlib_convMxNnw_s16        10075720 f   mlib_ImageConv_16nw.obj
 0001:00076330       _mlib_i_convMxNnw_s16      10077330 f   mlib_ImageConv_16nw.obj
 0001:00078130       _mlib_convMxNnw_u16        10079130 f   mlib_ImageConv_u16nw.obj
 0001:00079da0       _mlib_i_convMxNnw_u16      1007ada0 f   mlib_ImageConv_u16nw.obj
 0001:0007b980       _mlib_convMxNnw_s32        1007c980 f   mlib_ImageConv_32nw.obj
 0001:0007d8f0       _mlib_convMxNnw_f32        1007e8f0 f   mlib_ImageConv_F32nw.obj
 0001:0007ee80       _mlib_convMxNnw_d64        1007fe80 f   mlib_ImageConv_D64nw.obj
 0001:0007fc30       _mlib_ImageConvClearEdge_Fp 10080c30 f   mlib_ImageConvClearEdge_Fp.obj
 0001:00080080       _mlib_ImageConvCopyEdge_Bit 10081080 f   mlib_ImageConvCopyEdge_Bit.obj
 0001:00080d90       _mlib_ImageConvClearEdge_Bit 10081d90 f   mlib_ImageConvClearEdge_Bit.obj
 0001:00081250       _mlib_ImageCopy_bit_na     10082250 f   mlib_ImageCopy_Bit.obj
 0001:00081590       _mlib_ImageConvVersion     10082590 f   mlib_c_ImageConvVersion.obj
 0001:00081610       _mlib_malloc               10082610 f   mlib_sys.obj
 0001:00081620       _mlib_free                 10082620 f   mlib_sys.obj
 0001:00081630       _mlib_ilogb                10082630 f   mlib_ImageUtils.obj
 0001:000816a0       __ftol2                    100826a0 f   MSVCRT:ftol2.obj
 0001:00081720       __alloca_probe             10082720     MSVCRT:chkstk.obj
 0001:00081720       __chkstk                   10082720 f   MSVCRT:chkstk.obj
 0001:00081760       __aullshr                  10082760 f   MSVCRT:ullshr.obj
 0001:00081780       __allshl                   10082780 f   MSVCRT:llshl.obj
 0001:000817a0       __allshr                   100827a0 f   MSVCRT:llshr.obj
 0001:000817c1       __CRT_INIT@12              100827c1 f   MSVCRT:crtdll.obj
 0001:0008187f       __DllMainCRTStartup@12     1008287f f   MSVCRT:crtdll.obj
 0001:00081964       __initterm                 10082964 f   MSVCRT:MSVCR71.dll
 0001:0008196a       __onexit                   1008296a f   MSVCRT:atonexit.obj
 0001:00081990       _atexit                    10082990 f   MSVCRT:atonexit.obj
 0001:000819a2       __RTC_Initialize           100829a2 f   MSVCRT:initsect.obj
 0001:000819e6       __RTC_Terminate            100829e6 f   MSVCRT:initsect.obj
 0001:00081a2a       ___CppXcptFilter           10082a2a f   MSVCRT:MSVCR71.dll
 0001:00081a30       _DllMain@12                10082a30 f   MSVCRT:dllmain.obj
 0001:00081a50       __SEH_prolog               10082a50 f   MSVCRT:sehprolg.obj
 0001:00081a8b       __SEH_epilog               10082a8b f   MSVCRT:sehprolg.obj
 0001:00081a9c       __except_handler3          10082a9c f   MSVCRT:MSVCR71.dll
 0001:00081aa2       ___dllonexit               10082aa2 f   MSVCRT:MSVCR71.dll
 0002:00000000       __imp__DisableThreadLibraryCalls@4 10083000     kernel32:KERNEL32.dll
 0002:00000004       \177KERNEL32_NULL_THUNK_DATA 10083004     kernel32:KERNEL32.dll
 0002:00000008       __imp__free                10083008     MSVCRT:MSVCR71.dll
 0002:0000000c       __imp___initterm           1008300c     MSVCRT:MSVCR71.dll
 0002:00000010       __imp___adjust_fdiv        10083010     MSVCRT:MSVCR71.dll
 0002:00000014       __imp___except_handler3    10083014     MSVCRT:MSVCR71.dll
 0002:00000018       __imp____dllonexit         10083018     MSVCRT:MSVCR71.dll
 0002:0000001c       __imp___onexit             1008301c     MSVCRT:MSVCR71.dll
 0002:00000020       __imp____CppXcptFilter     10083020     MSVCRT:MSVCR71.dll
 0002:00000024       __imp__malloc              10083024     MSVCRT:MSVCR71.dll
 0002:00000028       \177MSVCR71_NULL_THUNK_DATA 10083028     MSVCRT:MSVCR71.dll
 0002:00000050       _mlib_AffineFunArr_nn      10083050     mlib_ImageAffine.obj
 0002:00000090       _mlib_AffineFunArr_bl      10083090     mlib_ImageAffine.obj
 0002:000000f0       _mlib_AffineFunArr_bc      100830f0     mlib_ImageAffine.obj
 0002:00000150       _mlib_AffineFunArr_bc_i    10083150     mlib_ImageAffine.obj
 0002:00000170       __real@41f0000000000000    10083170     mlib_ImageConvKernelConvert.obj
 0002:00000178       __real@c1e0000000000000    10083178     mlib_ImageConvKernelConvert.obj
 0002:00000180       __real@41dfffffffc00000    10083180     mlib_ImageConvKernelConvert.obj
 0002:00000188       __real@3fe0000000000000    10083188     mlib_ImageConvKernelConvert.obj
 0002:00000190       __real@41d0000000000000    10083190     mlib_ImageConvKernelConvert.obj
 0002:00000198       __real@3ff0000000000000    10083198     mlib_ImageConvKernelConvert.obj
 0002:000001a0       __real@0000000000000000    100831a0     mlib_ImageConvKernelConvert.obj
 0002:000001a8       __real@4004000000000000    100831a8     mlib_ImageAffine_BC_S32.obj
 0002:000001b0       __real@4008000000000000    100831b0     mlib_ImageAffine_BC_S32.obj
 0002:000001b8       __real@3ef0000000000000    100831b8     mlib_ImageAffine_BC_S32.obj
 0002:000001c0       __real@3f800000            100831c0     mlib_ImageAffine_BC_F32.obj
 0002:000001c4       __real@40200000            100831c4     mlib_ImageAffine_BC_F32.obj
 0002:000001c8       __real@40400000            100831c8     mlib_ImageAffine_BC_F32.obj
 0002:000001cc       __real@3f000000            100831cc     mlib_ImageAffine_BC_F32.obj
 0002:000001d0       __real@37800000            100831d0     mlib_ImageAffine_BC_F32.obj
 0002:000001d8       __real@41dfe00000000000    100831d8     mlib_c_ImageAffineIndex_BC.obj
 0002:000001e0       _mlib_AffineFunArr_bl_i    100831e0     mlib_c_ImageAffineIndex_BL.obj
 0002:00000200       __real@41dfffe000000000    10083200     mlib_ImageAffineEdge.obj
 0002:00000208       __real@bfe0000000000000    10083208     mlib_ImageScanPoly.obj
 0002:00000210       __real@bfc0000000000000    10083210     mlib_ImageColorTrue2Index.obj
 0002:00000218       _mlib_div6_tab             10083218     mlib_ImageDivTables.obj
 0002:00000418       _mlib_div1_tab             10083418     mlib_ImageDivTables.obj
 0002:00000618       _mlib_HSL2RGB_L2           10083618     mlib_ImageDivTables.obj
 0002:00000a18       _mlib_HSL2RGB_F            10083a18     mlib_ImageDivTables.obj
 0002:00000e18       _mlib_U82F32               10083e18     mlib_ImageDivTables.obj
 0002:00001220       _mlib_U82D64               10084220     mlib_ImageDivTables.obj
 0002:00001a28       _mlib_FlipAndFixRotateTable 10084a28     mlib_ImageDivTables.obj
 0002:00002228       _mlib_filters_u8f_bc       10085228     mlib_ImageFilters.obj
 0002:00003228       _mlib_filters_u8f_bc2      10086228     mlib_ImageFilters.obj
 0002:00004228       _mlib_filters_s16f_bc      10087228     mlib_ImageFilters.obj
 0002:00006228       _mlib_filters_s16f_bc2     10089228     mlib_ImageFilters.obj
 0002:00008228       _mlib_filters_u8_bc        1008b228     mlib_ImageFilters.obj
 0002:00008a28       _mlib_filters_u8_bc2       1008ba28     mlib_ImageFilters.obj
 0002:00009228       _mlib_filters_s16_bc       1008c228     mlib_ImageFilters.obj
 0002:0000a228       _mlib_filters_s16_bc2      1008d228     mlib_ImageFilters.obj
 0002:0000b2a8       __real@3e10000000000000    1008e2a8     mlib_ImageConv_16ext.obj
 0002:0000b2b0       __real@40f0000000000000    1008e2b0     mlib_ImageConv_16ext.obj
 0002:0000b2b8       __real@3f10000000000000    1008e2b8     mlib_ImageConv_16ext.obj
 0002:0000b2c0       __real@41e0000000000000    1008e2c0     mlib_ImageConv_u16ext.obj
 0002:0000b2c8       __real@4170000000000000    1008e2c8     mlib_ImageConv_8ext.obj
 0002:0000b2d0       __real@3f90000000000000    1008e2d0     mlib_ImageConv_8ext.obj
 0002:0000b2d8       __real@00000000            1008e2d8     mlib_ImageConv_F32nw.obj
 0002:0000b2e0       __real@4040000000000000    1008e2e0     mlib_c_ImageConvVersion.obj
 0002:0000b2e8       __real@4020000000000000    1008e2e8     mlib_c_ImageConvVersion.obj
 0002:0000b2f0       __real@40e0000000000000    1008e2f0     mlib_c_ImageConvVersion.obj
 0002:0000b2f8       __real@4330000000000000    1008e2f8     mlib_ImageUtils.obj
 0002:0000b330       __load_config_used         1008e330     MSVCRT:loadcfg.obj
 0002:0000b3f0       ___safe_se_handler_table   1008e3f0     <linker-defined>
 0002:0000b3f4       ___rtc_iaa                 1008e3f4     MSVCRT:initsect.obj
 0002:0000b3f8       ___rtc_izz                 1008e3f8     MSVCRT:initsect.obj
 0002:0000b3fc       ___rtc_taa                 1008e3fc     MSVCRT:initsect.obj
 0002:0000b400       ___rtc_tzz                 1008e400     MSVCRT:initsect.obj
 0002:0000b404       __IMPORT_DESCRIPTOR_MSVCR71 1008e404     MSVCRT:MSVCR71.dll
 0002:0000b418       __IMPORT_DESCRIPTOR_KERNEL32 1008e418     kernel32:KERNEL32.dll
 0002:0000b42c       __NULL_IMPORT_DESCRIPTOR   1008e42c     MSVCRT:MSVCR71.dll
 0003:00000000       ___xc_a                    1008f000     MSVCRT:cinitexe.obj
 0003:00000004       ___xc_z                    1008f004     MSVCRT:cinitexe.obj
 0003:00000008       ___xi_a                    1008f008     MSVCRT:cinitexe.obj
 0003:0000000c       ___xi_z                    1008f00c     MSVCRT:cinitexe.obj
 0003:000002d0       ___security_cookie         1008f2d0     MSVCRT:seccook.obj
 0003:000002d8       __adjust_fdiv              1008f2d8     <common>
 0003:000002dc       ___onexitend               1008f2dc     <common>
 0003:000002e0       ___onexitbegin             1008f2e0     <common>
 0003:000002e4       __pRawDllMain              1008f2e4     <common>

 entry point at        0001:0008187f

 Static symbols

 0001:0005fc40       _mlib_ImageConv1xN_ext     10060c40 f   mlib_ImageConv_16ext.obj
 0001:000640c0       _mlib_ImageConv1xN_ext     100650c0 f   mlib_ImageConv_u16ext.obj
 0001:00068560       _mlib_ImageConvMxNMulAdd_S32 10069560 f   mlib_ImageConvMxN_ext.obj
 0001:00068860       _mlib_ImageConvMxNMedian_S32 10069860 f   mlib_ImageConvMxN_ext.obj
 0001:000688d0       _mlib_ImageConvMxNS322S32_ext 100698d0 f   mlib_ImageConvMxN_ext.obj
 0001:00068cf0       _mlib_ImageConvMxNMulAdd_F32 10069cf0 f   mlib_ImageConvMxN_Fp.obj
 0001:00069550       _mlib_ImageConvMxNF322F32_ext 1006a550 f   mlib_ImageConvMxN_Fp.obj
 0001:00069860       _mlib_ImageConvMxNMulAdd_D64 1006a860 f   mlib_ImageConvMxN_Fp.obj
 0001:0006a050       _mlib_ImageConvMxND642D64_ext 1006b050 f   mlib_ImageConvMxN_Fp.obj
 0001:0006a330       _mlib_ImageConv1xN_ext     1006b330 f   mlib_ImageConv_8ext.obj
 0001:00070260       _mlib_ImageConv1xN         10071260 f   mlib_ImageConv_8nw.obj
 0001:00073bc0       _mlib_ImageConv1xN         10074bc0 f   mlib_ImageConv_16nw.obj
 0001:000775e0       _mlib_ImageConv1xN         100785e0 f   mlib_ImageConv_u16nw.obj
 0001:0007b020       _mlib_ImageConv1xN         1007c020 f   mlib_ImageConv_32nw.obj
 0001:0007d250       _mlib_ImageConv1xN         1007e250 f   mlib_ImageConv_F32nw.obj
 0001:0007e6f0       _mlib_ImageConv1xN         1007f6f0 f   mlib_ImageConv_D64nw.obj
