 sunmscapi

 Timestamp is 4ecc6117 (Tue Nov 22 21:57:27 2011)

 Preferred load address is 10000000

 Start         Length     Name                   Class
 0001:00000000 00001e84H .text                   CODE
 0002:00000000 000000d8H .idata$5                DATA
 0002:000000e0 00000458H .rdata                  DATA
 0002:00000538 0000006bH .rdata$debug            DATA
 0002:000005b0 00000004H .rdata$sxdata           DATA
 0002:000005b4 00000004H .rtc$IAA                DATA
 0002:000005b8 00000004H .rtc$IZZ                DATA
 0002:000005bc 00000004H .rtc$TAA                DATA
 0002:000005c0 00000004H .rtc$TZZ                DATA
 0002:000005c4 00000050H .idata$2                DATA
 0002:00000614 00000014H .idata$3                DATA
 0002:00000628 000000d8H .idata$4                DATA
 0002:00000700 00000432H .idata$6                DATA
 0002:00000b40 000005d8H .edata                  DATA
 0003:00000000 00000004H .CRT$XCA                DATA
 0003:00000004 00000004H .CRT$XCZ                DATA
 0003:00000008 00000004H .CRT$XIA                DATA
 0003:0000000c 00000004H .CRT$XIZ                DATA
 0003:00000010 00000004H .data                   DATA
 0003:00000014 00000014H .bss                    DATA
 0004:00000000 00000058H .rsrc$01                DATA
 0004:00000060 00000320H .rsrc$02                DATA

  Address         Publics by Value              Rva+Base     Lib:Object

 0000:00000001       ___safe_se_handler_count   00000001     <absolute>
 0001:00000000       ?NewObject@JNIEnv_@@QAAPAV_jobject@@PAV_jclass@@PAU_jmethodID@@ZZ 10001000 f i security.obj
 0001:00000018       ?CallVoidMethod@JNIEnv_@@QAAXPAV_jobject@@PAU_jmethodID@@ZZ 10001018 f i security.obj
 0001:00000033       ?ReleaseStringChars@JNIEnv_@@QAEXPAV_jstring@@PBG@Z 10001033 f i security.obj
 0001:00000047       ?GetByteArrayRegion@JNIEnv_@@QAEXPAV_jbyteArray@@JJPAC@Z 10001047 f i security.obj
 0001:00000063       ?SetByteArrayRegion@JNIEnv_@@QAEXPAV_jbyteArray@@JJPBC@Z 10001063 f i security.obj
 0001:0000007f       _ThrowException            1000107f f   security.obj
 0001:000000cb       _MapHashAlgorithm          100010cb f   security.obj
 0001:000001b4       _GetCertificateChain       100011b4 f   security.obj
 0001:00000202       _Java_sun_security_mscapi_PRNG_generateSeed@16 10001202 f   security.obj
 0001:00000374       _Java_sun_security_mscapi_KeyStore_loadKeysOrCertificateChains@16 10001374 f   security.obj
 0001:000006d9       _Java_sun_security_mscapi_Key_cleanUp@24 100016d9 f   security.obj
 0001:00000704       _Java_sun_security_mscapi_RSASignature_signHash@36 10001704 f   security.obj
 0001:0000086c       _Java_sun_security_mscapi_RSASignature_verifySignedHash@44 1000186c f   security.obj
 0001:00000974       _Java_sun_security_mscapi_RSAKeyPairGenerator_generateRSAKeyPair@16 10001974 f   security.obj
 0001:00000a56       _Java_sun_security_mscapi_Key_getContainerName@16 10001a56 f   security.obj
 0001:00000a9c       _Java_sun_security_mscapi_Key_getKeyType@16 10001a9c f   security.obj
 0001:00000b16       _Java_sun_security_mscapi_KeyStore_storeCertificate@40 10001b16 f   security.obj
 0001:00000e62       _Java_sun_security_mscapi_KeyStore_removeCertificate@24 10001e62 f   security.obj
 0001:00001013       _Java_sun_security_mscapi_KeyStore_destroyKeyContainer@12 10002013 f   security.obj
 0001:0000109c       _Java_sun_security_mscapi_RSACipher_findCertificateUsingAlias@16 1000209c f   security.obj
 0001:000011c7       _Java_sun_security_mscapi_RSACipher_getKeyFromCert@20 100021c7 f   security.obj
 0001:000012a1       _Java_sun_security_mscapi_KeyStore_getKeyLength@16 100022a1 f   security.obj
 0001:00001308       _Java_sun_security_mscapi_RSACipher_encryptDecrypt@28 10002308 f   security.obj
 0001:00001441       _Java_sun_security_mscapi_RSAPublicKey_getPublicKeyBlob@16 10002441 f   security.obj
 0001:000014f1       _Java_sun_security_mscapi_RSAPublicKey_getExponent@12 100024f1 f   security.obj
 0001:000015e7       _Java_sun_security_mscapi_RSAPublicKey_getModulus@12 100025e7 f   security.obj
 0001:000016e2       _convertToLittleEndian     100026e2 f   security.obj
 0001:0000174f       _generateKeyBlob           1000274f f   security.obj
 0001:0000191b       _Java_sun_security_mscapi_KeyStore_generatePrivateKeyBlob@44 1000291b f   security.obj
 0001:00001948       _Java_sun_security_mscapi_RSASignature_generatePublicKeyBlob@20 10002948 f   security.obj
 0001:0000196b       _Java_sun_security_mscapi_KeyStore_storePrivateKey@20 1000296b f   security.obj
 0001:00001a8a       _Java_sun_security_mscapi_RSASignature_importPublicKey@16 10002a8a f   security.obj
 0001:00001b84       _strcmp                    10002b84 f   MSVCRT:MSVCR71.dll
 0001:00001b8a       ??3@YAXPAX@Z               10002b8a f   MSVCRT:MSVCR71.dll
 0001:00001b90       ??2@YAPAXI@Z               10002b90 f   MSVCRT:MSVCR71.dll
 0001:00001b98       __SEH_prolog               10002b98 f   MSVCRT:sehprolg.obj
 0001:00001bd3       __SEH_epilog               10002bd3 f   MSVCRT:sehprolg.obj
 0001:00001be4       __except_handler3          10002be4 f   MSVCRT:MSVCR71.dll
 0001:00001bea       _memcpy                    10002bea f   MSVCRT:MSVCR71.dll
 0001:00001bf0       __CRT_INIT@12              10002bf0 f   MSVCRT:crtdll.obj
 0001:00001cae       __DllMainCRTStartup@12     10002cae f   MSVCRT:crtdll.obj
 0001:00001d92       __initterm                 10002d92 f   MSVCRT:MSVCR71.dll
 0001:00001d98       __onexit                   10002d98 f   MSVCRT:atonexit.obj
 0001:00001dbe       _atexit                    10002dbe f   MSVCRT:atonexit.obj
 0001:00001dd0       __RTC_Initialize           10002dd0 f   MSVCRT:initsect.obj
 0001:00001e14       __RTC_Terminate            10002e14 f   MSVCRT:initsect.obj
 0001:00001e58       ___CppXcptFilter           10002e58 f   MSVCRT:MSVCR71.dll
 0001:00001e5e       _DllMain@12                10002e5e f   MSVCRT:dllmain.obj
 0001:00001e7e       ___dllonexit               10002e7e f   MSVCRT:MSVCR71.dll
 0002:00000000       __imp__CryptVerifySignatureA@24 10003000     advapi32:ADVAPI32.dll
 0002:00000004       __imp__CryptImportKey@24   10003004     advapi32:ADVAPI32.dll
 0002:00000008       __imp__CryptExportKey@24   10003008     advapi32:ADVAPI32.dll
 0002:0000000c       __imp__CryptEncrypt@28     1000300c     advapi32:ADVAPI32.dll
 0002:00000010       __imp__CryptDecrypt@24     10003010     advapi32:ADVAPI32.dll
 0002:00000014       __imp__CryptGetProvParam@20 10003014     advapi32:ADVAPI32.dll
 0002:00000018       __imp__CryptGenKey@16      10003018     advapi32:ADVAPI32.dll
 0002:0000001c       __imp__CryptCreateHash@20  1000301c     advapi32:ADVAPI32.dll
 0002:00000020       __imp__CryptSetHashParam@16 10003020     advapi32:ADVAPI32.dll
 0002:00000024       __imp__CryptSignHashA@24   10003024     advapi32:ADVAPI32.dll
 0002:00000028       __imp__CryptDestroyHash@4  10003028     advapi32:ADVAPI32.dll
 0002:0000002c       __imp__CryptDestroyKey@4   1000302c     advapi32:ADVAPI32.dll
 0002:00000030       __imp__CryptGetUserKey@12  10003030     advapi32:ADVAPI32.dll
 0002:00000034       __imp__CryptSetKeyParam@16 10003034     advapi32:ADVAPI32.dll
 0002:00000038       __imp__CryptGetKeyParam@20 10003038     advapi32:ADVAPI32.dll
 0002:0000003c       __imp__CryptAcquireContextA@20 1000303c     advapi32:ADVAPI32.dll
 0002:00000040       __imp__CryptReleaseContext@8 10003040     advapi32:ADVAPI32.dll
 0002:00000044       __imp__CryptGenRandom@12   10003044     advapi32:ADVAPI32.dll
 0002:00000048       \177ADVAPI32_NULL_THUNK_DATA 10003048     advapi32:ADVAPI32.dll
 0002:0000004c       __imp__CryptImportPublicKeyInfo@16 1000304c     Crypt32:CRYPT32.dll
 0002:00000050       __imp__CertFindCertificateInStore@24 10003050     Crypt32:CRYPT32.dll
 0002:00000054       __imp__CertDeleteCertificateFromStore@4 10003054     Crypt32:CRYPT32.dll
 0002:00000058       __imp__CertCreateCertificateContext@12 10003058     Crypt32:CRYPT32.dll
 0002:0000005c       __imp__CertSetCertificateContextProperty@16 1000305c     Crypt32:CRYPT32.dll
 0002:00000060       __imp__CertAddCertificateContextToStore@16 10003060     Crypt32:CRYPT32.dll
 0002:00000064       __imp__CertFreeCertificateContext@4 10003064     Crypt32:CRYPT32.dll
 0002:00000068       __imp__CertOpenSystemStoreA@8 10003068     Crypt32:CRYPT32.dll
 0002:0000006c       __imp__CertGetCertificateChain@32 1000306c     Crypt32:CRYPT32.dll
 0002:00000070       __imp__CertEnumCertificatesInStore@8 10003070     Crypt32:CRYPT32.dll
 0002:00000074       __imp__CryptAcquireCertificatePrivateKey@24 10003074     Crypt32:CRYPT32.dll
 0002:00000078       __imp__CertGetPublicKeyLength@8 10003078     Crypt32:CRYPT32.dll
 0002:0000007c       __imp__CertGetNameStringA@24 1000307c     Crypt32:CRYPT32.dll
 0002:00000080       __imp__CertFreeCertificateChain@4 10003080     Crypt32:CRYPT32.dll
 0002:00000084       __imp__CertCloseStore@8    10003084     Crypt32:CRYPT32.dll
 0002:00000088       \177CRYPT32_NULL_THUNK_DATA 10003088     Crypt32:CRYPT32.dll
 0002:0000008c       __imp__GetLastError@0      1000308c     kernel32:KERNEL32.dll
 0002:00000090       __imp__FormatMessageA@28   10003090     kernel32:KERNEL32.dll
 0002:00000094       __imp__DisableThreadLibraryCalls@4 10003094     kernel32:KERNEL32.dll
 0002:00000098       \177KERNEL32_NULL_THUNK_DATA 10003098     kernel32:KERNEL32.dll
 0002:0000009c       __imp__sprintf             1000309c     MSVCRT:MSVCR71.dll
 0002:000000a0       __imp__mbstowcs            100030a0     MSVCRT:MSVCR71.dll
 0002:000000a4       __imp__memcpy              100030a4     MSVCRT:MSVCR71.dll
 0002:000000a8       __imp__free                100030a8     MSVCRT:MSVCR71.dll
 0002:000000ac       __imp___initterm           100030ac     MSVCRT:MSVCR71.dll
 0002:000000b0       __imp___except_handler3    100030b0     MSVCRT:MSVCR71.dll
 0002:000000b4       __imp___adjust_fdiv        100030b4     MSVCRT:MSVCR71.dll
 0002:000000b8       __imp____CppXcptFilter     100030b8     MSVCRT:MSVCR71.dll
 0002:000000bc       __imp____dllonexit         100030bc     MSVCRT:MSVCR71.dll
 0002:000000c0       __imp___onexit             100030c0     MSVCRT:MSVCR71.dll
 0002:000000c4       __imp_??2@YAPAXI@Z         100030c4     MSVCRT:MSVCR71.dll
 0002:000000c8       __imp_??3@YAXPAX@Z         100030c8     MSVCRT:MSVCR71.dll
 0002:000000cc       __imp__malloc              100030cc     MSVCRT:MSVCR71.dll
 0002:000000d0       __imp__strcmp              100030d0     MSVCRT:MSVCR71.dll
 0002:000000d4       \177MSVCR71_NULL_THUNK_DATA 100030d4     MSVCRT:MSVCR71.dll
 0002:000000fc       ??_C@_03CNCGNBGO@MD2?$AA@  100030fc     security.obj
 0002:00000100       ??_C@_03GCGHEHKJ@MD5?$AA@  10003100     security.obj
 0002:00000104       ??_C@_07MEOJAOJE@SHA?9512?$AA@ 10003104     security.obj
 0002:0000010c       ??_C@_07LIAJMNEB@SHA?9384?$AA@ 1000310c     security.obj
 0002:00000114       ??_C@_07DKFLFLPF@SHA?9256?$AA@ 10003114     security.obj
 0002:0000011c       ??_C@_05HJMENKNE@SHA?91?$AA@ 1000311c     security.obj
 0002:00000124       ??_C@_04KPMLCNGO@SHA1?$AA@ 10003124     security.obj
 0002:0000012c       ??_C@_03JAOICCJD@SHA?$AA@  1000312c     security.obj
 0002:00000130       ??_C@_0CA@ODKEJAIA@java?1security?1ProviderException?$AA@ 10003130     security.obj
 0002:0000015c       ??_C@_0M@MNGGKKAH@2?45?429?437?40?$AA@ 1000315c     security.obj
 0002:00000168       ??_C@_0CC@DONOELIB@generateRSAKeyAndCertificateChai@ 10003168     security.obj
 0002:00000190       ??_C@_0EF@BMAGCOLM@?$CILjava?1lang?1String?$DLJJILjava?1util@ 10003190     security.obj
 0002:000001d8       ??_C@_0BJ@POMOMMIJ@generateCertificateChain?$AA@ 100031d8     security.obj
 0002:000001f8       ??_C@_0EC@DLKNHHOL@?$CILjava?1lang?1String?$DLLjava?1util?1Co@ 100031f8     security.obj
 0002:0000023c       ??_C@_0BE@HGBDNPAN@generateCertificate?$AA@ 1000323c     security.obj
 0002:00000250       ??_C@_0BM@MIKFLICJ@?$CI?$FLBLjava?1util?1Collection?$DL?$CJV?$AA@ 10003250     security.obj
 0002:0000026c       ??_C@_06FALKBLGB@?$DMinit?$DO?$AA@ 1000326c     security.obj
 0002:00000274       ??_C@_03GAEACAIP@?$CI?$CJV?$AA@ 10003274     security.obj
 0002:00000278       ??_C@_0BE@GPOIDJOH@java?1util?1ArrayList?$AA@ 10003278     security.obj
 0002:0000028c       ??_C@_0CA@MACLKLAA@java?1security?1KeyStoreException?$AA@ 1000328c     security.obj
 0002:000002bc       ??_C@_0CB@OJNKLEOL@java?1security?1SignatureException@ 100032bc     security.obj
 0002:000002fc       ??_C@_06BPCAKOJC@?$CIJJI?$CJV?$AA@ 100032fc     security.obj
 0002:00000304       ??_C@_0BP@PGBDHMNP@sun?1security?1mscapi?1RSAKeyPair?$AA@ 10003304     security.obj
 0002:00000324       ??_C@_0BL@LLOKBKPE@java?1security?1KeyException?$AA@ 10003324     security.obj
 0002:0000034c       ??_C@_09MGFHLAFE@?$DMUnknown?$DO?$AA@ 1000334c     security.obj
 0002:00000358       ??_C@_03FKNCMABI@?$CFlu?$AA@ 10003358     security.obj
 0002:0000035c       ??_C@_08IGAGGAPJ@Exchange?$AA@ 1000335c     security.obj
 0002:00000368       ??_C@_09GDNFOKKF@Signature?$AA@ 10003368     security.obj
 0002:00000374       ??_C@_0CP@KCIKFHJG@java?1security?1cert?1CertificatePa@ 10003374     security.obj
 0002:000003e4       ??_C@_04JCEIFDIJ@J2SE?$AA@ 100033e4     security.obj
 0002:0000045c       ??_C@_0CC@MLOBLLPO@sun?1security?1mscapi?1RSAPrivateKe@ 1000345c     security.obj
 0002:0000048c       ??_C@_0CB@PJKOCOHC@sun?1security?1mscapi?1RSAPublicKey@ 1000348c     security.obj
 0002:000004f0       __load_config_used         100034f0     MSVCRT:loadcfg.obj
 0002:000005b0       ___safe_se_handler_table   100035b0     <linker-defined>
 0002:000005b4       ___rtc_iaa                 100035b4     MSVCRT:initsect.obj
 0002:000005b8       ___rtc_izz                 100035b8     MSVCRT:initsect.obj
 0002:000005bc       ___rtc_taa                 100035bc     MSVCRT:initsect.obj
 0002:000005c0       ___rtc_tzz                 100035c0     MSVCRT:initsect.obj
 0002:000005c4       __IMPORT_DESCRIPTOR_CRYPT32 100035c4     Crypt32:CRYPT32.dll
 0002:000005d8       __IMPORT_DESCRIPTOR_ADVAPI32 100035d8     advapi32:ADVAPI32.dll
 0002:000005ec       __IMPORT_DESCRIPTOR_MSVCR71 100035ec     MSVCRT:MSVCR71.dll
 0002:00000600       __IMPORT_DESCRIPTOR_KERNEL32 10003600     kernel32:KERNEL32.dll
 0002:00000614       __NULL_IMPORT_DESCRIPTOR   10003614     Crypt32:CRYPT32.dll
 0003:00000000       ___xc_a                    10005000     MSVCRT:cinitexe.obj
 0003:00000004       ___xc_z                    10005004     MSVCRT:cinitexe.obj
 0003:00000008       ___xi_a                    10005008     MSVCRT:cinitexe.obj
 0003:0000000c       ___xi_z                    1000500c     MSVCRT:cinitexe.obj
 0003:00000010       ___security_cookie         10005010     MSVCRT:seccook.obj
 0003:00000018       __adjust_fdiv              10005018     <common>
 0003:0000001c       ___onexitend               1000501c     <common>
 0003:00000020       ___onexitbegin             10005020     <common>
 0003:00000024       __pRawDllMain              10005024     <common>

 entry point at        0001:00001cae

 Static symbols

