 jvm

 Timestamp is 4ecc561c (Tue Nov 22 21:10:36 2011)

 Preferred load address is 08000000

 Start         Length     Name                   Class
 0001:00000000 00208822H .text                   CODE
 0001:00208830 00000f7cH .text$yc                CODE
 0001:002097b0 000002e8H .text$yd                CODE
 0002:00000000 00000300H .idata$5                DATA
 0002:00000300 0004a1f0H .rdata                  DATA
 0002:0004a4f0 0000006cH .rdata$debug            DATA
 0002:0004a55c 000000a4H .rdata$r                DATA
 0002:0004a600 00000004H .rdata$sxdata           DATA
 0002:0004a604 00000004H .rtc$IAA                DATA
 0002:0004a608 00000004H .rtc$IZZ                DATA
 0002:0004a60c 00000004H .rtc$TAA                DATA
 0002:0004a610 00000004H .rtc$TZZ                DATA
 0002:0004a614 00000054H .xdata$x                DATA
 0002:0004a668 00000064H .idata$2                DATA
 0002:0004a6cc 00000014H .idata$3                DATA
 0002:0004a6e0 00000300H .idata$4                DATA
 0002:0004a9e0 00000b72H .idata$6                DATA
 0002:0004b560 0000adfbH .edata                  DATA
 0003:00000000 00000004H .CRT$XCA                DATA
 0003:00000004 00000084H .CRT$XCU                DATA
 0003:00000088 00000004H .CRT$XCZ                DATA
 0003:0000008c 00000004H .CRT$XIA                DATA
 0003:00000090 00000004H .CRT$XIZ                DATA
 0003:000000a0 0000d8ecH .data                   DATA
 0003:0000d990 00014250H .bss                    DATA
 0004:00000000 00000058H .rsrc$01                DATA
 0004:00000060 000002c0H .rsrc$02                DATA

  Address         Publics by Value              Rva+Base     Lib:Object

 0000:00000000       __except_list              00000000     <absolute>
 0000:00000001       ___safe_se_handler_count   00000001     <absolute>
 0000:00009876       __ldused                   00009876     <absolute>
 0000:00009876       __fltused                  00009876     <absolute>
 0001:00000000       ?generate_stack_overflow_check@AbstractAssembler@@QAEXH@Z 08001000 f   assembler.obj
 0001:00000050       ?update_all@DelayedConstant@@SAXXZ 08001050 f   assembler.obj
 0001:00000080       ?update_delayed_values@AbstractAssembler@@SAXXZ 08001080 f   assembler.obj
 0001:00000090       ?needs_explicit_null_check@MacroAssembler@@SA_NH@Z 08001090 f   assembler.obj
 0001:000000c0       ?cmpxchg_ptr@Atomic@@SAPAXPAXPCX0@Z 080010c0 f i assembler.obj
 0001:000000f0       ?emit_byte@AbstractAssembler@@IAEXH@Z 080010f0 f i assembler.obj
 0001:00000150       ?emit_long@AbstractAssembler@@IAEXH@Z 08001150 f i assembler.obj
 0001:000001b0       ?start_a_stub@AbstractAssembler@@QAEPAEH@Z 080011b0 f   assembler.obj
 0001:00000250       ?start_a_const@AbstractAssembler@@QAEPAEHH@Z 08001250 f   assembler.obj
 0001:00000330       ?end_a_stub@AbstractAssembler@@QAEXXZ 08001330 f   assembler.obj
 0001:00000330       ?end_a_const@AbstractAssembler@@QAEXXZ 08001330 f   assembler.obj
 0001:00000390       ?flush@AbstractAssembler@@QAEXXZ 08001390 f   assembler.obj
 0001:000003e0       ?a_byte@AbstractAssembler@@QAEXH@Z 080013e0 f   assembler.obj
 0001:000003f0       ?a_long@AbstractAssembler@@QAEXH@Z 080013f0 f   assembler.obj
 0001:00000400       ?patch_instructions@Label@@QAEXPAVMacroAssembler@@@Z 08001400 f   assembler.obj
 0001:000004e0       ?add@DelayedConstant@@SAPAU1@W4BasicType@@P6AXXZ@Z 080014e0 f   assembler.obj
 0001:00000570       ?delayed_value_addr@AbstractAssembler@@SAPAHP6AHXZ@Z 08001570 f   assembler.obj
 0001:00000590       ??0?$FormatBuffer@$0BAA@@@QAA@PBDZZ 08001590 f i assembler.obj
 0001:000005c0       ??0AbstractAssembler@@QAE@PAVCodeBuffer@@@Z 080015c0 f   assembler.obj
 0001:00000640       ?bind@AbstractAssembler@@QAEXAAVLabel@@@Z 08001640 f   assembler.obj
 0001:000006b0       ?add_patch_at@Label@@QAEXPAVCodeBuffer@@H@Z 080016b0 f   assembler.obj
 0001:00000710       ?initialize_oop_recorder@CodeBuffer@@QAEXPAVOopRecorder@@@Z 08001710 f   codeBuffer.obj
 0001:00000720       ?initialize_shared_locs@CodeSection@@QAEXPAVrelocInfo@@H@Z 08001720 f   codeBuffer.obj
 0001:00000760       ?Amalloc@Arena@@QAEPAXI@Z  08001760 f i codeBuffer.obj
 0001:000007b0       ??2ResourceObj@@SAPAXIPAVArena@@@Z 080017b0 f i codeBuffer.obj
 0001:00000800       ?next@RelocIterator@@QAE_NXZ 08001800 f i codeBuffer.obj
 0001:00000870       ??0CodeBuffer@@QAE@PAEH@Z  08001870 f i codeBuffer.obj
 0001:00000950       ??0CodeBuffer@@QAE@PAVCodeBlob@@@Z 08001950 f   codeBuffer.obj
 0001:00000a30       ?section_index_of@CodeBuffer@@QBEHPAE@Z 08001a30 f   codeBuffer.obj
 0001:00000a60       ?locator_address@CodeBuffer@@QBEPAEH@Z 08001a60 f   codeBuffer.obj
 0001:00000a90       ?target@CodeSection@@QAEPAEAAVLabel@@PAE@Z 08001a90 f   codeBuffer.obj
 0001:00000af0       ?initialize_locs@CodeSection@@AAEXH@Z 08001af0 f   codeBuffer.obj
 0001:00000b40       ?initialize_section_size@CodeBuffer@@AAEXPAVCodeSection@@H@Z 08001b40 f   codeBuffer.obj
 0001:00000bb0       ?free_blob@CodeBuffer@@QAEXXZ 08001bb0 f   codeBuffer.obj
 0001:00000be0       ?create_patch_overflow@CodeBuffer@@QAEPAV?$GrowableArray@H@@XZ 08001be0 f   codeBuffer.obj
 0001:00000c80       ?expand_locs@CodeSection@@AAEXH@Z 08001c80 f   codeBuffer.obj
 0001:00000d20       ?total_content_size@CodeBuffer@@QBEHXZ 08001d20 f   codeBuffer.obj
 0001:00000d60       ?compute_final_layout@CodeBuffer@@ABEXPAV1@@Z 08001d60 f   codeBuffer.obj
 0001:00000e50       ?total_offset_of@CodeBuffer@@QBEHPAVCodeSection@@@Z 08001e50 f   codeBuffer.obj
 0001:00000eb0       ?copy_relocations_to@CodeBuffer@@ABEHPAVCodeBlob@@@Z 08001eb0 f   codeBuffer.obj
 0001:00001040       ?relocate_code_to@CodeBuffer@@ABEXPAV1@@Z 08002040 f   codeBuffer.obj
 0001:00001200       ?figure_expanded_capacities@CodeBuffer@@AAEHPAVCodeSection@@HPAH@Z 08002200 f   codeBuffer.obj
 0001:00001330       ?take_over_code_from@CodeBuffer@@AAEXPAV1@@Z 08002330 f   codeBuffer.obj
 0001:000013e0       ?initialize@CodeBuffer@@QAEXHH@Z 080023e0 f   codeBuffer.obj
 0001:00001480       ??1CodeBuffer@@QAE@XZ      08002480 f   codeBuffer.obj
 0001:000014e0       ?relocate@CodeSection@@QAEXPAEABVRelocationHolder@@H@Z 080024e0 f   codeBuffer.obj
 0001:000015c0       ?total_relocation_size@CodeBuffer@@QBEHXZ 080025c0 f   codeBuffer.obj
 0001:00001620       ?copy_code_to@CodeBuffer@@AAEXPAVCodeBlob@@@Z 08002620 f   codeBuffer.obj
 0001:00001680       ??0CodeBuffer@@QAE@PBDHH@Z 08002680 f i codeBuffer.obj
 0001:00001730       ?expand@CodeBuffer@@AAEXPAVCodeSection@@H@Z 08002730 f   codeBuffer.obj
 0001:000018e0       ?print_impl@ciArray@@MAEXPAVoutputStream@@@Z 080028e0 f   ciArray.obj
 0001:00001920       ??0ciArrayKlass@@IAE@PAVciSymbol@@HPAVciKlass@@@Z 08002920 f   ciArrayKlass.obj
 0001:00001950       ?is_classless@ciType@@UBE_NXZ 08002950 f i ciArrayKlass.obj
 0001:00001970       ?type_string@ciArrayKlass@@MAEPBDXZ 08002970 f i ciArrayKlass.obj
 0001:00001980       ??0ciArrayKlass@@IAE@VKlassHandle@@@Z 08002980 f   ciArrayKlass.obj
 0001:000019b0       ?element_type@ciArrayKlass@@QAEPAVciType@@XZ 080029b0 f   ciArrayKlass.obj
 0001:000019e0       ?base_element_type@ciArrayKlass@@QAEPAVciType@@XZ 080029e0 f   ciArrayKlass.obj
 0001:00001a10       ?is_leaf_type@ciArrayKlass@@UAE_NXZ 08002a10 f   ciArrayKlass.obj
 0001:00001a30       ?write_memory_serialize_page@os@@SAXPAVJavaThread@@@Z 08002a30 f i ciCallSite.obj
 0001:00001a50       ?fence@OrderAccess@@SAXXZ  08002a50 f i ciCallSite.obj
 0001:00001a60       ??1HandleMarkCleaner@@QAE@XZ 08002a60 f i ciCallSite.obj
 0001:00001a90       ?serialize_memory@InterfaceSupport@@SAXPAVJavaThread@@@Z 08002a90 f i ciCallSite.obj
 0001:00001af0       ?transition_and_fence@ThreadStateTransition@@SAXPAVJavaThread@@W4JavaThreadState@@1@Z 08002af0 f i ciCallSite.obj
 0001:00001b50       ?transition_from_native@ThreadStateTransition@@SAXPAVJavaThread@@W4JavaThreadState@@@Z 08002b50 f i ciCallSite.obj
 0001:00001bc0       ??0ThreadInVMfromNative@@QAE@PAVJavaThread@@@Z 08002bc0 f i ciCallSite.obj
 0001:00001be0       ??1ThreadInVMfromNative@@QAE@XZ 08002be0 f i ciCallSite.obj
 0001:00001bf0       ?get_object@ciEnv@@AAEPAVciObject@@PAVoopDesc@@@Z 08002bf0 f i ciCallSite.obj
 0001:00001c10       ?current@ciEnv@@SAPAV1@XZ  08002c10 f i ciCallSite.obj
 0001:00001c30       ?find@ciConstantPoolCache@@AAEHH@Z 08002c30 f   ciConstantPoolCache.obj
 0001:00001c70       ??0ciConstantPoolCache@@QAE@PAVArena@@H@Z 08002c70 f   ciConstantPoolCache.obj
 0001:00001d30       ?get@ciConstantPoolCache@@QAEPAXH@Z 08002d30 f   ciConstantPoolCache.obj
 0001:00001d70       ?insert@ciConstantPoolCache@@QAEXHPAX@Z 08002d70 f   ciConstantPoolCache.obj
 0001:00001ed0       ?get_f1_offset@ciCPCache@@QAEIH@Z 08002ed0 f   ciCPCache.obj
 0001:00001ef0       ?is_f1_null_at@ciCPCache@@QAE_NH@Z 08002ef0 f   ciCPCache.obj
 0001:00001f70       ?cache_dtrace_flags@ciEnv@@QAEXXZ 08002f70 f   ciEnv.obj
 0001:00001fb0       ?is_loaded@ciObject@@QBE_NXZ 08002fb0 f i ciEnv.obj
 0001:00001fd0       ?double_at@constantPoolOopDesc@@QAENH@Z 08002fd0 f i ciEnv.obj
 0001:00001ff0       ?method_handle_name_ref_at@constantPoolOopDesc@@QAEPAVsymbolOopDesc@@H@Z 08002ff0 f i ciEnv.obj
 0001:00002010       ?method_handle_signature_ref_at@constantPoolOopDesc@@QAEPAVsymbolOopDesc@@H@Z 08003010 f i ciEnv.obj
 0001:00002030       ?method_handle_klass_index_at@constantPoolOopDesc@@QAEHH@Z 08003030 f i ciEnv.obj
 0001:00002050       ?klass_ref_index_at@constantPoolOopDesc@@QAEHH@Z 08003050 f i ciEnv.obj
 0001:00002070       ??0MutexLocker@@QAE@PAVMonitor@@@Z 08003070 f i ciEnv.obj
 0001:00002090       ??0MutexLocker@@QAE@PAVMonitor@@PAVThread@@@Z 08003090 f i ciEnv.obj
 0001:000020b0       ??0Handle@@QAE@PAVThread@@PAVoopDesc@@@Z 080030b0 f i ciEnv.obj
 0001:00002120       ?get_unloaded_klass@ciEnv@@AAEPAVciKlass@@PAV2@PAVciSymbol@@@Z 08003120 f i ciEnv.obj
 0001:00002140       ?check_klass_accessibility@ciEnv@@AAE_NPAVciKlass@@PAVklassOopDesc@@@Z 08003140 f   ciEnv.obj
 0001:000021b0       ?get_field_by_index_impl@ciEnv@@AAEPAVciField@@PAVciInstanceKlass@@H@Z 080031b0 f   ciEnv.obj
 0001:00002250       ?name_buffer@ciEnv@@AAEPADH@Z 08003250 f   ciEnv.obj
 0001:000022a0       ?comp_level@ciEnv@@QAEHXZ  080032a0 f   ciEnv.obj
 0001:000022c0       ?notice_inlined_method@ciEnv@@QAEXPAVciMethod@@@Z 080032c0 f   ciEnv.obj
 0001:000022d0       ?record_failure@ciEnv@@QAEXPBD@Z 080032d0 f   ciEnv.obj
 0001:00002300       ?record_method_not_compilable@ciEnv@@QAEXPBD_N@Z 08003300 f   ciEnv.obj
 0001:00002370       ?record_out_of_memory_failure@ciEnv@@QAEXXZ 08003370 f   ciEnv.obj
 0001:000023d0       ?is_resolved@ConstantPoolCacheEntry@@QBE_NW4Code@Bytecodes@@@Z 080033d0 f i ciEnv.obj
 0001:00002450       ?main_entry_at@constantPoolCacheOopDesc@@QBEPAVConstantPoolCacheEntry@@H@Z 08003450 f i ciEnv.obj
 0001:00002480       ?string_at@constantPoolOopDesc@@QAEPAVoopDesc@@HPAVThread@@@Z 08003480 f i ciEnv.obj
 0001:000024b0       ??0ResourceMark@@QAE@XZ    080034b0 f i ciEnv.obj
 0001:000024f0       ??1ResourceMark@@QAE@XZ    080034f0 f i ciEnv.obj
 0001:000024f0       ?reset_to_mark@ResourceMark@@QAEXXZ 080034f0 f i ciEnv.obj
 0001:00002520       ?write_ref_field@BarrierSet@@QAEXPAXPAVoopDesc@@@Z 08003520 f i ciEnv.obj
 0001:00002540       ??0Handle@@QAE@PAVoopDesc@@@Z 08003540 f i ciEnv.obj
 0001:000025c0       ?new_symbol_handle@oopFactory@@SA?AVsymbolHandle@@PBDHPAVThread@@@Z 080035c0 f i ciEnv.obj
 0001:000025f0       ??0ciEnv@@QAE@PAVCompileTask@@H@Z 080035f0 f   ciEnv.obj
 0001:00002740       ??0ciEnv@@QAE@PAVArena@@@Z 08003740 f   ciEnv.obj
 0001:00002840       ??1ciEnv@@QAE@XZ           08003840 f   ciEnv.obj
 0001:00002870       ?cache_jvmti_state@ciEnv@@QAEXXZ 08003870 f   ciEnv.obj
 0001:00002900       ?get_method_from_handle@ciEnv@@AAEPAVciMethod@@PAV_jobject@@@Z 08003900 f   ciEnv.obj
 0001:00002990       ?get_klass_by_name_impl@ciEnv@@AAEPAVciKlass@@PAV2@PAVciSymbol@@_N@Z 08003990 f   ciEnv.obj
 0001:00002ca0       ?lookup_method@ciEnv@@AAEPAVmethodOopDesc@@PAVinstanceKlass@@0PAVsymbolOopDesc@@1W4Code@Bytecodes@@@Z 08003ca0 f   ciEnv.obj
 0001:00002e10       ?get_fake_invokedynamic_method_impl@ciEnv@@AAEPAVciMethod@@VconstantPoolHandle@@HW4Code@Bytecodes@@@Z 08003e10 f   ciEnv.obj
 0001:00002f10       ?get_instance_klass_for_declared_method_holder@ciEnv@@SAPAVciInstanceKlass@@PAVciKlass@@@Z 08003f10 f   ciEnv.obj
 0001:00002f60       ?is_in_vm@ciEnv@@CA_NXZ    08003f60 f   ciEnv.obj
 0001:00002f80       ?check_for_system_dictionary_modification@ciEnv@@AAEXPAVciMethod@@@Z 08003f80 f   ciEnv.obj
 0001:00003010       ?register_method@ciEnv@@QAEXPAVciMethod@@HPAVCodeOffsets@@HPAVCodeBuffer@@HPAVOopMapSet@@PAVExceptionHandlerTable@@PAVImplicitExceptionTable@@PAVAbstractCompiler@@H_N7@Z 08004010 f   ciEnv.obj
 0001:000033b0       ?header_size@arrayOopDesc@@SAHW4BasicType@@@Z 080043b0 f i ciEnv.obj
 0001:000033d0       ?get_klass_by_name@ciEnv@@AAEPAVciKlass@@PAV2@PAVciSymbol@@_N@Z 080043d0 f   ciEnv.obj
 0001:00003480       ?get_field_by_index@ciEnv@@AAEPAVciField@@PAVciInstanceKlass@@H@Z 08004480 f   ciEnv.obj
 0001:00003520       ?base_offset_in_bytes@arrayOopDesc@@SAHW4BasicType@@@Z 08004520 f i ciEnv.obj
 0001:00003550       ?base@objArrayOopDesc@@QBEPAVHeapWord@@XZ 08004550 f i ciEnv.obj
 0001:00003560       ?resolved_klass_at@constantPoolOopDesc@@QAEPAVklassOopDesc@@H@Z 08004560 f i ciEnv.obj
 0001:000035a0       ??$oop_store@PAVoopDesc@@@@YAXPAPAVoopDesc@@PAV0@@Z 080045a0 f i ciEnv.obj
 0001:000035f0       ?get_klass_by_index_impl@ciEnv@@AAEPAVciKlass@@VconstantPoolHandle@@HAA_NPAVciInstanceKlass@@@Z 080045f0 f   ciEnv.obj
 0001:000037d0       ?get_klass_by_index@ciEnv@@AAEPAVciKlass@@VconstantPoolHandle@@HAA_NPAVciInstanceKlass@@@Z 080047d0 f   ciEnv.obj
 0001:00003880       ?get_constant_by_index_impl@ciEnv@@AAE?AVciConstant@@VconstantPoolHandle@@HHPAVciInstanceKlass@@@Z 08004880 f   ciEnv.obj
 0001:00003b00       ?get_constant_by_index@ciEnv@@AAE?AVciConstant@@VconstantPoolHandle@@HHPAVciInstanceKlass@@@Z 08004b00 f   ciEnv.obj
 0001:00003bc0       ?get_method_by_index_impl@ciEnv@@AAEPAVciMethod@@VconstantPoolHandle@@HW4Code@Bytecodes@@PAVciInstanceKlass@@@Z 08004bc0 f   ciEnv.obj
 0001:00003ca0       ?get_method_by_index@ciEnv@@AAEPAVciMethod@@VconstantPoolHandle@@HW4Code@Bytecodes@@PAVciInstanceKlass@@@Z 08004ca0 f   ciEnv.obj
 0001:00003dc0       ?obj_at@objArrayOopDesc@@QBEPAVoopDesc@@H@Z 08004dc0 f i ciEnv.obj
 0001:00003dd0       ?obj_at_put@objArrayOopDesc@@QAEXHPAVoopDesc@@@Z 08004dd0 f i ciEnv.obj
 0001:00003df0       ?catch_klass@ciExceptionHandler@@QAEPAVciInstanceKlass@@XZ 08004df0 f   ciExceptionHandler.obj
 0001:00003f50       ?field_type@fieldDescriptor@@QBE?AW4BasicType@@XZ 08004f50 f i ciField.obj
 0001:00003f70       ?is_initialized@ciInstanceKlass@@QAE_NXZ 08004f70 f i ciField.obj
 0001:00004000       ?obj_field@oopDesc@@QBEPAV1@H@Z 08005000 f i ciField.obj
 0001:00004010       ?is_shared@ciField@@QAE_NXZ 08005010 f i ciField.obj
 0001:00004030       ?compute_type_impl@ciField@@AAEPAVciType@@XZ 08005030 f   ciField.obj
 0001:000040b0       ?will_link@ciField@@QAE_NPAVciInstanceKlass@@W4Code@Bytecodes@@@Z 080050b0 f   ciField.obj
 0001:00004220       ?compute_type@ciField@@AAEPAVciType@@XZ 08005220 f   ciField.obj
 0001:000042a0       ?initialize_from@ciField@@AAEXPAVfieldDescriptor@@@Z 080052a0 f   ciField.obj
 0001:00004600       ??0ciField@@AAE@PAVciInstanceKlass@@H@Z 08005600 f   ciField.obj
 0001:000047e0       ??0ciField@@AAE@PAVfieldDescriptor@@@Z 080057e0 f   ciField.obj
 0001:000048c0       ?print_klass_flags@ciFlags@@QAEXPAVoutputStream@@@Z 080058c0 f   ciFlags.obj
 0001:00004950       ?print_member_flags@ciFlags@@QAEXPAVoutputStream@@@Z 08005950 f   ciFlags.obj
 0001:00004a60       ?print_impl@ciInstance@@MAEXPAVoutputStream@@@Z 08005a60 f   ciInstance.obj
 0001:00004a90       ?loader_handle@ciInstanceKlass@@MAEPAV_jobject@@XZ 08005a90 f   ciInstanceKlass.obj
 0001:00004aa0       ?protection_domain_handle@ciInstanceKlass@@MAEPAV_jobject@@XZ 08005aa0 f   ciInstanceKlass.obj
 0001:00004ab0       ?java_mirror@ciInstanceKlass@@UAEPAVciInstance@@XZ 08005ab0 f   ciInstanceKlass.obj
 0001:00004ad0       ??0ciInstanceKlass@@IAE@PAVciSymbol@@PAV_jobject@@1@Z 08005ad0 f   ciInstanceKlass.obj
 0001:00004b30       ?type_string@ciInstanceKlass@@MAEPBDXZ 08005b30 f i ciInstanceKlass.obj
 0001:00004b40       ?is_interface@ciInstanceKlass@@UAE_NXZ 08005b40 f i ciInstanceKlass.obj
 0001:00004b50       ?is_abstract@ciInstanceKlass@@UAE_NXZ 08005b50 f i ciInstanceKlass.obj
 0001:00004b60       ?loader@ciInstanceKlass@@MAEPAVoopDesc@@XZ 08005b60 f   ciInstanceKlass.obj
 0001:00004b70       ?protection_domain@ciInstanceKlass@@MAEPAVoopDesc@@XZ 08005b70 f   ciInstanceKlass.obj
 0001:00004b80       ?is_in_package_impl@ciInstanceKlass@@IAE_NPBDH@Z 08005b80 f   ciInstanceKlass.obj
 0001:00004c10       ?is_leaf_type@ciInstanceKlass@@UAE_NXZ 08005c10 f   ciInstanceKlass.obj
 0001:00004c40       ?compute_shared_init_state@ciInstanceKlass@@IAEXXZ 08005c40 f   ciInstanceKlass.obj
 0001:00004cc0       ?compute_shared_has_subklass@ciInstanceKlass@@IAE_NXZ 08005cc0 f   ciInstanceKlass.obj
 0001:00004d60       ?compute_shared_nof_implementors@ciInstanceKlass@@IAEHXZ 08005d60 f   ciInstanceKlass.obj
 0001:00004df0       ?field_cache@ciInstanceKlass@@IAEPAVciConstantPoolCache@@XZ 08005df0 f   ciInstanceKlass.obj
 0001:00004e50       ?is_java_lang_Object@ciInstanceKlass@@UAE_NXZ 08005e50 f   ciInstanceKlass.obj
 0001:00004e70       ?is_in_package@ciInstanceKlass@@QAE_NPBDH@Z 08005e70 f   ciInstanceKlass.obj
 0001:00004f10       ?super@ciInstanceKlass@@QAEPAV1@XZ 08005f10 f   ciInstanceKlass.obj
 0001:00004ff0       ?has_finalizable_subclass@ciInstanceKlass@@QAE_NXZ 08005ff0 f   ciInstanceKlass.obj
 0001:00005080       ?implementor@ciInstanceKlass@@QAEPAV1@H@Z 08006080 f   ciInstanceKlass.obj
 0001:00005140       ?appendAll@?$GrowableArray@PAVciField@@@@QAEXPBV1@@Z 08006140 f i ciInstanceKlass.obj
 0001:00005140       ?appendAll@?$GrowableArray@PAVciObject@@@@QAEXPBV1@@Z 08006140 f i ciObjectFactory.obj
 0001:00005140       ?appendAll@?$GrowableArray@PAVPerfData@@@@QAEXPBV1@@Z 08006140 f i perfData.obj
 0001:000051b0       ?has_subklass@ciInstanceKlass@@QAE_NXZ 080061b0 f i ciInstanceKlass.obj
 0001:000051e0       ??0ciInstanceKlass@@IAE@VKlassHandle@@@Z 080061e0 f   ciInstanceKlass.obj
 0001:00005320       ?print_impl@ciInstanceKlass@@MAEXPAVoutputStream@@@Z 08006320 f   ciInstanceKlass.obj
 0001:000054e0       ?do_field@NonStaticFieldFiller@@UAEXPAVfieldDescriptor@@@Z 080064e0 f i ciInstanceKlass.obj
 0001:00005560       ?compute_nonstatic_fields_impl@ciInstanceKlass@@IAEPAV?$GrowableArray@PAVciField@@@@PAV2@@Z 08006560 f   ciInstanceKlass.obj
 0001:000056f0       ?compute_nonstatic_fields@ciInstanceKlass@@IAEHXZ 080066f0 f   ciInstanceKlass.obj
 0001:00005830       ?make@ciInstanceKlassKlass@@SAPAV1@XZ 08006830 f   ciInstanceKlassKlass.obj
 0001:00005850       ??0ciKlass@@IAE@VKlassHandle@@PAVciSymbol@@@Z 08006850 f   ciKlass.obj
 0001:00005880       ??0ciKlass@@IAE@PAVciSymbol@@PAV0@@Z 08006880 f   ciKlass.obj
 0001:000058b0       ?print_impl@ciKlass@@MAEXPAVoutputStream@@@Z 080068b0 f   ciKlass.obj
 0001:000058e0       ?is_subtype_of@Klass@@QBE_NPAVklassOopDesc@@@Z 080068e0 f i ciKlass.obj
 0001:00005910       ?type_string@ciKlass@@MAEPBDXZ 08006910 f i ciKlass.obj
 0001:00005920       ?print_name_on@ciKlass@@UAEXPAVoutputStream@@@Z 08006920 f   ciKlass.obj
 0001:00005930       ??0ciKlass@@QAE@VKlassHandle@@@Z 08006930 f   ciKlass.obj
 0001:000059a0       ?is_subtype_of@ciKlass@@QAE_NPAV1@@Z 080069a0 f   ciKlass.obj
 0001:00005a40       ?is_subclass_of@ciKlass@@QAE_NPAV1@@Z 08006a40 f   ciKlass.obj
 0001:00005ac0       ?super_check_offset@ciKlass@@QAEIXZ 08006ac0 f   ciKlass.obj
 0001:00005b30       ?java_mirror@ciKlass@@UAEPAVciInstance@@XZ 08006b30 f   ciKlass.obj
 0001:00005c90       ?modifier_flags@ciKlass@@QAEHXZ 08006c90 f   ciKlass.obj
 0001:00005d20       ?is_equal@Instruction@@UBE_NPAV1@@Z 08006d20 f i c1_Canonicalizer.obj
 0001:00005d20       ?equals@ScopeValue@@UBE_NPAV1@@Z 08006d20 f i debugInfo.obj
 0001:00005d20       ?possible_gc_point@ResolveOopMapConflicts@@EAE_NPAVBytecodeStream@@@Z 08006d20 f i rewriter.obj
 0001:00005d20       ?interpreted_match@ProfilerNode@@UBE_NPAVmethodOopDesc@@@Z 08006d20 f i fprofiler.obj
 0001:00005d20       ?equals@ConstantDoubleValue@@UBE_NPAVScopeValue@@@Z 08006d20 f i debugInfo.obj
 0001:00005d20       ?oop_partially_loaded@Klass@@UBE_NPAVoopDesc@@@Z 08006d20 f i universe.obj
 0001:00005d20       ?read_ref_needs_barrier@ModRefBarrierSet@@UAE_NPAX@Z 08006d20 f i cardTableModRefBS.obj
 0001:00005d20       ?possible_gc_point@OopMapForCacheEntry@@EAE_NPAVBytecodeStream@@@Z 08006d20 f i oopMapCache.obj
 0001:00005d20       ?unknown_compiled_match@ProfilerNode@@UBE_NPBVCodeBlob@@@Z 08006d20 f i fprofiler.obj
 0001:00005d20       ?caller_must_gc_arguments@CodeBlob@@UBE_NPAVJavaThread@@@Z 08006d20 f i codeBlob.obj
 0001:00005d20       ?equals@ConstantIntValue@@UBE_NPAVScopeValue@@@Z 08006d20 f i debugInfo.obj
 0001:00005d20       ?equals@ConstantLongValue@@UBE_NPAVScopeValue@@@Z 08006d20 f i debugInfo.obj
 0001:00005d20       ?possible_gc_point@GeneratePairingInfo@@EAE_NPAVBytecodeStream@@@Z 08006d20 f i ciMethod.obj
 0001:00005d20       ?equals@ConstantOopWriteValue@@UBE_NPAVScopeValue@@@Z 08006d20 f i c1_LinearScan.obj
 0001:00005d20       ?compiled_match@ProfilerNode@@UBE_NPAVmethodOopDesc@@@Z 08006d20 f i fprofiler.obj
 0001:00005d20       ?equals@ConstantOopReadValue@@UBE_NPAVScopeValue@@@Z 08006d20 f i debugInfo.obj
 0001:00005d30       ?fill_stackmap_for_opcodes@ResolveOopMapConflicts@@EAEXPAVBytecodeStream@@PAVCellTypeState@@1H@Z 08006d30 f i rewriter.obj
 0001:00005d30       ?fill_stackmap_for_opcodes@GeneratePairingInfo@@EAEXPAVBytecodeStream@@PAVCellTypeState@@1H@Z 08006d30 f i ciMethod.obj
 0001:00005d30       ?interval_moved@IntervalWalker@@MAEXPAVInterval@@W4IntervalKind@@W4IntervalState@@2@Z 08006d30 f i c1_LinearScan.obj
 0001:00005d30       ?write_prim_field@ModRefBarrierSet@@UAEXPAVHeapWord@@III@Z 08006d30 f i cardTableModRefBS.obj
 0001:00005d40       ??0HandleMark@@QAE@PAVThread@@@Z 08006d40 f i ciMethod.obj
 0001:00005d60       ?has_loops@methodOopDesc@@QAE_NXZ 08006d60 f i ciMethod.obj
 0001:00005d80       ?is_not_osr_compilable@methodOopDesc@@QBE_NH@Z 08006d80 f i ciMethod.obj
 0001:00005db0       ??0ResourceMark@@QAE@PAVThread@@@Z 08006db0 f i ciMethod.obj
 0001:00005de0       ?will_link@ciMethod@@QAE_NPAVciKlass@@0W4Code@Bytecodes@@@Z 08006de0 f   ciMethod.obj
 0001:00005e00       ?print_impl@ciMethod@@EAEXPAVoutputStream@@@Z 08006e00 f   ciMethod.obj
 0001:00005ea0       ??0ciMethod@@AAE@PAVciInstanceKlass@@PAVciSymbol@@1@Z 08006ea0 f   ciMethod.obj
 0001:00005f50       ?type_string@ciMethod@@EAEPBDXZ 08006f50 f i ciMethod.obj
 0001:00005f60       ?has_balanced_monitors@ciMethod@@QAE_NXZ 08006f60 f   ciMethod.obj
 0001:00006110       ?raw_liveness_at_bci@ciMethod@@QAE?AVMethodLivenessResult@@H@Z 08007110 f   ciMethod.obj
 0001:00006170       ?liveness_at_bci@ciMethod@@QAE?AVMethodLivenessResult@@H@Z 08007170 f   ciMethod.obj
 0001:000061d0       ?bci_block_start@ciMethod@@QAE?BVBitMap@@XZ 080071d0 f   ciMethod.obj
 0001:00006230       ?resolve_invoke@ciMethod@@QAEPAV1@PAVciKlass@@0@Z 08007230 f   ciMethod.obj
 0001:00006410       ?is_method_handle_invoke@ciMethod@@QBE_NXZ 08007410 f   ciMethod.obj
 0001:000064d0       ?ensure_method_data@ciMethod@@AAE_NVmethodHandle@@@Z 080074d0 f   ciMethod.obj
 0001:000065b0       ?method_data@ciMethod@@QAEPAVciMethodData@@XZ 080075b0 f   ciMethod.obj
 0001:000066c0       ?method_data_or_null@ciMethod@@QAEPAVciMethodData@@XZ 080076c0 f   ciMethod.obj
 0001:000066d0       ?should_exclude@ciMethod@@QAE_NXZ 080076d0 f   ciMethod.obj
 0001:00006760       ?break_at_execute@ciMethod@@QAE_NXZ 08007760 f   ciMethod.obj
 0001:000067e0       ?can_be_compiled@ciMethod@@QAE_NXZ 080077e0 f   ciMethod.obj
 0001:00006810       ?log_nmethod_identity@ciMethod@@QAEXPAVxmlStream@@@Z 08007810 f   ciMethod.obj
 0001:000068b0       ?has_loops@ciMethod@@QBE_NXZ 080078b0 f   ciMethod.obj
 0001:00006930       ?has_jsrs@ciMethod@@QBE_NXZ 08007930 f   ciMethod.obj
 0001:000069b0       ?is_accessor@ciMethod@@QBE_NXZ 080079b0 f   ciMethod.obj
 0001:00006a20       ?get_method_blocks@ciMethod@@QAEPAVciMethodBlocks@@XZ 08007a20 f   ciMethod.obj
 0001:00006a70       ??0ciMethod@@AAE@VmethodHandle@@@Z 08007a70 f   ciMethod.obj
 0001:00006db0       ?live_local_oops_at_bci@ciMethod@@QAE?AVBitMap@@H@Z 08007db0 f   ciMethod.obj
 0001:00006f10       ?find_monomorphic_target@ciMethod@@QAEPAV1@PAVciInstanceKlass@@00@Z 08007f10 f   ciMethod.obj
 0001:00007060       ?ensure_method_data@ciMethod@@QAE_NXZ 08008060 f   ciMethod.obj
 0001:00007110       ?load_code@ciMethod@@AAEXXZ 08008110 f   ciMethod.obj
 0001:000073d0       ?reset_to_method@ciBytecodeStream@@QAEXPAVciMethod@@@Z 080083d0 f i ciMethodBlocks.obj
 0001:00007440       ?next@ciBytecodeStream@@QAE?AW4Code@Bytecodes@@XZ 08008440 f i ciMethodBlocks.obj
 0001:00007490       ?next@ciExceptionHandlerStream@@QAEXXZ 08008490 f i ciMethodBlocks.obj
 0001:00007550       ??0Bytecode_tableswitch@@QAE@PBVciBytecodeStream@@@Z 08008550 f i ciMethodBlocks.obj
 0001:00007550       ??0Bytecode_lookupswitch@@QAE@PBVciBytecodeStream@@@Z 08008550 f i ciMethodBlocks.obj
 0001:00007590       ?length@Bytecode_tableswitch@@QAEHXZ 08008590 f i ciMethodBlocks.obj
 0001:000075d0       ?get_dest@ciBytecodeStream@@QBEHXZ 080085d0 f i ciMethodBlocks.obj
 0001:00007610       ?get_far_dest@ciBytecodeStream@@QBEHXZ 08008610 f i ciMethodBlocks.obj
 0001:00007650       ?split_block_at@ciMethodBlocks@@QAEPAVciBlock@@H@Z 08008650 f   ciMethodBlocks.obj
 0001:00007750       ?make_block_at@ciMethodBlocks@@QAEPAVciBlock@@H@Z 08008750 f   ciMethodBlocks.obj
 0001:000077e0       ?do_analysis@ciMethodBlocks@@AAEXXZ 080087e0 f   ciMethodBlocks.obj
 0001:00007b60       ??0ciMethodBlocks@@QAE@PAVArena@@PAVciMethod@@@Z 08008b60 f   ciMethodBlocks.obj
 0001:00007e10       ?cell_count@ProfileData@@UAEHXZ 08008e10 f i ciMethodData.obj
 0001:00007e30       ?print_data_on@ProfileData@@UAEXPAVoutputStream@@@Z 08008e30 f i ciMethodData.obj
 0001:00007e50       ?type@VM_ThreadDump@@UBE?AW4VMOp_Type@VM_Operation@@XZ 08008e50 f i vm_operations.obj
 0001:00007e50       ?kind@CopyMemoryManager@@UAE?AW4Name@MemoryManager@@XZ 08008e50 f i memoryManager.obj
 0001:00007e50       ?cell_count@JumpData@@UAEHXZ 08008e50 f i ciMethodData.obj
 0001:00007e50       ?type@virtual_call_Relocation@@EAE?AW4relocType@relocInfo@@XZ 08008e50 f i relocInfo.obj
 0001:00007e50       ?kind@CMSAdaptiveSizePolicy@@MBE?AW4GCPolicyKind@AdaptiveSizePolicy@@XZ 08008e50 f i cmsAdaptiveSizePolicy.obj
 0001:00007e50       ?kind@GenCollectedHeap@@UBE?AW4Name@CollectedHeap@@XZ 08008e50 f i genCollectedHeap.obj
 0001:00007e50       ?number_of_generations@TwoGenerationCollectorPolicy@@UAEHXZ 08008e50 f i collectorPolicy.obj
 0001:00007e50       ?kind@GCAdaptivePolicyCounters@@UBE?AW4Name@GCPolicyCounters@@XZ 08008e50 f i gcAdaptivePolicyCounters.obj
 0001:00007e50       ?kind@DefNewGeneration@@UAE?AW4Name@Generation@@XZ 08008e50 f i defNewGeneration.obj
 0001:00007e60       ?cell_count@VirtualCallData@@UAEHXZ 08008e60 f i ciMethodData.obj
 0001:00007e60       ?cell_count@ReceiverTypeData@@UAEHXZ 08008e60 f i ciMethodData.obj
 0001:00007e70       ?cell_count@RetData@@UAEHXZ 08008e70 f i ciMethodData.obj
 0001:00007e70       ?type@VM_Deoptimize@@UBE?AW4VMOp_Type@VM_Operation@@XZ 08008e70 f i universe.obj
 0001:00007e70       ?type@external_word_Relocation@@EAE?AW4relocType@relocInfo@@XZ 08008e70 f i relocInfo.obj
 0001:00007e70       ?legal_state@VM_CMS_Final_Remark@@UBE?BW4CollectorState@CMSCollector@@XZ 08008e70 f i concurrentMarkSweepGeneration.obj
 0001:00007e70       ?kind@PSMarkSweepMemoryManager@@UAE?AW4Name@MemoryManager@@XZ 08008e70 f i memoryManager.obj
 0001:00007e80       ?cell_count@ArrayData@@UAEHXZ 08008e80 f i ciMethodData.obj
 0001:00007e90       ?data_at@ciMethodData@@QAEPAVProfileData@@H@Z 08008e90 f   ciMethodData.obj
 0001:00008010       ?offset_of_slot@ciMethodData@@QAEHPAVProfileData@@H@Z 08009010 f   ciMethodData.obj
 0001:00008030       ??0ciMethodData@@AAE@VmethodDataHandle@@@Z 08009030 f   ciMethodData.obj
 0001:000080e0       ?type_string@ciMethodData@@EAEPBDXZ 080090e0 f i ciMethodData.obj
 0001:000080f0       ??0ciMethodData@@AAE@XZ    080090f0 f   ciMethodData.obj
 0001:00008190       ?load_data@ciMethodData@@QAEXXZ 08009190 f   ciMethodData.obj
 0001:00008340       ?translate_receiver_data_from@ciReceiverTypeData@@QAEXPAVProfileData@@@Z 08009340 f   ciMethodData.obj
 0001:000083b0       ?set_compilation_stats@ciMethodData@@QAEXFF@Z 080093b0 f   ciMethodData.obj
 0001:00008430       ?set_would_profile@ciMethodData@@QAEX_N@Z 08009430 f   ciMethodData.obj
 0001:000084a0       ?translate_from@ciReceiverTypeData@@UAEXPAVProfileData@@@Z 080094a0 f i ciMethodData.obj
 0001:000084a0       ?translate_from@ciVirtualCallData@@UAEXPAVProfileData@@@Z 080094a0 f i ciMethodData.obj
 0001:000084b0       ?bci_to_data@ciMethodData@@QAEPAVProfileData@@H@Z 080094b0 f   ciMethodData.obj
 0001:00008580       ?print_impl@ciMethodHandle@@MAEXPAVoutputStream@@@Z 08009580 f   ciMethodHandle.obj
 0001:000085b0       ?make@ciMethodKlass@@SAPAV1@XZ 080095b0 f   ciMethodKlass.obj
 0001:000085d0       ?print_impl@ciNullObject@@EAEXPAVoutputStream@@@Z 080095d0 f   ciNullObject.obj
 0001:000085f0       ?make@ciNullObject@@SAPAV1@XZ 080095f0 f   ciNullObject.obj
 0001:00008610       ??0ciObjArrayKlass@@IAE@PAVciSymbol@@PAVciKlass@@H@Z 08009610 f   ciObjArrayKlass.obj
 0001:00008650       ?type_string@ciObjArrayKlass@@MAEPBDXZ 08009650 f i ciObjArrayKlass.obj
 0001:00008660       ?loader@ciObjArrayKlass@@MAEPAVoopDesc@@XZ 08009660 f i ciObjArrayKlass.obj
 0001:00008670       ?loader_handle@ciObjArrayKlass@@MAEPAV_jobject@@XZ 08009670 f i ciObjArrayKlass.obj
 0001:00008680       ?protection_domain@ciObjArrayKlass@@MAEPAVoopDesc@@XZ 08009680 f i ciObjArrayKlass.obj
 0001:00008690       ?protection_domain_handle@ciObjArrayKlass@@MAEPAV_jobject@@XZ 08009690 f i ciObjArrayKlass.obj
 0001:000086a0       ??0ciObjArrayKlass@@IAE@VKlassHandle@@@Z 080096a0 f   ciObjArrayKlass.obj
 0001:00008710       ?construct_array_name@ciObjArrayKlass@@KAPAVciSymbol@@PAV2@H@Z 08009710 f   ciObjArrayKlass.obj
 0001:00008830       ?make_impl@ciObjArrayKlass@@KAPAV1@PAVciKlass@@@Z 08009830 f   ciObjArrayKlass.obj
 0001:000088f0       ?make@ciObjArrayKlass@@SAPAV1@PAVciKlass@@@Z 080098f0 f   ciObjArrayKlass.obj
 0001:00008980       ?element_klass@ciObjArrayKlass@@QAEPAVciKlass@@XZ 08009980 f   ciObjArrayKlass.obj
 0001:00008ab0       ?make@ciObjArrayKlassKlass@@SAPAV1@XZ 08009ab0 f   ciObjArrayKlassKlass.obj
 0001:00008ad0       ??0ciObject@@IAE@PAVciKlass@@@Z 08009ad0 f   ciObject.obj
 0001:00008af0       ??0ciObject@@IAE@XZ        08009af0 f   ciObject.obj
 0001:00008b10       ?set_ident@ciObject@@IAEXI@Z 08009b10 f   ciObject.obj
 0001:00008b30       ?ident@ciObject@@QAEIXZ    08009b30 f   ciObject.obj
 0001:00008b40       ?equals@ciObject@@QAE_NPAV1@@Z 08009b40 f   ciObject.obj
 0001:00008b60       ?hash@ciObject@@QAEHXZ     08009b60 f   ciObject.obj
 0001:00008b70       ?type_string@ciObject@@MAEPBDXZ 08009b70 f i ciObject.obj
 0001:00008b80       ?is_scavengable@oopDesc@@QBE_NXZ 08009b80 f i ciObject.obj
 0001:00008bc0       ?should_be_constant@ciObject@@QAE_NXZ 08009bc0 f   ciObject.obj
 0001:00008bf0       ?init_flags_from@ciObject@@IAEXPAVoopDesc@@@Z 08009bf0 f i ciObject.obj
 0001:00008c50       ??0ciObject@@IAE@VHandle@@@Z 08009c50 f   ciObject.obj
 0001:00008cd0       ?klass@ciObject@@QAEPAVciKlass@@XZ 08009cd0 f   ciObject.obj
 0001:00008dc0       ?print@ciObject@@QAEXPAVoutputStream@@@Z 08009dc0 f   ciObject.obj
 0001:00008ea0       ??0ciCPCache@@QAE@VconstantPoolCacheHandle@@@Z 08009ea0 f i ciObjectFactory.obj
 0001:00008ec0       ?vm_symbol_at@ciObjectFactory@@SAPAVciSymbol@@H@Z 08009ec0 f   ciObjectFactory.obj
 0001:00008ed0       ?type2name@@YAPBDW4BasicType@@@Z 08009ed0 f i ciObjectFactory.obj
 0001:00008ef0       ??0ciKlassKlass@@IAE@VKlassHandle@@@Z 08009ef0 f i ciObjectFactory.obj
 0001:00008f20       ?type_string@ciKlassKlass@@MAEPBDXZ 08009f20 f i ciObjectFactory.obj
 0001:00008f30       ??0ciInstanceKlassKlass@@AAE@VKlassHandle@@@Z 08009f30 f i ciObjectFactory.obj
 0001:00008f60       ?type_string@ciInstanceKlassKlass@@EAEPBDXZ 08009f60 f i ciObjectFactory.obj
 0001:00008f70       ?type_string@ciNullObject@@EAEPBDXZ 08009f70 f i ciObjectFactory.obj
 0001:00008f80       ??0ciInstance@@IAE@VinstanceHandle@@@Z 08009f80 f i ciObjectFactory.obj
 0001:00008fa0       ?type_string@ciInstance@@MAEPBDXZ 08009fa0 f i ciObjectFactory.obj
 0001:00008fb0       ?type_string@ciArrayKlassKlass@@MAEPBDXZ 08009fb0 f i ciObjectFactory.obj
 0001:00008fc0       ??0ciMethodKlass@@IAE@VKlassHandle@@@Z 08009fc0 f i ciObjectFactory.obj
 0001:00008ff0       ?type_string@ciMethodKlass@@MAEPBDXZ 08009ff0 f i ciObjectFactory.obj
 0001:00009000       ??0ciObjArrayKlassKlass@@AAE@VKlassHandle@@@Z 0800a000 f i ciObjectFactory.obj
 0001:00009030       ?type_string@ciObjArrayKlassKlass@@EAEPBDXZ 0800a030 f i ciObjectFactory.obj
 0001:00009040       ??0ciSymbolKlass@@IAE@VKlassHandle@@@Z 0800a040 f i ciObjectFactory.obj
 0001:00009070       ?type_string@ciSymbolKlass@@MAEPBDXZ 0800a070 f i ciObjectFactory.obj
 0001:00009080       ??0ciTypeArrayKlassKlass@@AAE@VKlassHandle@@@Z 0800a080 f i ciObjectFactory.obj
 0001:000090b0       ?type_string@ciTypeArrayKlassKlass@@EAEPBDXZ 0800a0b0 f i ciObjectFactory.obj
 0001:000090c0       ??0ciCallSite@@QAE@VinstanceHandle@@@Z 0800a0c0 f i ciObjectFactory.obj
 0001:000090e0       ??0ciMethodHandle@@QAE@VinstanceHandle@@@Z 0800a0e0 f i ciObjectFactory.obj
 0001:00009100       ?get_empty_methodData@ciObjectFactory@@QAEPAVciMethodData@@XZ 0800a100 f   ciObjectFactory.obj
 0001:00009170       ?find@ciObjectFactory@@AAEHPAVoopDesc@@PAV?$GrowableArray@PAVciObject@@@@@Z 0800a170 f   ciObjectFactory.obj
 0001:000091c0       ?insert_non_perm@ciObjectFactory@@AAEXAAPAUNonPermObject@1@PAVoopDesc@@PAVciObject@@@Z 0800a1c0 f   ciObjectFactory.obj
 0001:00009220       ??0instanceKlassHandle@@QAE@PAVThread@@PAVklassOopDesc@@@Z 0800a220 f i classFileParser.obj
 0001:00009220       ??0constantPoolHandle@@QAE@PAVThread@@PAVconstantPoolOopDesc@@@Z 0800a220 f i ciEnv.obj
 0001:00009220       ??0constantPoolCacheHandle@@QAE@PAVThread@@PAVconstantPoolCacheOopDesc@@@Z 0800a220 f i ciObjectFactory.obj
 0001:00009220       ??0objArrayHandle@@QAE@PAVThread@@PAVobjArrayOopDesc@@@Z 0800a220 f i ciObjectFactory.obj
 0001:00009220       ??0KlassHandle@@QAE@PAVThread@@PAVoopDesc@@@Z 0800a220 f i ciEnv.obj
 0001:00009220       ??0instanceHandle@@QAE@PAVThread@@PAVinstanceOopDesc@@@Z 0800a220 f i ciObjectFactory.obj
 0001:00009220       ??0symbolHandle@@QAE@PAVThread@@PAVsymbolOopDesc@@@Z 0800a220 f i ciEnv.obj
 0001:00009220       ??0objArrayKlassHandle@@QAE@PAVThread@@PAVklassOopDesc@@@Z 0800a220 f i objArrayKlass.obj
 0001:00009220       ??0methodHandle@@QAE@PAVThread@@PAVmethodOopDesc@@@Z 0800a220 f i ciEnv.obj
 0001:00009220       ??0typeArrayHandle@@QAE@PAVThread@@PAVtypeArrayOopDesc@@@Z 0800a220 f i ciObjectFactory.obj
 0001:00009240       ?type_string@ciArray@@MAEPBDXZ 0800a240 f i ciObjectFactory.obj
 0001:00009250       ?is_instance@oopDesc@@QBE_NXZ 0800a250 f i ciObjectFactory.obj
 0001:00009260       ?is_objArray@oopDesc@@QBE_NXZ 0800a260 f i ciObjectFactory.obj
 0001:00009280       ?is_klass@oopDesc@@QBE_NXZ 0800a280 f i ciObjectFactory.obj
 0001:00009290       ?is_method@oopDesc@@QBE_NXZ 0800a290 f i ciObjectFactory.obj
 0001:000092a0       ?is_methodData@oopDesc@@QBE_NXZ 0800a2a0 f i ciObjectFactory.obj
 0001:000092b0       ?is_instance@java_dyn_MethodHandle@@SA_NPAVoopDesc@@@Z 0800a2b0 f i ciObjectFactory.obj
 0001:000092e0       ?is_instance@java_dyn_CallSite@@SA_NPAVoopDesc@@@Z 0800a2e0 f i ciObjectFactory.obj
 0001:00009310       ??0ciObjArray@@IAE@VobjArrayHandle@@@Z 0800a310 f i ciObjectFactory.obj
 0001:00009360       ?type_string@ciObjArray@@MAEPBDXZ 0800a360 f i ciObjectFactory.obj
 0001:00009370       ??0ciTypeArray@@IAE@VtypeArrayHandle@@@Z 0800a370 f i ciObjectFactory.obj
 0001:000093c0       ?type_string@ciTypeArray@@MAEPBDXZ 0800a3c0 f i ciObjectFactory.obj
 0001:000093d0       ?create_new_object@ciObjectFactory@@AAEPAVciObject@@PAVoopDesc@@@Z 0800a3d0 f   ciObjectFactory.obj
 0001:00009810       ?find_non_perm@ciObjectFactory@@AAEAAPAUNonPermObject@1@PAVoopDesc@@@Z 0800a810 f   ciObjectFactory.obj
 0001:000098a0       ??0ciObjectFactory@@QAE@PAVArena@@H@Z 0800a8a0 f   ciObjectFactory.obj
 0001:00009a70       ?get_unloaded_method@ciObjectFactory@@QAEPAVciMethod@@PAVciInstanceKlass@@PAVciSymbol@@1@Z 0800aa70 f   ciObjectFactory.obj
 0001:00009b60       ?get_unloaded_instance@ciObjectFactory@@AAEPAVciInstance@@PAVciInstanceKlass@@@Z 0800ab60 f   ciObjectFactory.obj
 0001:00009c30       ?get_unloaded_klass_mirror@ciObjectFactory@@QAEPAVciInstance@@PAVciKlass@@@Z 0800ac30 f   ciObjectFactory.obj
 0001:00009c40       ?get_unloaded_method_handle_constant@ciObjectFactory@@QAEPAVciInstance@@PAVciKlass@@PAVciSymbol@@1H@Z 0800ac40 f   ciObjectFactory.obj
 0001:00009c60       ?get_unloaded_method_type_constant@ciObjectFactory@@QAEPAVciInstance@@PAVciSymbol@@@Z 0800ac60 f   ciObjectFactory.obj
 0001:00009c80       ?insert@ciObjectFactory@@AAEXHPAVciObject@@PAV?$GrowableArray@PAVciObject@@@@@Z 0800ac80 f   ciObjectFactory.obj
 0001:00009d10       ?get@ciObjectFactory@@QAEPAVciObject@@PAVoopDesc@@@Z 0800ad10 f   ciObjectFactory.obj
 0001:00009e80       ?init_shared_objects@ciObjectFactory@@QAEXXZ 0800ae80 f   ciObjectFactory.obj
 0001:0000a850       ?get_unloaded_klass@ciObjectFactory@@QAEPAVciKlass@@PAV2@PAVciSymbol@@_N@Z 0800b850 f   ciObjectFactory.obj
 0001:0000aab0       ?initialize@ciObjectFactory@@SAXXZ 0800bab0 f   ciObjectFactory.obj
 0001:0000ab30       ?next@SignatureStream@@QAEXXZ 0800bb30 f i ciSignature.obj
 0001:0000ac40       ?return_type@ciSignature@@QBEPAVciType@@XZ 0800bc40 f   ciSignature.obj
 0001:0000ac50       ?type_at@ciSignature@@QBEPAVciType@@H@Z 0800bc50 f   ciSignature.obj
 0001:0000ac70       ??0ciSignature@@AAE@PAVciKlass@@PAVciSymbol@@@Z 0800bc70 f   ciSignature.obj
 0001:0000ae20       ?reset_to_bci@ciBytecodeStream@@QAEXH@Z 0800be20 f   ciStreams.obj
 0001:0000ae40       ?next_wide_or_table@ciBytecodeStream@@AAE?AW4Code@Bytecodes@@W423@@Z 0800be40 f   ciStreams.obj
 0001:0000af20       ?get_field@ciBytecodeStream@@QAEPAVciField@@AA_N@Z 0800bf20 f   ciStreams.obj
 0001:0000af80       ?get_method_index@ciBytecodeStream@@QAEHXZ 0800bf80 f   ciStreams.obj
 0001:0000afe0       ?get_cpcache@ciBytecodeStream@@QBEPAVciCPCache@@XZ 0800bfe0 f   ciStreams.obj
 0001:0000b090       ?get_index_u2@ciBytecodeStream@@QBEH_N@Z 0800c090 f i ciStreams.obj
 0001:0000b0e0       ?force_bci@ciBytecodeStream@@QAEXH@Z 0800c0e0 f   ciStreams.obj
 0001:0000b120       ?get_klass_index@ciBytecodeStream@@QBEHXZ 0800c120 f   ciStreams.obj
 0001:0000b280       ?get_klass@ciBytecodeStream@@QAEPAVciKlass@@AA_N@Z 0800c280 f   ciStreams.obj
 0001:0000b330       ?get_constant_raw_index@ciBytecodeStream@@QBEHXZ 0800c330 f   ciStreams.obj
 0001:0000b3d0       ?get_constant@ciBytecodeStream@@QAE?AVciConstant@@XZ 0800c3d0 f   ciStreams.obj
 0001:0000b4a0       ?get_method@ciBytecodeStream@@QAEPAVciMethod@@AA_N@Z 0800c4a0 f   ciStreams.obj
 0001:0000b570       ?get_declared_method_holder@ciBytecodeStream@@QAEPAVciKlass@@XZ 0800c570 f   ciStreams.obj
 0001:0000b6b0       ??0ciSymbol@@AAE@VsymbolHandle@@W4SID@vmSymbols@@@Z 0800c6b0 f   ciSymbol.obj
 0001:0000b6e0       ?type_string@ciSymbol@@EAEPBDXZ 0800c6e0 f i ciSymbol.obj
 0001:0000b6f0       ?base@ciSymbol@@AAEPACXZ   0800c6f0 f   ciSymbol.obj
 0001:0000b780       ?byte_at@ciSymbol@@QAEHH@Z 0800c780 f   ciSymbol.obj
 0001:0000b810       ?starts_with@ciSymbol@@QBE_NPBDH@Z 0800c810 f   ciSymbol.obj
 0001:0000b8a0       ?index_of_at@ciSymbol@@QBEHHPBDH@Z 0800c8a0 f   ciSymbol.obj
 0001:0000b930       ?utf8_length@ciSymbol@@QAEHXZ 0800c930 f   ciSymbol.obj
 0001:0000b9c0       ?print_symbol_on@ciSymbol@@QAEXPAVoutputStream@@@Z 0800c9c0 f   ciSymbol.obj
 0001:0000ba50       ?make_impl@ciSymbol@@CAPAV1@PBD@Z 0800ca50 f   ciSymbol.obj
 0001:0000bad0       ?make@ciSymbol@@SAPAV1@PBD@Z 0800cad0 f   ciSymbol.obj
 0001:0000bb60       ?print_impl@ciSymbol@@EAEXPAVoutputStream@@@Z 0800cb60 f   ciSymbol.obj
 0001:0000bb90       ??0ciType@@AAE@W4BasicType@@@Z 0800cb90 f   ciType.obj
 0001:0000bbb0       ??0ciType@@AAE@PAVciKlass@@@Z 0800cbb0 f   ciType.obj
 0001:0000bbf0       ?print_impl@ciType@@EAEXPAVoutputStream@@@Z 0800cbf0 f   ciType.obj
 0001:0000bc20       ?make@ciType@@SAPAV1@W4BasicType@@@Z 0800cc20 f   ciType.obj
 0001:0000bc40       ?print_impl@ciReturnAddress@@EAEXPAVoutputStream@@@Z 0800cc40 f   ciType.obj
 0001:0000bc60       ?type_string@ciType@@EAEPBDXZ 0800cc60 f i ciType.obj
 0001:0000bc70       ?type_string@ciReturnAddress@@EAEPBDXZ 0800cc70 f i ciType.obj
 0001:0000bc80       ??0ciType@@AAE@VKlassHandle@@@Z 0800cc80 f   ciType.obj
 0001:0000bcc0       ?is_subtype_of@ciType@@QAE_NPAV1@@Z 0800ccc0 f   ciType.obj
 0001:0000bd10       ?print_name_on@ciType@@UAEXPAVoutputStream@@@Z 0800cd10 f   ciType.obj
 0001:0000bd50       ?java_mirror@ciType@@UAEPAVciInstance@@XZ 0800cd50 f   ciType.obj
 0001:0000bde0       ??0ciTypeArrayKlass@@IAE@VKlassHandle@@@Z 0800cde0 f   ciTypeArrayKlass.obj
 0001:0000be00       ?type_string@ciTypeArrayKlass@@MAEPBDXZ 0800ce00 f i ciTypeArrayKlass.obj
 0001:0000be10       ?make@ciTypeArrayKlass@@SAPAV1@W4BasicType@@@Z 0800ce10 f   ciTypeArrayKlass.obj
 0001:0000bef0       ?classfile_parse_error@ClassFileParser@@AAEXPBDPAVThread@@@Z 0800cef0 f   classFileError.obj
 0001:0000bf60       ?classfile_parse_error@ClassFileParser@@AAEXPBDHPAVThread@@@Z 0800cf60 f   classFileError.obj
 0001:0000bfd0       ?classfile_parse_error@ClassFileParser@@AAEXPBD0PAVThread@@@Z 0800cfd0 f   classFileError.obj
 0001:0000c040       ?classfile_parse_error@ClassFileParser@@AAEXPBDH0PAVThread@@@Z 0800d040 f   classFileError.obj
 0001:0000c0c0       ?stackmap_format_error@StackMapStream@@SAXPBDPAVThread@@@Z 0800d0c0 f   classFileError.obj
 0001:0000c120       ?valid_cp_range@@YA_NHH@Z  0800d120 f i classFileParser.obj
 0001:0000c140       ?hash@@YAIPAVLocalVariableTableElement@@@Z 0800d140 f   classFileParser.obj
 0001:0000c180       ?clear_hashtable@@YAXPAPAVLVT_Hash@@@Z 0800d180 f   classFileParser.obj
 0001:0000c1d0       ?LVT_lookup@@YAPAVLVT_Hash@@PAVLocalVariableTableElement@@HPAPAV1@@Z 0800d1d0 f   classFileParser.obj
 0001:0000c220       ?LVT_put_after_lookup@@YA_NPAVLocalVariableTableElement@@PAPAVLVT_Hash@@@Z 0800d220 f   classFileParser.obj
 0001:0000c2a0       ?set_has_miranda_methods@Klass@@QAEXXZ 0800d2a0 f i classFileParser.obj
 0001:0000c2b0       ??8Handle@@QBE_NPAVoopDesc@@@Z 0800d2b0 f i classFileParser.obj
 0001:0000c2e0       ?has_illegal_visibility@ClassFileParser@@AAE_NH@Z 0800d2e0 f   classFileParser.obj
 0001:0000c320       ??CinstanceKlassHandle@@QBEPAVinstanceKlass@@XZ 0800d320 f i classFileParser.obj
 0001:0000c340       ?verify_unqualified_name@ClassFileParser@@AAE_NPADIH@Z 0800d340 f   classFileParser.obj
 0001:0000c3c0       ?field_type_should_be_aligned@Universe@@SA_NW4BasicType@@@Z 0800d3c0 f i classFileParser.obj
 0001:0000c3e0       ?guarantee_more@ClassFileStream@@QAEXHPAVThread@@@Z 0800d3e0 f i classFileParser.obj
 0001:0000c400       ?inc@PerfLongVariant@@QAEX_J@Z 0800d400 f i classFileParser.obj
 0001:0000c420       ?equals@symbolOopDesc@@QBE_NPBD@Z 0800d420 f i classFileParser.obj
 0001:0000c450       ?write_byte@CompressedWriteStream@@QAEXC@Z 0800d450 f i classFileParser.obj
 0001:0000c450       ?write@CompressedWriteStream@@AAEXE@Z 0800d450 f i classFileParser.obj
 0001:0000c480       ?is_within_bounds@constantPoolOopDesc@@QBE_NH@Z 0800d480 f i classFileParser.obj
 0001:0000c4a0       ?set_cached_class_file@instanceKlass@@QAEXPAEH@Z 0800d4a0 f i classFileParser.obj
 0001:0000c4c0       ?start_of_nonstatic_oop_maps@instanceKlass@@QBEPAVOopMapBlock@@XZ 0800d4c0 f i classFileParser.obj
 0001:0000c4f0       ??0CompressedLineNumberWriteStream@@QAE@H@Z 0800d4f0 f i classFileParser.obj
 0001:0000c510       ?write_pair_inline@CompressedLineNumberWriteStream@@QAEXHH@Z 0800d510 f i classFileParser.obj
 0001:0000c580       ?write_terminator@CompressedLineNumberWriteStream@@QAEXXZ 0800d580 f i classFileParser.obj
 0001:0000c5a0       ?long_field_put@oopDesc@@QAEXH_J@Z 0800d5a0 f i classFileParser.obj
 0001:0000c5c0       ?guarantee_property@ClassFileParser@@AAEX_NPBDPAVThread@@@Z 0800d5c0 f i classFileParser.obj
 0001:0000c5e0       ?guarantee_property@ClassFileParser@@AAEX_NPBDHPAVThread@@@Z 0800d5e0 f i classFileParser.obj
 0001:0000c600       ?guarantee_property@ClassFileParser@@AAEX_NPBDH1PAVThread@@@Z 0800d600 f i classFileParser.obj
 0001:0000c630       ?current@JDK_Version@@SA?AV1@XZ 0800d630 f i classFileParser.obj
 0001:0000c660       ?is_gte_jdk16x_version@JDK_Version@@SA_NXZ 0800d660 f i classFileParser.obj
 0001:0000c6b0       ?is_gte_jdk17x_version@JDK_Version@@SA_NXZ 0800d6b0 f i classFileParser.obj
 0001:0000c700       ?push_int@JavaCallArguments@@QAEXH@Z 0800d700 f i classFileParser.obj
 0001:0000c730       ?add_class_method_size@ClassLoadingService@@SAXH@Z 0800d730 f i classFileParser.obj
 0001:0000c760       ?put_after_lookup@@YA_NPAVsymbolOopDesc@@0PAPAVNameSigHash@@@Z 0800d760 f   classFileParser.obj
 0001:0000c7e0       ?compute_oop_map_count@ClassFileParser@@AAEIVinstanceKlassHandle@@IH@Z 0800d7e0 f   classFileParser.obj
 0001:0000c860       ?fill_oop_maps@ClassFileParser@@AAEXVinstanceKlassHandle@@IPAHPAI@Z 0800d860 f   classFileParser.obj
 0001:0000c960       ?set_precomputed_flags@ClassFileParser@@AAEXVinstanceKlassHandle@@@Z 0800d960 f   classFileParser.obj
 0001:0000cae0       ?is_supported_version@ClassFileParser@@AAE_NGG@Z 0800dae0 f   classFileParser.obj
 0001:0000cb30       ?verify_legal_utf8@ClassFileParser@@AAEXPBEHPAVThread@@@Z 0800db30 f   classFileParser.obj
 0001:0000cd60       ?get_u2_fast@ClassFileStream@@QAEGXZ 0800dd60 f i classFileParser.obj
 0001:0000cd80       ?get_u8_fast@ClassFileStream@@QAE_KXZ 0800dd80 f i classFileParser.obj
 0001:0000cdb0       ?set_code@methodOopDesc@@QAEXPAE@Z 0800ddb0 f i classFileParser.obj
 0001:0000cde0       ?size_given_klass@oopDesc@@QAEHPAVKlass@@@Z 0800dde0 f i classFileParser.obj
 0001:0000ce40       ?size@oopDesc@@QAEHXZ      0800de40 f i classFileParser.obj
 0001:0000ce50       ?check_property@ClassFileParser@@AAEX_NPBDHPAVThread@@@Z 0800de50 f i classFileParser.obj
 0001:0000ce80       ?has_cp_patch_at@ClassFileParser@@AAE_NH@Z 0800de80 f i classFileParser.obj
 0001:0000ceb0       ??0PerfClassTraceTime@@QAE@PAVPerfLongCounter@@00PAHPAVelapsedTimer@@H@Z 0800deb0 f i classFileParser.obj
 0001:0000cf00       ?is_instance@java_lang_String@@SA_NPAVoopDesc@@@Z 0800df00 f i classFileParser.obj
 0001:0000cf20       ?is_instance@java_lang_Class@@SA_NPAVoopDesc@@@Z 0800df20 f i classFileParser.obj
 0001:0000cf40       ?parse_linenumber_table@ClassFileParser@@AAEXIIPAPAVCompressedLineNumberWriteStream@@PAVThread@@@Z 0800df40 f   classFileParser.obj
 0001:0000d0b0       ?copy_lvt_element@@YAXPAVClassfile_LVT_Element@@PAVLocalVariableTableElement@@@Z 0800e0b0 f   classFileParser.obj
 0001:0000d120       ?check_super_class_access@ClassFileParser@@SAXVinstanceKlassHandle@@PAVThread@@@Z 0800e120 f   classFileParser.obj
 0001:0000d1e0       ?verify_legal_class_modifiers@ClassFileParser@@AAEXHPAVThread@@@Z 0800e1e0 f   classFileParser.obj
 0001:0000d2e0       ?verify_legal_field_modifiers@ClassFileParser@@AAEXH_NPAVThread@@@Z 0800e2e0 f   classFileParser.obj
 0001:0000d3f0       ?verify_legal_method_modifiers@ClassFileParser@@AAEXH_NVsymbolHandle@@PAVThread@@@Z 0800e3f0 f   classFileParser.obj
 0001:0000d5d0       ??0methodHandle@@QAE@PAVmethodOopDesc@@@Z 0800e5d0 f i ciMethod.obj
 0001:0000d5d0       ??0symbolHandle@@QAE@PAVsymbolOopDesc@@@Z 0800e5d0 f i classFileParser.obj
 0001:0000d5f0       ?skip_over_field_name@ClassFileParser@@AAEPADPAD_NI@Z 0800e5f0 f   classFileParser.obj
 0001:0000d7b0       ?skip_over_field_signature@ClassFileParser@@AAEPADPAD_NIPAVThread@@@Z 0800e7b0 f   classFileParser.obj
 0001:0000d8e0       ??$oop_store_without_check@PAVoopDesc@@@@YAXPCRAVoopDesc@@PAV0@@Z 0800e8e0 f i classFileParser.obj
 0001:0000d940       ?throwIllegalSignature@ClassFileParser@@AAEXPBDVsymbolHandle@@1PAVThread@@@Z 0800e940 f   classFileParser.obj
 0001:0000d9f0       ?verify_legal_class_name@ClassFileParser@@AAEXVsymbolHandle@@PAVThread@@@Z 0800e9f0 f   classFileParser.obj
 0001:0000daf0       ?verify_legal_field_name@ClassFileParser@@AAEXVsymbolHandle@@PAVThread@@@Z 0800eaf0 f   classFileParser.obj
 0001:0000dbe0       ?verify_legal_method_name@ClassFileParser@@AAEXVsymbolHandle@@PAVThread@@@Z 0800ebe0 f   classFileParser.obj
 0001:0000dcf0       ?verify_legal_field_signature@ClassFileParser@@AAEXVsymbolHandle@@0PAVThread@@@Z 0800ecf0 f   classFileParser.obj
 0001:0000dd70       ?verify_legal_method_signature@ClassFileParser@@AAEHVsymbolHandle@@0PAVThread@@@Z 0800ed70 f   classFileParser.obj
 0001:0000dea0       ?klass_at_put@constantPoolOopDesc@@QAEXHPAVklassOopDesc@@@Z 0800eea0 f i classFileParser.obj
 0001:0000def0       ?method_handle_index_at_put@constantPoolOopDesc@@QAEXHHH@Z 0800eef0 f i classFileParser.obj
 0001:0000df20       ?invoke_dynamic_at_put@constantPoolOopDesc@@QAEXHHH@Z 0800ef20 f i classFileParser.obj
 0001:0000df50       ?invoke_dynamic_trans_at_put@constantPoolOopDesc@@QAEXHHH@Z 0800ef50 f i classFileParser.obj
 0001:0000df80       ?long_at_put@constantPoolOopDesc@@QAEXH_J@Z 0800ef80 f i classFileParser.obj
 0001:0000dfa0       ?double_at_put@constantPoolOopDesc@@QAEXHN@Z 0800efa0 f i classFileParser.obj
 0001:0000dfc0       ?string_at_put@constantPoolOopDesc@@QAEXHPAVoopDesc@@@Z 0800efc0 f i classFileParser.obj
 0001:0000e030       ?field_at_put@constantPoolOopDesc@@QAEXHHH@Z 0800f030 f i classFileParser.obj
 0001:0000e060       ?method_at_put@constantPoolOopDesc@@QAEXHHH@Z 0800f060 f i classFileParser.obj
 0001:0000e090       ?interface_method_at_put@constantPoolOopDesc@@QAEXHHH@Z 0800f090 f i classFileParser.obj
 0001:0000e0c0       ?name_and_type_at_put@constantPoolOopDesc@@QAEXHHH@Z 0800f0c0 f i classFileParser.obj
 0001:0000e0f0       ?pseudo_string_at_put@constantPoolOopDesc@@QAEXHPAVoopDesc@@@Z 0800f0f0 f i classFileParser.obj
 0001:0000e120       ?is_klass_reference@ClassFileParser@@AAE_NVconstantPoolHandle@@H@Z 0800f120 f i classFileParser.obj
 0001:0000e180       ?verify_constantvalue@ClassFileParser@@AAEXHHVconstantPoolHandle@@PAVThread@@@Z 0800f180 f   classFileParser.obj
 0001:0000e2d0       ?parse_exception_table@ClassFileParser@@AAE?AVtypeArrayHandle@@IIVconstantPoolHandle@@PAVThread@@@Z 0800f2d0 f   classFileParser.obj
 0001:0000e4d0       ?parse_localvariable_table@ClassFileParser@@AAEPAGIGIVconstantPoolHandle@@PAG_NPAVThread@@@Z 0800f4d0 f   classFileParser.obj
 0001:0000e7e0       ?parse_stackmap_table@ClassFileParser@@AAEPAVtypeArrayOopDesc@@IPAVThread@@@Z 0800f7e0 f   classFileParser.obj
 0001:0000e860       ?parse_checked_exceptions@ClassFileParser@@AAEPAGPAGIVconstantPoolHandle@@PAVThread@@@Z 0800f860 f   classFileParser.obj
 0001:0000e9c0       ?assemble_annotations@ClassFileParser@@AAE?AVtypeArrayHandle@@PAEH0HPAVThread@@@Z 0800f9c0 f   classFileParser.obj
 0001:0000ea60       ?java_lang_ref_Reference_fix_pre@ClassFileParser@@AAEXPAVtypeArrayHandle@@VconstantPoolHandle@@PAUFieldAllocationCount@@PAVThread@@@Z 0800fa60 f   classFileParser.obj
 0001:0000ebd0       ?java_dyn_MethodHandle_fix_pre@ClassFileParser@@AAEXVconstantPoolHandle@@VtypeArrayHandle@@PAUFieldAllocationCount@@PAVThread@@@Z 0800fbd0 f   classFileParser.obj
 0001:0000ed00       ?invoke_dynamic_bootstrap_method_ref_index_at@constantPoolOopDesc@@QAEHH@Z 0800fd00 f i classFileParser.obj
 0001:0000ed50       ?set_class_loader@instanceKlass@@QAEXPAVoopDesc@@@Z 0800fd50 f i classFileParser.obj
 0001:0000edb0       ?set_protection_domain@instanceKlass@@QAEXPAVoopDesc@@@Z 0800fdb0 f i classFileParser.obj
 0001:0000ee10       ?obj_field_put@oopDesc@@QAEXHPAV1@@Z 0800fe10 f i classFileParser.obj
 0001:0000ee30       ?parse_interfaces@ClassFileParser@@AAE?AVobjArrayHandle@@VconstantPoolHandle@@HVHandle@@1VsymbolHandle@@PAVThread@@@Z 0800fe30 f   classFileParser.obj
 0001:0000f140       ?parse_field_attributes@ClassFileParser@@AAEXVconstantPoolHandle@@G_NGPAGPA_N2PAVtypeArrayHandle@@PAVThread@@@Z 08010140 f   classFileParser.obj
 0001:0000f3e0       ?parse_fields@ClassFileParser@@AAE?AVtypeArrayHandle@@VconstantPoolHandle@@_NPAUFieldAllocationCount@@PAVobjArrayHandle@@PAVThread@@@Z 080103e0 f   classFileParser.obj
 0001:0000f9a0       ?sort_methods@ClassFileParser@@AAE?AVtypeArrayHandle@@VobjArrayHandle@@000PAVThread@@@Z 080109a0 f   classFileParser.obj
 0001:0000fc90       ?set_name@Klass@@QAEXPAVsymbolOopDesc@@@Z 08010c90 f i classFileParser.obj
 0001:0000fcc0       ?append_interfaces@@YAXVobjArrayHandle@@AAHPAVobjArrayOopDesc@@@Z 08010cc0 f   classFileParser.obj
 0001:0000fdc0       ?compute_transitive_interfaces@ClassFileParser@@AAE?AVobjArrayHandle@@VinstanceKlassHandle@@V2@PAVThread@@@Z 08010dc0 f   classFileParser.obj
 0001:00010000       ?check_super_interface_access@ClassFileParser@@SAXVinstanceKlassHandle@@PAVThread@@@Z 08011000 f   classFileParser.obj
 0001:00010100       ?check_final_method_override@ClassFileParser@@SAXVinstanceKlassHandle@@PAVThread@@@Z 08011100 f   classFileParser.obj
 0001:000102c0       ?check_illegal_static_method@ClassFileParser@@SAXVinstanceKlassHandle@@PAVThread@@@Z 080112c0 f   classFileParser.obj
 0001:000103c0       ?set_stackmap_data@constMethodOopDesc@@QAEXPAVtypeArrayOopDesc@@@Z 080113c0 f i classFileParser.obj
 0001:000103f0       ?set_operands@constantPoolOopDesc@@AAEXPAVtypeArrayOopDesc@@@Z 080113f0 f i classFileParser.obj
 0001:00010420       ?unresolved_klass_at_put@constantPoolOopDesc@@QAEXHPAVsymbolOopDesc@@@Z 08011420 f i classFileParser.obj
 0001:00010460       ?unresolved_string_at_put@constantPoolOopDesc@@QAEXHPAVsymbolOopDesc@@@Z 08011460 f i classFileParser.obj
 0001:000104a0       ?symbol_at_put@constantPoolOopDesc@@QAEXHPAVsymbolOopDesc@@@Z 080114a0 f i classFileParser.obj
 0001:000104e0       ?set_methods@instanceKlass@@QAEXPAVobjArrayOopDesc@@@Z 080114e0 f i classFileParser.obj
 0001:000104e0       ?set_higher_dimension@arrayKlass@@QAEXPAVklassOopDesc@@@Z 080114e0 f i arrayKlass.obj
 0001:00010510       ?set_lower_dimension@arrayKlass@@QAEXPAVklassOopDesc@@@Z 08011510 f i arrayKlass.obj
 0001:00010510       ?set_method_ordering@instanceKlass@@QAEXPAVtypeArrayOopDesc@@@Z 08011510 f i classFileParser.obj
 0001:00010540       ?set_local_interfaces@instanceKlass@@QAEXPAVobjArrayOopDesc@@@Z 08011540 f i classFileParser.obj
 0001:00010570       ?set_transitive_interfaces@instanceKlass@@QAEXPAVobjArrayOopDesc@@@Z 08011570 f i classFileParser.obj
 0001:000105a0       ?set_fields@instanceKlass@@QAEXPAVtypeArrayOopDesc@@@Z 080115a0 f i classFileParser.obj
 0001:000105d0       ?set_class_annotations@instanceKlass@@QAEXPAVtypeArrayOopDesc@@@Z 080115d0 f i classFileParser.obj
 0001:00010600       ?set_constants@methodOopDesc@@QAEXPAVconstantPoolOopDesc@@@Z 08011600 f i classFileParser.obj
 0001:00010630       ?set_exception_table@methodOopDesc@@QAEXPAVtypeArrayOopDesc@@@Z 08011630 f i classFileParser.obj
 0001:00010660       ?parse_constant_pool_entries@ClassFileParser@@AAEXVconstantPoolHandle@@HPAVThread@@@Z 08011660 f   classFileParser.obj
 0001:00010f00       ?patch_constant_pool@ClassFileParser@@AAEXVconstantPoolHandle@@HVHandle@@PAVThread@@@Z 08011f00 f   classFileParser.obj
 0001:000111f0       ?parse_method@ClassFileParser@@AAE?AVmethodHandle@@VconstantPoolHandle@@_NPAVAccessFlags@@PAVtypeArrayHandle@@33PAVThread@@@Z 080121f0 f   classFileParser.obj
 0001:00012400       ?parse_methods@ClassFileParser@@AAE?AVobjArrayHandle@@VconstantPoolHandle@@_NPAVAccessFlags@@PA_NPAPAVobjArrayOopDesc@@44PAVThread@@@Z 08013400 f   classFileParser.obj
 0001:000127b0       ?parse_classfile_sourcefile_attribute@ClassFileParser@@AAEXVconstantPoolHandle@@VinstanceKlassHandle@@PAVThread@@@Z 080137b0 f   classFileParser.obj
 0001:00012880       ?parse_classfile_source_debug_extension_attribute@ClassFileParser@@AAEXVconstantPoolHandle@@VinstanceKlassHandle@@HPAVThread@@@Z 08013880 f   classFileParser.obj
 0001:00012900       ?parse_classfile_inner_classes_attribute@ClassFileParser@@AAEGVconstantPoolHandle@@VinstanceKlassHandle@@PAVThread@@@Z 08013900 f   classFileParser.obj
 0001:00012cf0       ?parse_classfile_signature_attribute@ClassFileParser@@AAEXVconstantPoolHandle@@VinstanceKlassHandle@@PAVThread@@@Z 08013cf0 f   classFileParser.obj
 0001:00012d90       ?parse_classfile_bootstrap_methods_attribute@ClassFileParser@@AAEXVconstantPoolHandle@@VinstanceKlassHandle@@IPAVThread@@@Z 08013d90 f   classFileParser.obj
 0001:000130b0       ?parse_classfile_attributes@ClassFileParser@@AAEXVconstantPoolHandle@@VinstanceKlassHandle@@PAVThread@@@Z 080140b0 f   classFileParser.obj
 0001:00013600       ?set_fields_annotations@instanceKlass@@QAEXPAVobjArrayOopDesc@@@Z 08014600 f i classFileParser.obj
 0001:00013630       ?set_methods_annotations@instanceKlass@@QAEXPAVobjArrayOopDesc@@@Z 08014630 f i classFileParser.obj
 0001:00013660       ?set_methods_parameter_annotations@instanceKlass@@QAEXPAVobjArrayOopDesc@@@Z 08014660 f i classFileParser.obj
 0001:00013690       ?set_methods_default_annotations@instanceKlass@@QAEXPAVobjArrayOopDesc@@@Z 08014690 f i classFileParser.obj
 0001:000136c0       ?parse_constant_pool@ClassFileParser@@AAE?AVconstantPoolHandle@@PAVThread@@@Z 080146c0 f   classFileParser.obj
 0001:00014250       ?parseClassFile@ClassFileParser@@QAE?AVinstanceKlassHandle@@VsymbolHandle@@VHandle@@1VKlassHandle@@PAV?$GrowableArray@VHandle@@@@AAV3@_NPAVThread@@@Z 08015250 f   classFileParser.obj
 0001:00015b70       ??0ClassFileStream@@QAE@PAEHPAD@Z 08016b70 f   classFileStream.obj
 0001:00015ba0       ?truncated_file_error@ClassFileStream@@AAEXPAVThread@@@Z 08016ba0 f   classFileStream.obj
 0001:00015bd0       ?get_u2@ClassFileStream@@QAEGPAVThread@@@Z 08016bd0 f   classFileStream.obj
 0001:00015c40       ?skip_u1@ClassFileStream@@QAEXHPAVThread@@@Z 08016c40 f   classFileStream.obj
 0001:00015c90       ?is_jar_file@LazyClassPathEntry@@UAE_NXZ 08016c90 f   classLoader.obj
 0001:00015cb0       ?new_entry@PackageHashtable@@QAEPAVPackageInfo@@PADH@Z 08016cb0 f i classLoader.obj
 0001:00015ce0       ?copy_package_info_buckets@ClassLoader@@SAXPAPADPAD@Z 08016ce0 f   classLoader.obj
 0001:00015d00       ?AllocateHeap@@YAPADIPBD@Z 08016d00 f i classLoader.obj
 0001:00015d40       ?create_counter@PerfDataManager@@SAPAVPerfLongCounter@@W4CounterNS@@PBDW4Units@PerfData@@PAVThread@@@Z 08016d40 f i classLoader.obj
 0001:00015d70       ?classpath_entry@ClassLoader@@SAPAVClassPathEntry@@H@Z 08016d70 f i classLoader.obj
 0001:00015d90       ??0ThreadToNativeFromVM@@QAE@PAVJavaThread@@@Z 08016d90 f i classLoader.obj
 0001:00015dd0       ??0BasicHashtable@@QAE@HH@Z 08016dd0 f i classLoader.obj
 0001:00015e50       ??0MetaIndex@@QAE@PAPADH@Z 08016e50 f   classLoader.obj
 0001:00015ec0       ?may_contain@MetaIndex@@QAE_NPBD@Z 08016ec0 f   classLoader.obj
 0001:00015f50       ??0ClassPathDirEntry@@QAE@PAD@Z 08016f50 f   classLoader.obj
 0001:00015fd0       ?open_stream@ClassPathDirEntry@@UAEPAVClassFileStream@@PBD@Z 08016fd0 f   classLoader.obj
 0001:000160c0       ??0ClassPathZipEntry@@QAE@PAPAXPBD@Z 080170c0 f   classLoader.obj
 0001:00016140       ??1ClassPathZipEntry@@QAE@XZ 08017140 f   classLoader.obj
 0001:00016170       ??0LazyClassPathEntry@@QAE@PADUstat@@@Z 08017170 f   classLoader.obj
 0001:000161c0       ?add_to_list@ClassLoader@@SAXPAVClassPathEntry@@@Z 080171c0 f   classLoader.obj
 0001:000161f0       ?load_zip_library@ClassLoader@@CAXXZ 080171f0 f   classLoader.obj
 0001:00016300       ?create_package_info_table@ClassLoader@@SAXPAVHashtableBucket@@HH@Z 08017300 f   classLoader.obj
 0001:00016350       ?create_package_info_table@ClassLoader@@SAXXZ 08017350 f   classLoader.obj
 0001:00016380       ?classloader_time_ms@ClassLoader@@SA_JXZ 08017380 f   classLoader.obj
 0001:000163b0       ?class_init_count@ClassLoader@@SA_JXZ 080173b0 f   classLoader.obj
 0001:000163d0       ?class_init_time_ms@ClassLoader@@SA_JXZ 080173d0 f   classLoader.obj
 0001:00016400       ?class_verify_time_ms@ClassLoader@@SA_JXZ 08017400 f   classLoader.obj
 0001:00016430       ?initialize@PerfClassTraceTime@@QAEXXZ 08017430 f   classLoader.obj
 0001:000164d0       ??1PerfClassTraceTime@@QAE@XZ 080174d0 f   classLoader.obj
 0001:000165a0       ?open_stream@ClassPathZipEntry@@UAEPAVClassFileStream@@PBD@Z 080175a0 f   classLoader.obj
 0001:000166f0       ?get_entry@PackageHashtable@@AAEPAVPackageInfo@@HIPBDI@Z 080176f0 f i classLoader.obj
 0001:00016750       ?get_entry@PackageHashtable@@QAEPAVPackageInfo@@PBDH@Z 08017750 f i classLoader.obj
 0001:00016790       ?copy_pkgnames@PackageHashtable@@QAEXPAPBD@Z 08017790 f i classLoader.obj
 0001:000167d0       ?copy_table@PackageHashtable@@QAEXPAPADPADPAV1@@Z 080177d0 f   classLoader.obj
 0001:00016900       ?copy_package_info_table@ClassLoader@@SAXPAPADPAD@Z 08017900 f   classLoader.obj
 0001:00016920       ?add_package@ClassLoader@@CA_NPBDHPAVThread@@@Z 08017920 f   classLoader.obj
 0001:00016a30       ?get_system_package@ClassLoader@@SAPAVoopDesc@@PBDPAVThread@@@Z 08017a30 f   classLoader.obj
 0001:00016ad0       ?load_classfile@ClassLoader@@SA?AVinstanceKlassHandle@@VsymbolHandle@@PAVThread@@@Z 08017ad0 f   classLoader.obj
 0001:00016cc0       ?get_canonical_path@ClassLoader@@CA_NPAD0H@Z 08017cc0 f   classLoader.obj
 0001:00016d30       ??1?$GrowableArray@PAD@@QAE@XZ 08017d30 f i classLoader.obj
 0001:00016d60       ?setup_meta_index@ClassLoader@@CAXXZ 08017d60 f   classLoader.obj
 0001:00017100       ?create_class_path_entry@ClassLoader@@CAXPADUstat@@PAPAVClassPathEntry@@_N@Z 08018100 f   classLoader.obj
 0001:00017380       ?create_class_path_zip_entry@ClassLoader@@SAPAVClassPathZipEntry@@PBD@Z 08018380 f   classLoader.obj
 0001:00017470       ?resolve_entry@LazyClassPathEntry@@AAEPAVClassPathEntry@@XZ 08018470 f   classLoader.obj
 0001:000174f0       ?open_stream@LazyClassPathEntry@@UAEPAVClassFileStream@@PBD@Z 080184f0 f   classLoader.obj
 0001:00017530       ?setup_bootstrap_search_path@ClassLoader@@CAXXZ 08018530 f   classLoader.obj
 0001:00017670       ?initialize@ClassLoader@@SAXXZ 08018670 f   classLoader.obj
 0001:00017b60       ?classLoader_init@@YAXXZ   08018b60 f   classLoader.obj
 0001:00017b70       ?get_system_packages@ClassLoader@@SAPAVobjArrayOopDesc@@PAVThread@@@Z 08018b70 f   classLoader.obj
 0001:00017cd0       ?contains_protection_domain@DictionaryEntry@@QBE_NPAVoopDesc@@@Z 08018cd0 f   dictionary.obj
 0001:00017d10       ?add_protection_domain@DictionaryEntry@@QAEXPAVoopDesc@@@Z 08018d10 f   dictionary.obj
 0001:00017d70       ?compute_hash@TwoOopHashtable@@QAEIVsymbolHandle@@VHandle@@@Z 08018d70 f i dictionary.obj
 0001:00017e00       ??0Dictionary@@QAE@H@Z     08018e00 f   dictionary.obj
 0001:00017e30       ??0Dictionary@@QAE@HPAVHashtableBucket@@H@Z 08018e30 f   dictionary.obj
 0001:00017e70       ?do_unloading@Dictionary@@QAE_NPAVBoolObjectClosure@@@Z 08018e70 f   dictionary.obj
 0001:00018460       ??0SymbolPropertyTable@@QAE@H@Z 08019460 f   dictionary.obj
 0001:00018480       ?add_entry@SymbolPropertyTable@@QAEPAVSymbolPropertyEntry@@HIVsymbolHandle@@H@Z 08019480 f   dictionary.obj
 0001:000184d0       ?always_strong_classes_do@Dictionary@@QAEXPAVOopClosure@@@Z 080194d0 f   dictionary.obj
 0001:00018570       ?classes_do@Dictionary@@QAEXP6AXPAVklassOopDesc@@@Z@Z 08019570 f   dictionary.obj
 0001:000185d0       ?classes_do@Dictionary@@QAEXP6AXPAVklassOopDesc@@PAVThread@@@Z1@Z 080195d0 f   dictionary.obj
 0001:00018640       ?classes_do@Dictionary@@QAEXP6AXPAVklassOopDesc@@PAVoopDesc@@PAVThread@@@Z2@Z 08019640 f   dictionary.obj
 0001:000186a0       ?classes_do@Dictionary@@QAEXP6AXPAVklassOopDesc@@PAVoopDesc@@@Z@Z 080196a0 f   dictionary.obj
 0001:000186f0       ?oops_do@Dictionary@@QAEXPAVOopClosure@@@Z 080196f0 f   dictionary.obj
 0001:00018780       ?try_get_next_class@Dictionary@@QAEPAVklassOopDesc@@XZ 08019780 f   dictionary.obj
 0001:000187d0       ?add_klass@Dictionary@@QAEXVsymbolHandle@@VHandle@@VKlassHandle@@@Z 080197d0 f   dictionary.obj
 0001:00018840       ?get_entry@Dictionary@@AAEPAVDictionaryEntry@@HIVsymbolHandle@@VHandle@@@Z 08019840 f   dictionary.obj
 0001:000188a0       ?find@Dictionary@@QAEPAVklassOopDesc@@HIVsymbolHandle@@VHandle@@1PAVThread@@@Z 080198a0 f   dictionary.obj
 0001:000188f0       ?find_class@Dictionary@@QAEPAVklassOopDesc@@HIVsymbolHandle@@VHandle@@@Z 080198f0 f   dictionary.obj
 0001:00018920       ?find_shared_class@Dictionary@@QAEPAVklassOopDesc@@HIVsymbolHandle@@@Z 08019920 f   dictionary.obj
 0001:00018950       ?add_protection_domain@Dictionary@@QAEXHIVinstanceKlassHandle@@VHandle@@1PAVThread@@@Z 08019950 f   dictionary.obj
 0001:000189b0       ?is_valid_protection_domain@Dictionary@@QAE_NHIVsymbolHandle@@VHandle@@1@Z 080199b0 f   dictionary.obj
 0001:00018a00       ?reorder_dictionary@Dictionary@@QAEXXZ 08019a00 f   dictionary.obj
 0001:00018b70       ?find_entry@SymbolPropertyTable@@QAEPAVSymbolPropertyEntry@@HIVsymbolHandle@@H@Z 08019b70 f   dictionary.obj
 0001:00018bc0       ?oops_do@SymbolPropertyTable@@QAEXPAVOopClosure@@@Z 08019bc0 f   dictionary.obj
 0001:00018c20       ?verify@Dictionary@@QAEXXZ 08019c20 f   dictionary.obj
 0001:00018d50       ?count@OptionList@JavaAssertions@@SAHPAV12@@Z 08019d50 f   javaAssertions.obj
 0001:00018d70       ?match_class@JavaAssertions@@CAPAVOptionList@1@PBD@Z 08019d70 f i javaAssertions.obj
 0001:00018dd0       ?match_package@JavaAssertions@@CAPAVOptionList@1@PBD@Z 08019dd0 f   javaAssertions.obj
 0001:00018e60       ?enabled@JavaAssertions@@SA_NPBD_N@Z 08019e60 f   javaAssertions.obj
 0001:00018ea0       ?addOption@JavaAssertions@@SAXPBD_N@Z 08019ea0 f   javaAssertions.obj
 0001:00018f80       ?allocate_instance_handle@instanceKlass@@QAE?AVinstanceHandle@@PAVThread@@@Z 08019f80 f i javaAssertions.obj
 0001:00018fa0       ?fillJavaArrays@JavaAssertions@@CAXPBVOptionList@1@HVobjArrayHandle@@VtypeArrayHandle@@PAVThread@@@Z 08019fa0 f   javaAssertions.obj
 0001:00019040       ?createAssertionStatusDirectives@JavaAssertions@@SAPAVoopDesc@@PAVThread@@@Z 0801a040 f   javaAssertions.obj
 0001:00019270       ?has_signature_field@java_lang_reflect_Method@@SA_NXZ 0801a270 f   javaClasses.obj
 0001:00019280       ?has_annotations_field@java_lang_reflect_Method@@SA_NXZ 0801a280 f   javaClasses.obj
 0001:00019290       ?has_parameter_annotations_field@java_lang_reflect_Method@@SA_NXZ 0801a290 f   javaClasses.obj
 0001:000192a0       ?has_annotation_default_field@java_lang_reflect_Method@@SA_NXZ 0801a2a0 f   javaClasses.obj
 0001:000192b0       ?has_signature_field@java_lang_reflect_Constructor@@SA_NXZ 0801a2b0 f   javaClasses.obj
 0001:000192c0       ?has_annotations_field@java_lang_reflect_Constructor@@SA_NXZ 0801a2c0 f   javaClasses.obj
 0001:000192d0       ?has_parameter_annotations_field@java_lang_reflect_Constructor@@SA_NXZ 0801a2d0 f   javaClasses.obj
 0001:000192e0       ?has_signature_field@java_lang_reflect_Field@@SA_NXZ 0801a2e0 f   javaClasses.obj
 0001:000192f0       ?has_annotations_field@java_lang_reflect_Field@@SA_NXZ 0801a2f0 f   javaClasses.obj
 0001:00019300       ?print@java_lang_boxing_object@@SAXW4BasicType@@PATjvalue@@PAVoutputStream@@@Z 0801a300 f   javaClasses.obj
 0001:00019440       ?in_offset_in_bytes@java_lang_System@@SAHXZ 0801a440 f   javaClasses.obj
 0001:00019450       ?out_offset_in_bytes@java_lang_System@@SAHXZ 0801a450 f   javaClasses.obj
 0001:00019460       ?err_offset_in_bytes@java_lang_System@@SAHXZ 0801a460 f   javaClasses.obj
 0001:00019470       ?limit_offset@java_nio_Buffer@@SAHXZ 0801a470 f   javaClasses.obj
 0001:00019480       ?value_offset@sun_misc_AtomicLongCSImpl@@SAHXZ 0801a480 f   javaClasses.obj
 0001:00019490       ?pc_desc_at@nmethod@@QAEPAVPcDesc@@PAE@Z 0801a490 f i javaClasses.obj
 0001:000194c0       ?returns_to_call_stub@StubRoutines@@SA_NPAE@Z 0801a4c0 f i javaClasses.obj
 0001:000194f0       ?is_gte_jdk14x_version@JDK_Version@@SA_NXZ 0801a4f0 f i javaClasses.obj
 0001:00019540       ?is_gte_jdk15x_version@JDK_Version@@SA_NXZ 0801a540 f i javaClasses.obj
 0001:00019590       ??0frame@@QAE@PAH0PAE@Z    0801a590 f i javaClasses.obj
 0001:000195e0       ??0frame@@QAE@PAH0@Z       0801a5e0 f i javaClasses.obj
 0001:00019630       ?fill_from_compiled_native_frame@vframeStreamCommon@@IAEXXZ 0801a630 f i javaClasses.obj
 0001:00019660       ?create_from_platform_dependent_str@java_lang_String@@SA?AVHandle@@PBDPAVThread@@@Z 0801a660 f   javaClasses.obj
 0001:00019730       ?primitive_mirror@java_lang_Class@@SAPAVoopDesc@@W4BasicType@@@Z 0801a730 f   javaClasses.obj
 0001:00019740       ?compute_offsets@java_lang_Class@@CAXXZ 0801a740 f   javaClasses.obj
 0001:000197c0       ?classRedefinedCount@java_lang_Class@@SAHPAVoopDesc@@@Z 0801a7c0 f   javaClasses.obj
 0001:000197f0       ?set_classRedefinedCount@java_lang_Class@@SAXPAVoopDesc@@H@Z 0801a7f0 f   javaClasses.obj
 0001:00019820       ?thread@java_lang_Thread@@SAPAVJavaThread@@PAVoopDesc@@@Z 0801a820 f   javaClasses.obj
 0001:00019840       ?set_thread@java_lang_Thread@@SAXPAVoopDesc@@PAVJavaThread@@@Z 0801a840 f   javaClasses.obj
 0001:00019860       ?priority@java_lang_Thread@@SA?AW4ThreadPriority@@PAVoopDesc@@@Z 0801a860 f   javaClasses.obj
 0001:00019880       ?set_priority@java_lang_Thread@@SAXPAVoopDesc@@W4ThreadPriority@@@Z 0801a880 f   javaClasses.obj
 0001:000198a0       ?is_stillborn@java_lang_Thread@@SA_NPAVoopDesc@@@Z 0801a8a0 f   javaClasses.obj
 0001:000198c0       ?set_stillborn@java_lang_Thread@@SAXPAVoopDesc@@@Z 0801a8c0 f   javaClasses.obj
 0001:000198e0       ?is_alive@java_lang_Thread@@SA_NPAVoopDesc@@@Z 0801a8e0 f   javaClasses.obj
 0001:00019900       ?is_daemon@java_lang_Thread@@SA_NPAVoopDesc@@@Z 0801a900 f   javaClasses.obj
 0001:00019920       ?set_daemon@java_lang_Thread@@SAXPAVoopDesc@@@Z 0801a920 f   javaClasses.obj
 0001:00019940       ?stackSize@java_lang_Thread@@SA_JPAVoopDesc@@@Z 0801a940 f   javaClasses.obj
 0001:00019960       ?set_thread_status@java_lang_Thread@@SAXPAVoopDesc@@W4ThreadStatus@1@@Z 0801a960 f   javaClasses.obj
 0001:00019980       ?get_thread_status@java_lang_Thread@@SA?AW4ThreadStatus@1@PAVoopDesc@@@Z 0801a980 f   javaClasses.obj
 0001:000199b0       ?thread_id@java_lang_Thread@@SA_JPAVoopDesc@@@Z 0801a9b0 f   javaClasses.obj
 0001:000199d0       ?park_event@java_lang_Thread@@SA_JPAVoopDesc@@@Z 0801a9d0 f   javaClasses.obj
 0001:000199f0       ?set_park_event@java_lang_Thread@@SA_NPAVoopDesc@@_J@Z 0801a9f0 f   javaClasses.obj
 0001:00019a20       ?thread_status_name@java_lang_Thread@@SAPBDPAVoopDesc@@@Z 0801aa20 f   javaClasses.obj
 0001:00019bb0       ?nthreads@java_lang_ThreadGroup@@SAHPAVoopDesc@@@Z 0801abb0 f   javaClasses.obj
 0001:00019bd0       ?ngroups@java_lang_ThreadGroup@@SAHPAVoopDesc@@@Z 0801abd0 f   javaClasses.obj
 0001:00019bf0       ?maxPriority@java_lang_ThreadGroup@@SA?AW4ThreadPriority@@PAVoopDesc@@@Z 0801abf0 f   javaClasses.obj
 0001:00019c10       ?is_daemon@java_lang_ThreadGroup@@SA_NPAVoopDesc@@@Z 0801ac10 f   javaClasses.obj
 0001:00019c30       ?override@java_lang_reflect_AccessibleObject@@SAEPAVoopDesc@@@Z 0801ac30 f   javaClasses.obj
 0001:00019c50       ?set_override@java_lang_reflect_AccessibleObject@@SAXPAVoopDesc@@E@Z 0801ac50 f   javaClasses.obj
 0001:00019c70       ?slot@java_lang_reflect_Method@@SAHPAVoopDesc@@@Z 0801ac70 f   javaClasses.obj
 0001:00019c90       ?set_slot@java_lang_reflect_Method@@SAXPAVoopDesc@@H@Z 0801ac90 f   javaClasses.obj
 0001:00019cb0       ?set_modifiers@java_lang_reflect_Method@@SAXPAVoopDesc@@H@Z 0801acb0 f   javaClasses.obj
 0001:00019cd0       ?slot@java_lang_reflect_Constructor@@SAHPAVoopDesc@@@Z 0801acd0 f   javaClasses.obj
 0001:00019cf0       ?set_slot@java_lang_reflect_Constructor@@SAXPAVoopDesc@@H@Z 0801acf0 f   javaClasses.obj
 0001:00019d10       ?set_modifiers@java_lang_reflect_Constructor@@SAXPAVoopDesc@@H@Z 0801ad10 f   javaClasses.obj
 0001:00019d30       ?slot@java_lang_reflect_Field@@SAHPAVoopDesc@@@Z 0801ad30 f   javaClasses.obj
 0001:00019d50       ?set_slot@java_lang_reflect_Field@@SAXPAVoopDesc@@H@Z 0801ad50 f   javaClasses.obj
 0001:00019d70       ?modifiers@java_lang_reflect_Field@@SAHPAVoopDesc@@@Z 0801ad70 f   javaClasses.obj
 0001:00019d90       ?set_modifiers@java_lang_reflect_Field@@SAXPAVoopDesc@@H@Z 0801ad90 f   javaClasses.obj
 0001:00019db0       ?pending_list_lock@java_lang_ref_Reference@@SAPAVoopDesc@@XZ 0801adb0 f   javaClasses.obj
 0001:00019de0       ?pending_list_addr@java_lang_ref_Reference@@SAPAVHeapWord@@XZ 0801ade0 f   javaClasses.obj
 0001:00019e10       ?pending_list@java_lang_ref_Reference@@SAPAVoopDesc@@XZ 0801ae10 f   javaClasses.obj
 0001:00019e40       ?timestamp@java_lang_ref_SoftReference@@SA_JPAVoopDesc@@@Z 0801ae40 f   javaClasses.obj
 0001:00019e60       ?clock@java_lang_ref_SoftReference@@SA_JXZ 0801ae60 f   javaClasses.obj
 0001:00019e90       ?set_clock@java_lang_ref_SoftReference@@SAX_J@Z 0801ae90 f   javaClasses.obj
 0001:00019ed0       ?set_vmentry@java_dyn_MethodHandle@@SAXPAVoopDesc@@PAVMethodHandleEntry@@@Z 0801aed0 f   javaClasses.obj
 0001:00019ef0       ?flags@sun_dyn_MemberName@@SAHPAVoopDesc@@@Z 0801aef0 f   javaClasses.obj
 0001:00019f10       ?set_flags@sun_dyn_MemberName@@SAXPAVoopDesc@@H@Z 0801af10 f   javaClasses.obj
 0001:00019f30       ?vmindex@sun_dyn_MemberName@@SAHPAVoopDesc@@@Z 0801af30 f   javaClasses.obj
 0001:00019f50       ?set_vmindex@sun_dyn_MemberName@@SAXPAVoopDesc@@H@Z 0801af50 f   javaClasses.obj
 0001:00019f70       ?vmindex@sun_dyn_DirectMethodHandle@@SAHPAVoopDesc@@@Z 0801af70 f   javaClasses.obj
 0001:00019f90       ?set_vmindex@sun_dyn_DirectMethodHandle@@SAXPAVoopDesc@@H@Z 0801af90 f   javaClasses.obj
 0001:00019fb0       ?vmargslot@sun_dyn_BoundMethodHandle@@SAHPAVoopDesc@@@Z 0801afb0 f   javaClasses.obj
 0001:00019fd0       ?conversion@sun_dyn_AdapterMethodHandle@@SAHPAVoopDesc@@@Z 0801afd0 f   javaClasses.obj
 0001:00019ff0       ?set_conversion@sun_dyn_AdapterMethodHandle@@SAXPAVoopDesc@@H@Z 0801aff0 f   javaClasses.obj
 0001:0001a010       ?compute_offsets@java_dyn_MethodTypeForm@@CAXXZ 0801b010 f   javaClasses.obj
 0001:0001a0d0       ?compute_offsets@java_security_AccessControlContext@@CAXXZ 0801b0d0 f   javaClasses.obj
 0001:0001a1b0       ?set_deflt@java_lang_AssertionStatusDirectives@@SAXPAVoopDesc@@_N@Z 0801b1b0 f   javaClasses.obj
 0001:0001a1d0       ?pd_last_frame@JavaThread@@AAE?AVframe@@XZ 0801b1d0 f i javaClasses.obj
 0001:0001a220       ?is_a@oopDesc@@QBE_NPAVklassOopDesc@@@Z 0801b220 f i javaClasses.obj
 0001:0001a250       ?value@java_lang_String@@SAPAVtypeArrayOopDesc@@PAVoopDesc@@@Z 0801b250 f i javaClasses.obj
 0001:0001a270       ?read_oop@DebugInfoReadStream@@QAEPAVoopDesc@@XZ 0801b270 f i javaClasses.obj
 0001:0001a2b0       ?fill_from_compiled_frame@vframeStreamCommon@@IAEXH@Z 0801b2b0 f i javaClasses.obj
 0001:0001a460       ?as_klassOop@java_lang_Class@@SAPAVklassOopDesc@@PAVoopDesc@@@Z 0801b460 f   javaClasses.obj
 0001:0001a480       ?resolved_constructor@java_lang_Class@@SAPAVmethodOopDesc@@PAVoopDesc@@@Z 0801b480 f   javaClasses.obj
 0001:0001a4a0       ?is_primitive@java_lang_Class@@SA_NPAVoopDesc@@@Z 0801b4a0 f   javaClasses.obj
 0001:0001a4c0       ?primitive_type@java_lang_Class@@SA?AW4BasicType@@PAVoopDesc@@@Z 0801b4c0 f   javaClasses.obj
 0001:0001a4e0       ?as_BasicType@java_lang_Class@@SA?AW4BasicType@@PAVoopDesc@@PAPAVklassOopDesc@@@Z 0801b4e0 f   javaClasses.obj
 0001:0001a530       ?parallelCapable@java_lang_Class@@SA_NPAVoopDesc@@@Z 0801b530 f   javaClasses.obj
 0001:0001a560       ?compute_offsets@java_lang_Thread@@CAXXZ 0801b560 f   javaClasses.obj
 0001:0001a720       ?name@java_lang_Thread@@SAPAVtypeArrayOopDesc@@PAVoopDesc@@@Z 0801b720 f   javaClasses.obj
 0001:0001a740       ?threadGroup@java_lang_Thread@@SAPAVoopDesc@@PAV2@@Z 0801b740 f   javaClasses.obj
 0001:0001a760       ?context_class_loader@java_lang_Thread@@SAPAVoopDesc@@PAV2@@Z 0801b760 f   javaClasses.obj
 0001:0001a780       ?inherited_access_control_context@java_lang_Thread@@SAPAVoopDesc@@PAV2@@Z 0801b780 f   javaClasses.obj
 0001:0001a7a0       ?park_blocker@java_lang_Thread@@SAPAVoopDesc@@PAV2@@Z 0801b7a0 f   javaClasses.obj
 0001:0001a7c0       ?parent@java_lang_ThreadGroup@@SAPAVoopDesc@@PAV2@@Z 0801b7c0 f   javaClasses.obj
 0001:0001a7e0       ?name@java_lang_ThreadGroup@@SAPAVtypeArrayOopDesc@@PAVoopDesc@@@Z 0801b7e0 f   javaClasses.obj
 0001:0001a800       ?threads@java_lang_ThreadGroup@@SAPAVobjArrayOopDesc@@PAVoopDesc@@@Z 0801b800 f   javaClasses.obj
 0001:0001a820       ?groups@java_lang_ThreadGroup@@SAPAVobjArrayOopDesc@@PAVoopDesc@@@Z 0801b820 f   javaClasses.obj
 0001:0001a840       ?compute_offsets@java_lang_ThreadGroup@@CAXXZ 0801b840 f   javaClasses.obj
 0001:0001a950       ?message@java_lang_Throwable@@SAPAVoopDesc@@PAV2@@Z 0801b950 f   javaClasses.obj
 0001:0001a970       ?print_stack_element_to_buffer@java_lang_Throwable@@CAPADPAVmethodOopDesc@@H@Z 0801b970 f   javaClasses.obj
 0001:0001ab00       ?print_stack_element@java_lang_Throwable@@SAXPAVoutputStream@@PAVmethodOopDesc@@H@Z 0801bb00 f   javaClasses.obj
 0001:0001ab70       ?print_to_stream@java_lang_Throwable@@CAXVHandle@@PBD@Z 0801bb70 f   javaClasses.obj
 0001:0001ac30       ?compute_offsets@java_lang_reflect_Method@@CAXXZ 0801bc30 f   javaClasses.obj
 0001:0001adc0       ?create@java_lang_reflect_Method@@SA?AVHandle@@PAVThread@@@Z 0801bdc0 f   javaClasses.obj
 0001:0001adf0       ?clazz@java_lang_reflect_Method@@SAPAVoopDesc@@PAV2@@Z 0801bdf0 f   javaClasses.obj
 0001:0001ae10       ?return_type@java_lang_reflect_Method@@SAPAVoopDesc@@PAV2@@Z 0801be10 f   javaClasses.obj
 0001:0001ae30       ?parameter_types@java_lang_reflect_Method@@SAPAVoopDesc@@PAV2@@Z 0801be30 f   javaClasses.obj
 0001:0001ae50       ?compute_offsets@java_lang_reflect_Constructor@@CAXXZ 0801be50 f   javaClasses.obj
 0001:0001af80       ?create@java_lang_reflect_Constructor@@SA?AVHandle@@PAVThread@@@Z 0801bf80 f   javaClasses.obj
 0001:0001b010       ?clazz@java_lang_reflect_Constructor@@SAPAVoopDesc@@PAV2@@Z 0801c010 f   javaClasses.obj
 0001:0001b030       ?parameter_types@java_lang_reflect_Constructor@@SAPAVoopDesc@@PAV2@@Z 0801c030 f   javaClasses.obj
 0001:0001b050       ?compute_offsets@java_lang_reflect_Field@@CAXXZ 0801c050 f   javaClasses.obj
 0001:0001b150       ?create@java_lang_reflect_Field@@SA?AVHandle@@PAVThread@@@Z 0801c150 f   javaClasses.obj
 0001:0001b1e0       ?clazz@java_lang_reflect_Field@@SAPAVoopDesc@@PAV2@@Z 0801c1e0 f   javaClasses.obj
 0001:0001b200       ?create@sun_reflect_ConstantPool@@SA?AVHandle@@PAVThread@@@Z 0801c200 f   javaClasses.obj
 0001:0001b270       ?initialize_and_allocate@java_lang_boxing_object@@CAPAVoopDesc@@W4BasicType@@PAVThread@@@Z 0801c270 f   javaClasses.obj
 0001:0001b2f0       ?create@java_lang_boxing_object@@SAPAVoopDesc@@W4BasicType@@PATjvalue@@PAVThread@@@Z 0801c2f0 f   javaClasses.obj
 0001:0001b400       ?basic_type@java_lang_boxing_object@@SA?AW4BasicType@@PAVoopDesc@@@Z 0801c400 f   javaClasses.obj
 0001:0001b430       ?get_value@java_lang_boxing_object@@SA?AW4BasicType@@PAVoopDesc@@PATjvalue@@@Z 0801c430 f   javaClasses.obj
 0001:0001b520       ?compute_offsets@java_dyn_MethodHandle@@CAXXZ 0801c520 f   javaClasses.obj
 0001:0001b5c0       ?compute_offsets@sun_dyn_MemberName@@CAXXZ 0801c5c0 f   javaClasses.obj
 0001:0001b680       ?compute_offsets@sun_dyn_BoundMethodHandle@@CAXXZ 0801c680 f   javaClasses.obj
 0001:0001b6d0       ?type@java_dyn_MethodHandle@@SAPAVoopDesc@@PAV2@@Z 0801c6d0 f   javaClasses.obj
 0001:0001b6f0       ?clazz@sun_dyn_MemberName@@SAPAVoopDesc@@PAV2@@Z 0801c6f0 f   javaClasses.obj
 0001:0001b710       ?name@sun_dyn_MemberName@@SAPAVoopDesc@@PAV2@@Z 0801c710 f   javaClasses.obj
 0001:0001b730       ?type@sun_dyn_MemberName@@SAPAVoopDesc@@PAV2@@Z 0801c730 f   javaClasses.obj
 0001:0001b750       ?vmtarget@sun_dyn_MemberName@@SAPAVoopDesc@@PAV2@@Z 0801c750 f   javaClasses.obj
 0001:0001b770       ?vmtarget@java_dyn_MethodHandle@@SAPAVoopDesc@@PAV2@@Z 0801c770 f   javaClasses.obj
 0001:0001b790       ?argument@sun_dyn_BoundMethodHandle@@SAPAVoopDesc@@PAV2@@Z 0801c790 f   javaClasses.obj
 0001:0001b7b0       ?compute_offsets@java_dyn_MethodType@@CAXXZ 0801c7b0 f   javaClasses.obj
 0001:0001b810       ?rtype@java_dyn_MethodType@@SAPAVoopDesc@@PAV2@@Z 0801c810 f   javaClasses.obj
 0001:0001b830       ?ptypes@java_dyn_MethodType@@SAPAVobjArrayOopDesc@@PAVoopDesc@@@Z 0801c830 f   javaClasses.obj
 0001:0001b850       ?ptype_count@java_dyn_MethodType@@SAHPAVoopDesc@@@Z 0801c850 f   javaClasses.obj
 0001:0001b870       ?compute_offsets@java_dyn_CallSite@@CAXXZ 0801c870 f   javaClasses.obj
 0001:0001b8e0       ?non_reflection_class_loader@java_lang_ClassLoader@@SAPAVoopDesc@@PAV2@@Z 0801c8e0 f   javaClasses.obj
 0001:0001b930       ?initialize@java_util_concurrent_locks_AbstractOwnableSynchronizer@@SAXPAVThread@@@Z 0801c930 f   javaClasses.obj
 0001:0001b980       ?get_owner_threadObj@java_util_concurrent_locks_AbstractOwnableSynchronizer@@SAPAVoopDesc@@PAV2@@Z 0801c980 f   javaClasses.obj
 0001:0001b9a0       ?compute_hard_coded_offsets@JavaClasses@@SAXXZ 0801c9a0 f   javaClasses.obj
 0001:0001bad0       ?compute_offsets@JavaClasses@@SAXXZ 0801cad0 f   javaClasses.obj
 0001:0001bc70       ?javaClasses_init@@YAXXZ   0801cc70 f   javaClasses.obj
 0001:0001bc80       ?print_signature@java_lang_Class@@SAXPAVoopDesc@@PAVoutputStream@@@Z 0801cc80 f   javaClasses.obj
 0001:0001bd20       ?as_signature@java_lang_Class@@SAPAVsymbolOopDesc@@PAVoopDesc@@_NPAVThread@@@Z 0801cd20 f   javaClasses.obj
 0001:0001be00       ?print_stack_element@java_lang_Throwable@@SAXVHandle@@PAVmethodOopDesc@@H@Z 0801ce00 f   javaClasses.obj
 0001:0001be70       ?is_trusted_loader@java_lang_ClassLoader@@SA_NPAVoopDesc@@@Z 0801ce70 f   javaClasses.obj
 0001:0001bee0       ?fill_from_frame@vframeStreamCommon@@IAE_NXZ 0801cee0 f i javaClasses.obj
 0001:0001bfe0       ?as_unicode_string@java_lang_String@@SAPAGPAVoopDesc@@AAH@Z 0801cfe0 f   javaClasses.obj
 0001:0001c040       ?as_symbol@java_lang_String@@SA?AVsymbolHandle@@VHandle@@PAVThread@@@Z 0801d040 f   javaClasses.obj
 0001:0001c0a0       ?as_symbol_or_null@java_lang_String@@SAPAVsymbolOopDesc@@PAVoopDesc@@@Z 0801d0a0 f   javaClasses.obj
 0001:0001c0f0       ?utf8_length@java_lang_String@@SAHPAVoopDesc@@@Z 0801d0f0 f   javaClasses.obj
 0001:0001c140       ?as_utf8_string@java_lang_String@@SAPADPAVoopDesc@@@Z 0801d140 f   javaClasses.obj
 0001:0001c190       ?as_utf8_string@java_lang_String@@SAPADPAVoopDesc@@PADH@Z 0801d190 f   javaClasses.obj
 0001:0001c1f0       ?as_utf8_string@java_lang_String@@SAPADPAVoopDesc@@HH@Z 0801d1f0 f   javaClasses.obj
 0001:0001c220       ?equals@java_lang_String@@SA_NPAVoopDesc@@PAGH@Z 0801d220 f   javaClasses.obj
 0001:0001c280       ?print@java_lang_String@@SAXVHandle@@PAVoutputStream@@@Z 0801d280 f   javaClasses.obj
 0001:0001c310       ?set_backtrace@java_lang_Throwable@@SAXPAVoopDesc@@0@Z 0801d310 f   javaClasses.obj
 0001:0001c360       ?print@java_lang_Throwable@@SAXPAVoopDesc@@PAVoutputStream@@@Z 0801d360 f   javaClasses.obj
 0001:0001c400       ?print@java_lang_Throwable@@SAXVHandle@@PAVoutputStream@@@Z 0801d400 f   javaClasses.obj
 0001:0001c4a0       ?vmslots@java_dyn_MethodHandle@@SAHPAVoopDesc@@@Z 0801d4a0 f   javaClasses.obj
 0001:0001c4e0       ?init_vmslots@java_dyn_MethodHandle@@SAXPAVoopDesc@@@Z 0801d4e0 f   javaClasses.obj
 0001:0001c530       ?set_java_mirror@Klass@@QAEXPAVoopDesc@@@Z 0801d530 f i javaClasses.obj
 0001:0001c580       ?set_component_mirror@arrayKlass@@QAEXPAVoopDesc@@@Z 0801d580 f i javaClasses.obj
 0001:0001c5d0       ?next@vframeStreamCommon@@QAEXXZ 0801d5d0 f i javaClasses.obj
 0001:0001c640       ??0vframeStream@@QAE@PAVJavaThread@@_N@Z 0801d640 f i javaClasses.obj
 0001:0001c760       ?basic_create@java_lang_String@@CA?AVHandle@@H_NPAVThread@@@Z 0801d760 f   javaClasses.obj
 0001:0001c830       ?basic_create_from_unicode@java_lang_String@@CA?AVHandle@@PAGH_NPAVThread@@@Z 0801d830 f   javaClasses.obj
 0001:0001c8a0       ?create_tenured_from_unicode@java_lang_String@@SA?AVHandle@@PAGHPAVThread@@@Z 0801d8a0 f   javaClasses.obj
 0001:0001c8d0       ?create_oop_from_unicode@java_lang_String@@SAPAVoopDesc@@PAGHPAVThread@@@Z 0801d8d0 f   javaClasses.obj
 0001:0001c910       ?create_from_str@java_lang_String@@SA?AVHandle@@PBDPAVThread@@@Z 0801d910 f   javaClasses.obj
 0001:0001c9f0       ?create_oop_from_str@java_lang_String@@SAPAVoopDesc@@PBDPAVThread@@@Z 0801d9f0 f   javaClasses.obj
 0001:0001ca20       ?create_from_symbol@java_lang_String@@SA?AVHandle@@VsymbolHandle@@PAVThread@@@Z 0801da20 f   javaClasses.obj
 0001:0001cb00       ?char_converter@java_lang_String@@SA?AVHandle@@V2@GGPAVThread@@@Z 0801db00 f   javaClasses.obj
 0001:0001cc90       ?set_array_klass@java_lang_Class@@SAXPAVoopDesc@@PAVklassOopDesc@@@Z 0801dc90 f   javaClasses.obj
 0001:0001ccb0       ?set_resolved_constructor@java_lang_Class@@SAXPAVoopDesc@@PAVmethodOopDesc@@@Z 0801dcb0 f   javaClasses.obj
 0001:0001ccd0       ?set_message@java_lang_Throwable@@SAXPAVoopDesc@@0@Z 0801dcd0 f   javaClasses.obj
 0001:0001ccf0       ?print_stack_trace@java_lang_Throwable@@SAXPAVoopDesc@@PAVoutputStream@@@Z 0801dcf0 f   javaClasses.obj
 0001:0001d090       ?print_stack_trace@java_lang_Throwable@@SAXPAVoopDesc@@0@Z 0801e090 f   javaClasses.obj
 0001:0001d1f0       ?expand@BacktraceBuilder@@QAEXPAVThread@@@Z 0801e1f0 f i javaClasses.obj
 0001:0001d330       ?push@BacktraceBuilder@@QAEXPAVmethodOopDesc@@FPAVThread@@@Z 0801e330 f i javaClasses.obj
 0001:0001d3b0       ?allocate_backtrace@java_lang_Throwable@@SAXVHandle@@PAVThread@@@Z 0801e3b0 f   javaClasses.obj
 0001:0001d4a0       ?fill_in_stack_trace_of_preallocated_backtrace@java_lang_Throwable@@SAXVHandle@@@Z 0801e4a0 f   javaClasses.obj
 0001:0001d5d0       ?get_stack_trace_depth@java_lang_Throwable@@SAHPAVoopDesc@@PAVThread@@@Z 0801e5d0 f   javaClasses.obj
 0001:0001d650       ?set_clazz@java_lang_reflect_Method@@SAXPAVoopDesc@@0@Z 0801e650 f   javaClasses.obj
 0001:0001d670       ?set_name@java_lang_reflect_Method@@SAXPAVoopDesc@@0@Z 0801e670 f   javaClasses.obj
 0001:0001d690       ?set_return_type@java_lang_reflect_Method@@SAXPAVoopDesc@@0@Z 0801e690 f   javaClasses.obj
 0001:0001d6b0       ?set_parameter_types@java_lang_reflect_Method@@SAXPAVoopDesc@@0@Z 0801e6b0 f   javaClasses.obj
 0001:0001d6d0       ?set_exception_types@java_lang_reflect_Method@@SAXPAVoopDesc@@0@Z 0801e6d0 f   javaClasses.obj
 0001:0001d6f0       ?set_signature@java_lang_reflect_Method@@SAXPAVoopDesc@@0@Z 0801e6f0 f   javaClasses.obj
 0001:0001d710       ?set_annotations@java_lang_reflect_Method@@SAXPAVoopDesc@@0@Z 0801e710 f   javaClasses.obj
 0001:0001d730       ?set_parameter_annotations@java_lang_reflect_Method@@SAXPAVoopDesc@@0@Z 0801e730 f   javaClasses.obj
 0001:0001d750       ?set_annotation_default@java_lang_reflect_Method@@SAXPAVoopDesc@@0@Z 0801e750 f   javaClasses.obj
 0001:0001d770       ?set_clazz@java_lang_reflect_Constructor@@SAXPAVoopDesc@@0@Z 0801e770 f   javaClasses.obj
 0001:0001d790       ?set_parameter_types@java_lang_reflect_Constructor@@SAXPAVoopDesc@@0@Z 0801e790 f   javaClasses.obj
 0001:0001d7b0       ?set_exception_types@java_lang_reflect_Constructor@@SAXPAVoopDesc@@0@Z 0801e7b0 f   javaClasses.obj
 0001:0001d7d0       ?set_signature@java_lang_reflect_Constructor@@SAXPAVoopDesc@@0@Z 0801e7d0 f   javaClasses.obj
 0001:0001d7f0       ?set_annotations@java_lang_reflect_Constructor@@SAXPAVoopDesc@@0@Z 0801e7f0 f   javaClasses.obj
 0001:0001d810       ?set_parameter_annotations@java_lang_reflect_Constructor@@SAXPAVoopDesc@@0@Z 0801e810 f   javaClasses.obj
 0001:0001d830       ?set_clazz@java_lang_reflect_Field@@SAXPAVoopDesc@@0@Z 0801e830 f   javaClasses.obj
 0001:0001d850       ?set_name@java_lang_reflect_Field@@SAXPAVoopDesc@@0@Z 0801e850 f   javaClasses.obj
 0001:0001d870       ?set_type@java_lang_reflect_Field@@SAXPAVoopDesc@@0@Z 0801e870 f   javaClasses.obj
 0001:0001d890       ?set_signature@java_lang_reflect_Field@@SAXPAVoopDesc@@0@Z 0801e890 f   javaClasses.obj
 0001:0001d8b0       ?set_annotations@java_lang_reflect_Field@@SAXPAVoopDesc@@0@Z 0801e8b0 f   javaClasses.obj
 0001:0001d8d0       ?set_cp_oop@sun_reflect_ConstantPool@@SAXPAVoopDesc@@0@Z 0801e8d0 f   javaClasses.obj
 0001:0001d8f0       ?set_clazz@sun_dyn_MemberName@@SAXPAVoopDesc@@0@Z 0801e8f0 f   javaClasses.obj
 0001:0001d910       ?set_name@sun_dyn_MemberName@@SAXPAVoopDesc@@0@Z 0801e910 f   javaClasses.obj
 0001:0001d930       ?set_type@sun_dyn_MemberName@@SAXPAVoopDesc@@0@Z 0801e930 f   javaClasses.obj
 0001:0001d950       ?set_vmtarget@sun_dyn_MemberName@@SAXPAVoopDesc@@0@Z 0801e950 f   javaClasses.obj
 0001:0001d970       ?set_vmtarget@java_dyn_MethodHandle@@SAXPAVoopDesc@@0@Z 0801e970 f   javaClasses.obj
 0001:0001d990       ?print_signature@java_dyn_MethodType@@SAXPAVoopDesc@@PAVoutputStream@@@Z 0801e990 f   javaClasses.obj
 0001:0001da00       ?as_signature@java_dyn_MethodType@@SAPAVsymbolOopDesc@@PAVoopDesc@@_NPAVThread@@@Z 0801ea00 f   javaClasses.obj
 0001:0001dad0       ?ptype@java_dyn_MethodType@@SAPAVoopDesc@@PAV2@H@Z 0801ead0 f   javaClasses.obj
 0001:0001daf0       ?set_target@java_dyn_CallSite@@SAXPAVoopDesc@@0@Z 0801eaf0 f   javaClasses.obj
 0001:0001db10       ?create@java_security_AccessControlContext@@SAPAVoopDesc@@VobjArrayHandle@@_NVHandle@@PAVThread@@@Z 0801eb10 f   javaClasses.obj
 0001:0001dba0       ?set_fileName@java_lang_StackTraceElement@@SAXPAVoopDesc@@0@Z 0801eba0 f   javaClasses.obj
 0001:0001dbc0       ?set_classes@java_lang_AssertionStatusDirectives@@SAXPAVoopDesc@@0@Z 0801ebc0 f   javaClasses.obj
 0001:0001dbe0       ?set_classEnabled@java_lang_AssertionStatusDirectives@@SAXPAVoopDesc@@0@Z 0801ebe0 f   javaClasses.obj
 0001:0001dc00       ?set_packages@java_lang_AssertionStatusDirectives@@SAXPAVoopDesc@@0@Z 0801ec00 f   javaClasses.obj
 0001:0001dc20       ?set_packageEnabled@java_lang_AssertionStatusDirectives@@SAXPAVoopDesc@@0@Z 0801ec20 f   javaClasses.obj
 0001:0001dc40       ?create_mirror@java_lang_Class@@SAPAVoopDesc@@VKlassHandle@@PAVThread@@@Z 0801ec40 f   javaClasses.obj
 0001:0001dd30       ?create_basic_type_mirror@java_lang_Class@@SAPAVoopDesc@@PBDW4BasicType@@PAVThread@@@Z 0801ed30 f   javaClasses.obj
 0001:0001dd80       ?fill_in_stack_trace@java_lang_Throwable@@SAXVHandle@@PAVThread@@@Z 0801ed80 f   javaClasses.obj
 0001:0001e150       ?fill_in_stack_trace@java_lang_Throwable@@SAXVHandle@@@Z 0801f150 f   javaClasses.obj
 0001:0001e1a0       ?create@java_lang_StackTraceElement@@SAPAVoopDesc@@VmethodHandle@@HPAVThread@@@Z 0801f1a0 f   javaClasses.obj
 0001:0001e380       ?get_stack_trace_element@java_lang_Throwable@@SAPAVoopDesc@@PAV2@HPAVThread@@@Z 0801f380 f   javaClasses.obj
 0001:0001e4a0       ?contains@MemRegion@@QBE_NPBX@Z 0801f4a0 f i loaderConstraints.obj
 0001:0001e4d0       ?is_shared@oopDesc@@QBE_NXZ 0801f4d0 f i loaderConstraints.obj
 0001:0001e4f0       ?ensure_loader_constraint_capacity@LoaderConstraintTable@@QAEXPAVLoaderConstraintEntry@@H@Z 0801f4f0 f   loaderConstraints.obj
 0001:0001e580       ?compute_hash@Hashtable@@IAEIVsymbolHandle@@@Z 0801f580 f i loaderConstraints.obj
 0001:0001e5c0       ?is_oop@oopDesc@@QBE_N_N@Z 0801f5c0 f i loaderConstraints.obj
 0001:0001e680       ?loader_name@SystemDictionary@@SAPBDPAVoopDesc@@@Z 0801f680 f i loaderConstraints.obj
 0001:0001e6a0       ??0LoaderConstraintTable@@QAE@H@Z 0801f6a0 f   loaderConstraints.obj
 0001:0001e6c0       ?find_loader_constraint@LoaderConstraintTable@@AAEPAPAVLoaderConstraintEntry@@VsymbolHandle@@VHandle@@@Z 0801f6c0 f   loaderConstraints.obj
 0001:0001e770       ?purge_loader_constraints@LoaderConstraintTable@@QAEXPAVBoolObjectClosure@@@Z 0801f770 f   loaderConstraints.obj
 0001:0001eae0       ?check_or_update@LoaderConstraintTable@@QAE_NVinstanceKlassHandle@@VHandle@@VsymbolHandle@@@Z 0801fae0 f   loaderConstraints.obj
 0001:0001ebf0       ?find_constrained_klass@LoaderConstraintTable@@QAEPAVklassOopDesc@@VsymbolHandle@@VHandle@@@Z 0801fbf0 f   loaderConstraints.obj
 0001:0001ec20       ?extend_loader_constraint@LoaderConstraintTable@@QAEXPAVLoaderConstraintEntry@@VHandle@@PAVklassOopDesc@@@Z 0801fc20 f   loaderConstraints.obj
 0001:0001ed10       ?merge_loader_constraints@LoaderConstraintTable@@QAEXPAPAVLoaderConstraintEntry@@0PAVklassOopDesc@@@Z 0801fd10 f   loaderConstraints.obj
 0001:0001ee90       ?oops_do@LoaderConstraintTable@@QAEXPAVOopClosure@@@Z 0801fe90 f   loaderConstraints.obj
 0001:0001ef30       ?always_strong_classes_do@LoaderConstraintTable@@QAEXPAVOopClosure@@@Z 0801ff30 f   loaderConstraints.obj
 0001:0001ef80       ?add_entry@LoaderConstraintTable@@QAE_NVsymbolHandle@@PAVklassOopDesc@@VHandle@@12@Z 0801ff80 f   loaderConstraints.obj
 0001:0001f320       ?verify@LoaderConstraintTable@@QAEXPAVDictionary@@PAVPlaceholderTable@@@Z 08020320 f   loaderConstraints.obj
 0001:0001f550       ?set_threadQ@PlaceholderEntry@@QAEXPAVSeenThread@@W4classloadAction@PlaceholderTable@@@Z 08020550 f i placeholders.obj
 0001:0001f5a0       ?add_seen_thread@PlaceholderEntry@@QAEXPAVThread@@W4classloadAction@PlaceholderTable@@@Z 080205a0 f i placeholders.obj
 0001:0001f660       ?remove_entry@PlaceholderTable@@QAEXHIVsymbolHandle@@VHandle@@@Z 08020660 f   placeholders.obj
 0001:0001f6d0       ??0PlaceholderTable@@QAE@H@Z 080206d0 f   placeholders.obj
 0001:0001f6f0       ?add_entry@PlaceholderTable@@QAEXHIVsymbolHandle@@VHandle@@_N0@Z 080206f0 f   placeholders.obj
 0001:0001f780       ?get_entry@PlaceholderTable@@QAEPAVPlaceholderEntry@@HIVsymbolHandle@@VHandle@@@Z 08020780 f   placeholders.obj
 0001:0001f7d0       ?find_entry@PlaceholderTable@@QAEPAVsymbolOopDesc@@HIVsymbolHandle@@VHandle@@@Z 080207d0 f   placeholders.obj
 0001:0001f800       ?find_and_add@PlaceholderTable@@QAEPAVPlaceholderEntry@@HIVsymbolHandle@@VHandle@@W4classloadAction@1@0PAVThread@@@Z 08020800 f   placeholders.obj
 0001:0001f890       ?find_and_remove@PlaceholderTable@@QAEXHIVsymbolHandle@@VHandle@@PAVThread@@@Z 08020890 f   placeholders.obj
 0001:0001f8f0       ?oops_do@PlaceholderTable@@QAEXPAVOopClosure@@@Z 080208f0 f   placeholders.obj
 0001:0001f970       ?verify@PlaceholderTable@@QAEXXZ 08020970 f   placeholders.obj
 0001:0001fa40       ?purge_resolution_errors@ResolutionErrorTable@@QAEXPAVBoolObjectClosure@@@Z 08020a40 f   resolutionErrors.obj
 0001:0001fab0       ??0ResolutionErrorTable@@QAE@H@Z 08020ab0 f   resolutionErrors.obj
 0001:0001fad0       ?add_entry@ResolutionErrorTable@@QAEXHIVconstantPoolHandle@@HVsymbolHandle@@@Z 08020ad0 f   resolutionErrors.obj
 0001:0001fb30       ?find_entry@ResolutionErrorTable@@QAEPAVResolutionErrorEntry@@HIVconstantPoolHandle@@H@Z 08020b30 f   resolutionErrors.obj
 0001:0001fb80       ?oops_do@ResolutionErrorTable@@QAEXPAVOopClosure@@@Z 08020b80 f   resolutionErrors.obj
 0001:0001fbe0       ?always_strong_classes_do@ResolutionErrorTable@@QAEXPAVOopClosure@@@Z 08020be0 f   resolutionErrors.obj
 0001:0001fc30       ?uninitialized_type@VerificationType@@SA?AV1@G@Z 08020c30 f i stackMapFrame.obj
 0001:0001fc50       ?equals@VerificationType@@QBE_NABV1@@Z 08020c50 f i stackMapFrame.obj
 0001:0001fc50       ??8VerificationType@@QBE_NABV0@@Z 08020c50 f i stackMapFrame.obj
 0001:0001fc90       ??0StackMapFrame@@QAE@HEGGGGPAVVerificationType@@0PAVClassVerifier@@@Z 08020c90 f i stackMapFrame.obj
 0001:0001fce0       ??0StackMapFrame@@QAE@GGPAVClassVerifier@@@Z 08020ce0 f   stackMapFrame.obj
 0001:0001fd70       ?has_new_object@StackMapFrame@@QBE_NXZ 08020d70 f   stackMapFrame.obj
 0001:0001fdc0       ?initialize_object@StackMapFrame@@QAEXVVerificationType@@0@Z 08020dc0 f   stackMapFrame.obj
 0001:0001fe50       ?copy_locals@StackMapFrame@@QAEXPBV1@@Z 08020e50 f   stackMapFrame.obj
 0001:0001fe90       ?copy_stack@StackMapFrame@@QAEXPBV1@@Z 08020e90 f   stackMapFrame.obj
 0001:0001fed0       ?set_local@StackMapFrame@@QAEXHVVerificationType@@PAVThread@@@Z 08020ed0 f   stackMapFrame.obj
 0001:0001ff50       ?set_local_2@StackMapFrame@@QAEXHVVerificationType@@0PAVThread@@@Z 08020f50 f   stackMapFrame.obj
 0001:0001ffe0       ?is_assignable_from@VerificationType@@QBE_NABV1@VinstanceKlassHandle@@PAVThread@@@Z 08020fe0 f i stackMapFrame.obj
 0001:00020100       ?frame_in_exception_handler@StackMapFrame@@QAEPAV1@E@Z 08021100 f   stackMapFrame.obj
 0001:00020190       ?is_assignable_to@StackMapFrame@@QBE_NPAVVerificationType@@0HPAVThread@@@Z 08021190 f   stackMapFrame.obj
 0001:000201f0       ?is_assignable_to@StackMapFrame@@QBE_NPBV1@PAVThread@@@Z 080211f0 f   stackMapFrame.obj
 0001:00020290       ?pop_stack_ex@StackMapFrame@@QAE?AVVerificationType@@V2@PAVThread@@@Z 08021290 f   stackMapFrame.obj
 0001:00020310       ?get_local@StackMapFrame@@QAE?AVVerificationType@@HV2@PAVThread@@@Z 08021310 f   stackMapFrame.obj
 0001:000203c0       ?get_local_2@StackMapFrame@@QAEXHVVerificationType@@0PAVThread@@@Z 080213c0 f   stackMapFrame.obj
 0001:00020470       ?change_sig_to_verificationType@ClassVerifier@@QAEHPAVSignatureStream@@PAVVerificationType@@PAVThread@@@Z 08021470 f i stackMapFrame.obj
 0001:00020560       ?set_locals_from_arg@StackMapFrame@@QAE?AVVerificationType@@VmethodHandle@@V2@PAVThread@@@Z 08021560 f   stackMapFrame.obj
 0001:00020770       ?to_category2_2nd@VerificationType@@QBE?AV1@XZ 08021770 f i stackMapTable.obj
 0001:000207a0       ?reset@StackMapFrame@@QAEXXZ 080217a0 f i stackMapTable.obj
 0001:000207f0       ?check_verification_type_array_size@StackMapReader@@AAEXHHPAVThread@@@Z 080217f0 f i stackMapTable.obj
 0001:00020820       ?check_new_object@StackMapTable@@QBEXPBVStackMapFrame@@HPAVThread@@@Z 08021820 f   stackMapTable.obj
 0001:00020860       ?chop@StackMapReader@@AAEHPAVVerificationType@@HH@Z 08021860 f   stackMapTable.obj
 0001:000208c0       ?is_uninitialized_this@VerificationType@@QBE_NXZ 080218c0 f i stackMapTable.obj
 0001:000208e0       ?match_stackmap@StackMapTable@@QBE_NPAVStackMapFrame@@HH_N1PAVThread@@@Z 080218e0 f   stackMapTable.obj
 0001:000209b0       ?match_stackmap@StackMapTable@@QBE_NPAVStackMapFrame@@H_N1PAVThread@@@Z 080219b0 f   stackMapTable.obj
 0001:00020a00       ?check_jump_target@StackMapTable@@QBEXPAVStackMapFrame@@HPAVThread@@@Z 08021a00 f   stackMapTable.obj
 0001:00020ae0       ?get_u1@StackMapStream@@QAEEPAVThread@@@Z 08021ae0 f i stackMapTable.obj
 0001:00020b40       ?get_u2@StackMapStream@@QAEGPAVThread@@@Z 08021b40 f i stackMapTable.obj
 0001:00020ba0       ?parse_verification_type@StackMapReader@@AAE?AVVerificationType@@PAEPAVThread@@@Z 08021ba0 f   stackMapTable.obj
 0001:00020ce0       ?next@StackMapReader@@QAEPAVStackMapFrame@@PAV2@_NGGPAVThread@@@Z 08021ce0 f   stackMapTable.obj
 0001:00021400       ??0StackMapTable@@QAE@PAVStackMapReader@@PAVStackMapFrame@@GGPADHPAVThread@@@Z 08022400 f   stackMapTable.obj
 0001:000214e0       ??_H@YGXPAXIHP6EPAX0@Z@Z   080224e0 f i symbolTable.obj
 0001:00021510       ?hash_string@StringTable@@SAHPAGH@Z 08022510 f   symbolTable.obj
 0001:00021540       ?lookup@SymbolTable@@AAEPAVsymbolOopDesc@@HPBDHI@Z 08022540 f   symbolTable.obj
 0001:000215a0       ?lookup_only@SymbolTable@@SAPAVsymbolOopDesc@@PBDHAAI@Z 080225a0 f   symbolTable.obj
 0001:000215f0       ?lookup_only_unicode@SymbolTable@@SAPAVsymbolOopDesc@@PBGHAAI@Z 080225f0 f   symbolTable.obj
 0001:000216c0       ?basic_add@SymbolTable@@AAEPAVsymbolOopDesc@@HPAEHIPAVThread@@@Z 080226c0 f   symbolTable.obj
 0001:00021780       ?verify@SymbolTable@@SAXXZ 08022780 f   symbolTable.obj
 0001:00021890       ?lookup@StringTable@@AAEPAVoopDesc@@HPAGHI@Z 08022890 f   symbolTable.obj
 0001:000218f0       ?basic_add@StringTable@@AAEPAVoopDesc@@HVHandle@@PAGHIPAVThread@@@Z 080228f0 f   symbolTable.obj
 0001:000219e0       ?intern@StringTable@@CAPAVoopDesc@@VHandle@@PAGHPAVThread@@@Z 080229e0 f   symbolTable.obj
 0001:00021a40       ?intern@StringTable@@SAPAVoopDesc@@PAVsymbolOopDesc@@PAVThread@@@Z 08022a40 f   symbolTable.obj
 0001:00021ae0       ?intern@StringTable@@SAPAVoopDesc@@PAV2@PAVThread@@@Z 08022ae0 f   symbolTable.obj
 0001:00021b90       ?intern@StringTable@@SAPAVoopDesc@@PBDPAVThread@@@Z 08022b90 f   symbolTable.obj
 0001:00021c50       ?verify@StringTable@@SAXXZ 08022c50 f   symbolTable.obj
 0001:00021d70       ?lookup@SymbolTable@@SAPAVsymbolOopDesc@@PBDHPAVThread@@@Z 08022d70 f   symbolTable.obj
 0001:00021dd0       ?lookup@SymbolTable@@SAPAVsymbolOopDesc@@VsymbolHandle@@HHPAVThread@@@Z 08022dd0 f   symbolTable.obj
 0001:00021ed0       ?lookup_unicode@SymbolTable@@SAPAVsymbolOopDesc@@PBGHPAVThread@@@Z 08022ed0 f   symbolTable.obj
 0001:00021f90       ?basic_add@SymbolTable@@AAE_NVconstantPoolHandle@@HPAPBDPAH2PAIPAVThread@@@Z 08022f90 f   symbolTable.obj
 0001:000221b0       ?add@SymbolTable@@SAXVconstantPoolHandle@@HPAPBDPAH2PAIPAVThread@@@Z 080231b0 f   symbolTable.obj
 0001:000222a0       ?remove_seen_thread@PlaceholderEntry@@QAE_NPAVThread@@W4classloadAction@PlaceholderTable@@@Z 080232a0 f i systemDictionary.obj
 0001:00022390       ?java_system_loader@SystemDictionary@@SAPAVoopDesc@@XZ 08023390 f   systemDictionary.obj
 0001:000223a0       ?double_lock_wait@SystemDictionary@@CAXVHandle@@PAVThread@@@Z 080233a0 f   systemDictionary.obj
 0001:00022400       ?find_well_known_klass@SystemDictionary@@SAPAVklassOopDesc@@PAVsymbolOopDesc@@@Z 08023400 f   systemDictionary.obj
 0001:00022810       ?set_shared_dictionary@SystemDictionary@@SAXPAVHashtableBucket@@HH@Z 08023810 f   systemDictionary.obj
 0001:00022850       ?box_klass_type@SystemDictionary@@SA?AW4BasicType@@PAVklassOopDesc@@@Z 08023850 f   systemDictionary.obj
 0001:00022880       ??1PerfTraceTime@@QAE@XZ   08023880 f i systemDictionary.obj
 0001:000228c0       ?do_bool@SignatureInfo@@MAEXXZ 080238c0 f i systemDictionary.obj
 0001:000228d0       ?do_char@SignatureInfo@@MAEXXZ 080238d0 f i systemDictionary.obj
 0001:000228e0       ?do_float@SignatureInfo@@MAEXXZ 080238e0 f i systemDictionary.obj
 0001:000228f0       ?do_double@SignatureInfo@@MAEXXZ 080238f0 f i systemDictionary.obj
 0001:00022900       ?do_byte@SignatureInfo@@MAEXXZ 08023900 f i systemDictionary.obj
 0001:00022910       ?do_short@SignatureInfo@@MAEXXZ 08023910 f i systemDictionary.obj
 0001:00022920       ?do_int@SignatureInfo@@MAEXXZ 08023920 f i systemDictionary.obj
 0001:00022930       ?do_long@SignatureInfo@@MAEXXZ 08023930 f i systemDictionary.obj
 0001:00022940       ?do_void@SignatureInfo@@MAEXXZ 08023940 f i systemDictionary.obj
 0001:00022950       ?do_object@SignatureInfo@@MAEXHH@Z 08023950 f i systemDictionary.obj
 0001:00022960       ?do_array@SignatureInfo@@MAEXHH@Z 08023960 f i systemDictionary.obj
 0001:00022970       ??0ArgumentCount@@QAE@VsymbolHandle@@@Z 08023970 f i systemDictionary.obj
 0001:000229a0       ?set@ArgumentCount@@EAEXHW4BasicType@@@Z 080239a0 f i systemDictionary.obj
 0001:000229b0       ?push_oop@JavaCallArguments@@QAEXVHandle@@@Z 080239b0 f i systemDictionary.obj
 0001:000229e0       ?is_parallelCapable@SystemDictionary@@CA_NVHandle@@@Z 080239e0 f   systemDictionary.obj
 0001:00022a20       ?check_loader_lock_contention@SystemDictionary@@CAXVHandle@@PAVThread@@@Z 08023a20 f   systemDictionary.obj
 0001:00022a90       ?find_class@SystemDictionary@@CAPAVklassOopDesc@@HIVsymbolHandle@@VHandle@@@Z 08023a90 f   systemDictionary.obj
 0001:00022ab0       ?try_get_next_class@SystemDictionary@@SAPAVklassOopDesc@@XZ 08023ab0 f   systemDictionary.obj
 0001:00022ac0       ?add_to_hierarchy@SystemDictionary@@CAXVinstanceKlassHandle@@PAVThread@@@Z 08023ac0 f   systemDictionary.obj
 0001:00022b10       ?placeholders_do@SystemDictionary@@SAXPAVOopClosure@@@Z 08023b10 f   systemDictionary.obj
 0001:00022b30       ?do_unloading@SystemDictionary@@SA_NPAVBoolObjectClosure@@@Z 08023b30 f   systemDictionary.obj
 0001:00022b70       ?classes_do@SystemDictionary@@SAXP6AXPAVklassOopDesc@@@Z@Z 08023b70 f   systemDictionary.obj
 0001:00022b90       ?classes_do@SystemDictionary@@SAXP6AXPAVklassOopDesc@@PAVThread@@@Z1@Z 08023b90 f   systemDictionary.obj
 0001:00022bb0       ?classes_do@SystemDictionary@@SAXP6AXPAVklassOopDesc@@PAVoopDesc@@@Z@Z 08023bb0 f   systemDictionary.obj
 0001:00022bd0       ?classes_do@SystemDictionary@@SAXP6AXPAVklassOopDesc@@PAVoopDesc@@PAVThread@@@Z2@Z 08023bd0 f   systemDictionary.obj
 0001:00022bf0       ?reorder_dictionary@SystemDictionary@@SAXXZ 08023bf0 f   systemDictionary.obj
 0001:00022c00       ?copy_buckets@SystemDictionary@@SAXPAPADPAD@Z 08023c00 f   systemDictionary.obj
 0001:00022c20       ?copy_table@SystemDictionary@@SAXPAPADPAD@Z 08023c20 f   systemDictionary.obj
 0001:00022c40       ?reverse@SystemDictionary@@SAXXZ 08023c40 f   systemDictionary.obj
 0001:00022c50       ?number_of_classes@SystemDictionary@@SAHXZ 08023c50 f   systemDictionary.obj
 0001:00022c60       ?verify@SystemDictionary@@SAXXZ 08023c60 f   systemDictionary.obj
 0001:00022d60       ??0JavaCallArguments@@QAE@VHandle@@@Z 08023d60 f i systemDictionary.obj
 0001:00022da0       ?compute_hash@SymbolPropertyTable@@QAEIVsymbolHandle@@H@Z 08023da0 f i systemDictionary.obj
 0001:00022df0       ?compute_java_system_loader@SystemDictionary@@SAXPAVThread@@@Z 08023df0 f   systemDictionary.obj
 0001:00022e50       ?validate_protection_domain@SystemDictionary@@CAXVinstanceKlassHandle@@VHandle@@1PAVThread@@@Z 08023e50 f   systemDictionary.obj
 0001:00022f40       ?find@SystemDictionary@@SAPAVklassOopDesc@@VsymbolHandle@@VHandle@@1PAVThread@@@Z 08023f40 f   systemDictionary.obj
 0001:00022fa0       ?find_instance_or_array_klass@SystemDictionary@@SAPAVklassOopDesc@@VsymbolHandle@@VHandle@@1PAVThread@@@Z 08023fa0 f   systemDictionary.obj
 0001:00023090       ?find_shared_class@SystemDictionary@@CAPAVklassOopDesc@@VsymbolHandle@@@Z 08024090 f   systemDictionary.obj
 0001:000230e0       ?find_class_or_placeholder@SystemDictionary@@CAPAVoopDesc@@VsymbolHandle@@VHandle@@@Z 080240e0 f   systemDictionary.obj
 0001:00023180       ?always_strong_classes_do@SystemDictionary@@SAXPAVOopClosure@@@Z 08024180 f   systemDictionary.obj
 0001:000231d0       ?preloaded_oops_do@SystemDictionary@@CAXPAVOopClosure@@@Z 080241d0 f   systemDictionary.obj
 0001:00023260       ?check_constraints@SystemDictionary@@CAXHIVinstanceKlassHandle@@VHandle@@_NPAVThread@@@Z 08024260 f   systemDictionary.obj
 0001:00023400       ?update_dictionary@SystemDictionary@@CAXHIHIVinstanceKlassHandle@@VHandle@@PAVThread@@@Z 08024400 f   systemDictionary.obj
 0001:000234e0       ?find_constrained_instance_or_array_klass@SystemDictionary@@SAPAVklassOopDesc@@VsymbolHandle@@VHandle@@PAVThread@@@Z 080244e0 f   systemDictionary.obj
 0001:000235f0       ?add_loader_constraint@SystemDictionary@@SA_NVsymbolHandle@@VHandle@@1PAVThread@@@Z 080245f0 f   systemDictionary.obj
 0001:00023710       ?add_resolution_error@SystemDictionary@@SAXVconstantPoolHandle@@HVsymbolHandle@@@Z 08024710 f   systemDictionary.obj
 0001:000237a0       ?find_resolution_error@SystemDictionary@@SAPAVsymbolOopDesc@@VconstantPoolHandle@@H@Z 080247a0 f   systemDictionary.obj
 0001:00023850       ?check_signature_loaders@SystemDictionary@@SAPADVsymbolHandle@@VHandle@@1_NPAVThread@@@Z 08024850 f   systemDictionary.obj
 0001:00023930       ?verify_obj_klass_present@SystemDictionary@@SAXVHandle@@VsymbolHandle@@0@Z 08024930 f   systemDictionary.obj
 0001:000239f0       ?handle_resolution_exception@SystemDictionary@@CAPAVklassOopDesc@@VsymbolHandle@@VHandle@@1_NVKlassHandle@@PAVThread@@@Z 080249f0 f   systemDictionary.obj
 0001:00023b70       ?resolve_super_or_fail@SystemDictionary@@SAPAVklassOopDesc@@VsymbolHandle@@0VHandle@@1_NPAVThread@@@Z 08024b70 f   systemDictionary.obj
 0001:00023dc0       ?handle_parallel_super_load@SystemDictionary@@CA?AVinstanceKlassHandle@@VsymbolHandle@@0VHandle@@11PAVThread@@@Z 08024dc0 f   systemDictionary.obj
 0001:00023fa0       ?define_instance_class@SystemDictionary@@CAXVinstanceKlassHandle@@PAVThread@@@Z 08024fa0 f   systemDictionary.obj
 0001:000241b0       ?find_or_define_instance_class@SystemDictionary@@CA?AVinstanceKlassHandle@@VsymbolHandle@@VHandle@@V2@PAVThread@@@Z 080251b0 f   systemDictionary.obj
 0001:00024490       ?always_strong_oops_do@SystemDictionary@@SAXPAVOopClosure@@@Z 08025490 f   systemDictionary.obj
 0001:000244f0       ?oops_do@SystemDictionary@@SAXPAVOopClosure@@@Z 080254f0 f   systemDictionary.obj
 0001:00024560       ?make_dynamic_call_site@SystemDictionary@@SA?AVHandle@@V2@VsymbolHandle@@VmethodHandle@@02HPAVThread@@@Z 08025560 f   systemDictionary.obj
 0001:00024780       ?resolve_from_stream@SystemDictionary@@SAPAVklassOopDesc@@VsymbolHandle@@VHandle@@1PAVClassFileStream@@_NPAVThread@@@Z 08025780 f   systemDictionary.obj
 0001:00024a30       ?invoke_dynamic_argument_count_at@constantPoolOopDesc@@QAEHH@Z 08025a30 f i systemDictionary.obj
 0001:00024a70       ?invoke_dynamic_argument_index_at@constantPoolOopDesc@@QAEHHH@Z 08025a70 f i systemDictionary.obj
 0001:00024ab0       ?set_host_klass@instanceKlass@@QAEXPAVoopDesc@@@Z 08025ab0 f i systemDictionary.obj
 0001:00024b10       ?parse_stream@SystemDictionary@@SAPAVklassOopDesc@@VsymbolHandle@@VHandle@@1PAVClassFileStream@@VKlassHandle@@PAV?$GrowableArray@VHandle@@@@PAVThread@@@Z 08025b10 f   systemDictionary.obj
 0001:00024c50       ?load_shared_class@SystemDictionary@@CA?AVinstanceKlassHandle@@V2@VHandle@@PAVThread@@@Z 08025c50 f   systemDictionary.obj
 0001:00024ef0       ?find_method_handle_type@SystemDictionary@@SA?AVHandle@@VsymbolHandle@@VKlassHandle@@_NAA_NPAVThread@@@Z 08025ef0 f   systemDictionary.obj
 0001:000252b0       ?link_method_handle_constant@SystemDictionary@@SA?AVHandle@@VKlassHandle@@H0VsymbolHandle@@1PAVThread@@@Z 080262b0 f   systemDictionary.obj
 0001:00025540       ?find_bootstrap_method@SystemDictionary@@SA?AVHandle@@VmethodHandle@@HHAAV2@PAVThread@@@Z 08026540 f   systemDictionary.obj
 0001:00025770       ?load_shared_class@SystemDictionary@@CA?AVinstanceKlassHandle@@VsymbolHandle@@VHandle@@PAVThread@@@Z 08026770 f   systemDictionary.obj
 0001:000257e0       ?load_instance_class@SystemDictionary@@CA?AVinstanceKlassHandle@@VsymbolHandle@@VHandle@@PAVThread@@@Z 080267e0 f   systemDictionary.obj
 0001:00025b00       ?find_method_handle_invoke@SystemDictionary@@SAPAVmethodOopDesc@@VsymbolHandle@@0VKlassHandle@@PAVThread@@@Z 08026b00 f   systemDictionary.obj
 0001:00025c80       ?resolve_instance_class_or_null@SystemDictionary@@CAPAVklassOopDesc@@VsymbolHandle@@VHandle@@1PAVThread@@@Z 08026c80 f   systemDictionary.obj
 0001:000263b0       ?resolve_array_class_or_null@SystemDictionary@@CAPAVklassOopDesc@@VsymbolHandle@@VHandle@@1PAVThread@@@Z 080273b0 f   systemDictionary.obj
 0001:00026440       ?resolve_or_null@SystemDictionary@@SAPAVklassOopDesc@@VsymbolHandle@@VHandle@@1PAVThread@@@Z 08027440 f   systemDictionary.obj
 0001:000264a0       ?resolve_or_null@SystemDictionary@@SAPAVklassOopDesc@@VsymbolHandle@@PAVThread@@@Z 080274a0 f   systemDictionary.obj
 0001:000264c0       ?resolve_or_fail@SystemDictionary@@SAPAVklassOopDesc@@VsymbolHandle@@VHandle@@1_NPAVThread@@@Z 080274c0 f   systemDictionary.obj
 0001:00026510       ?resolve_or_fail@SystemDictionary@@SAPAVklassOopDesc@@VsymbolHandle@@_NPAVThread@@@Z 08027510 f   systemDictionary.obj
 0001:00026560       ?load_abstract_ownable_synchronizer_klass@SystemDictionary@@SAXPAVThread@@@Z 08027560 f   systemDictionary.obj
 0001:000265a0       ?initialize_wk_klass@SystemDictionary@@SA_NW4WKID@1@HPAVThread@@@Z 080275a0 f   systemDictionary.obj
 0001:00026640       ?initialize_wk_klasses_until@SystemDictionary@@SAXW4WKID@1@AAW421@PAVThread@@@Z 08027640 f   systemDictionary.obj
 0001:000266d0       ?initialize_wk_klasses_through@SystemDictionary@@SAXW4WKID@1@AAW421@PAVThread@@@Z 080276d0 f i systemDictionary.obj
 0001:000266f0       ?initialize_preloaded_classes@SystemDictionary@@CAXPAVThread@@@Z 080276f0 f   systemDictionary.obj
 0001:00026930       ?initialize@SystemDictionary@@SAXPAVThread@@@Z 08027930 f   systemDictionary.obj
 0001:00026a20       ?from_tag@VerificationType@@SA?AV1@E@Z 08027a20 f   verificationType.obj
 0001:00026aa0       ?is_object@VerificationType@@QBE_NXZ 08027aa0 f i verificationType.obj
 0001:00026ad0       ?is_array@VerificationType@@QBE_NXZ 08027ad0 f i verificationType.obj
 0001:00026b00       ?get_component@VerificationType@@QBE?AV1@PAVThread@@@Z 08027b00 f   verificationType.obj
 0001:00026c70       ?is_reference_assignable_from@VerificationType@@ABE_NABV1@VinstanceKlassHandle@@PAVThread@@@Z 08027c70 f   verificationType.obj
 0001:00026e60       ??9VerificationType@@QBE_NABV0@@Z 08027e60 f i verifier.obj
 0001:00026eb0       ?should_verify_for@Verifier@@SA_NPAVoopDesc@@_N@Z 08027eb0 f   verifier.obj
 0001:00026ed0       ?relax_verify_for@Verifier@@SA_NPAVoopDesc@@@Z 08027ed0 f   verifier.obj
 0001:00026f20       ??8Handle@@QBE_NABV0@@Z    08027f20 f i verifier.obj
 0001:00026f50       ??0ArgumentSizeComputer@@QAE@VsymbolHandle@@@Z 08027f50 f i verifier.obj
 0001:00026f80       ?set@ArgumentSizeComputer@@EAEXHW4BasicType@@@Z 08027f80 f i verifier.obj
 0001:00026fa0       ?size@ArgumentSizeComputer@@QAEHXZ 08027fa0 f i verifier.obj
 0001:00026fc0       ??0VerificationType@@QAE@XZ 08027fc0 f i verifier.obj
 0001:00026fd0       ?dimensions@VerificationType@@QBEHXZ 08027fd0 f i verifier.obj
 0001:00026ff0       ?was_recursively_verified@ClassVerifier@@AAE_NXZ 08027ff0 f i verifier.obj
 0001:00027010       ?pop_stack@StackMapFrame@@QAE?AVVerificationType@@V2@PAVThread@@@Z 08028010 f i verifier.obj
 0001:00027090       ?pop_stack_2@StackMapFrame@@QAEXVVerificationType@@0PAVThread@@@Z 08028090 f i verifier.obj
 0001:00027140       ?bytecode@BaseBytecodeStream@@QBE?AVBytecode@@XZ 08028140 f i verifier.obj
 0001:00027190       ??0RawBytecodeStream@@QAE@VmethodHandle@@@Z 08028190 f i verifier.obj
 0001:000271c0       ?raw_next@RawBytecodeStream@@QAE?AW4Code@Bytecodes@@XZ 080281c0 f i verifier.obj
 0001:00027200       ?is_eligible_for_verification@Verifier@@CA_NVinstanceKlassHandle@@_N@Z 08028200 f   verifier.obj
 0001:000272b0       ?load_class@ClassVerifier@@QAEPAVklassOopDesc@@VsymbolHandle@@PAVThread@@@Z 080282b0 f   verifier.obj
 0001:00027320       ?name_in_supers@ClassVerifier@@AAE_NPAVsymbolOopDesc@@VinstanceKlassHandle@@@Z 08028320 f   verifier.obj
 0001:00027350       ?verify_istore@ClassVerifier@@AAEXGPAVStackMapFrame@@PAVThread@@@Z 08028350 f   verifier.obj
 0001:000273a0       ?verify_lstore@ClassVerifier@@AAEXGPAVStackMapFrame@@PAVThread@@@Z 080283a0 f   verifier.obj
 0001:000273f0       ?verify_fstore@ClassVerifier@@AAEXGPAVStackMapFrame@@PAVThread@@@Z 080283f0 f   verifier.obj
 0001:00027440       ?verify_dstore@ClassVerifier@@AAEXGPAVStackMapFrame@@PAVThread@@@Z 08028440 f   verifier.obj
 0001:00027490       ?verify_astore@ClassVerifier@@AAEXGPAVStackMapFrame@@PAVThread@@@Z 08028490 f   verifier.obj
 0001:000274e0       ?verify_iinc@ClassVerifier@@AAEXGPAVStackMapFrame@@PAVThread@@@Z 080284e0 f   verifier.obj
 0001:00027530       ??0HandleMark@@QAE@XZ      08028530 f i verifier.obj
 0001:00027550       ?is_int_array@VerificationType@@QBE_NXZ 08028550 f i verifier.obj
 0001:00027580       ?is_byte_array@VerificationType@@QBE_NXZ 08028580 f i verifier.obj
 0001:000275b0       ?is_bool_array@VerificationType@@QBE_NXZ 080285b0 f i verifier.obj
 0001:000275e0       ?is_char_array@VerificationType@@QBE_NXZ 080285e0 f i verifier.obj
 0001:00027610       ?is_short_array@VerificationType@@QBE_NXZ 08028610 f i verifier.obj
 0001:00027640       ?is_long_array@VerificationType@@QBE_NXZ 08028640 f i verifier.obj
 0001:00027670       ?is_float_array@VerificationType@@QBE_NXZ 08028670 f i verifier.obj
 0001:000276a0       ?is_double_array@VerificationType@@QBE_NXZ 080286a0 f i verifier.obj
 0001:000276d0       ?is_reference_array@VerificationType@@QBE_NXZ 080286d0 f i verifier.obj
 0001:00027720       ?cp_index_to_type@ClassVerifier@@QAE?AVVerificationType@@HVconstantPoolHandle@@PAVThread@@@Z 08028720 f i verifier.obj
 0001:00027750       ?dest@BaseBytecodeStream@@QBEHXZ 08028750 f i verifier.obj
 0001:000277a0       ?dest_w@BaseBytecodeStream@@QBEHXZ 080287a0 f i verifier.obj
 0001:000277e0       ?format_error_message@ClassVerifier@@QAEXPBDHPAD@Z 080287e0 f   verifier.obj
 0001:00027890       ?is_protected_access@ClassVerifier@@AAE_NVinstanceKlassHandle@@PAVklassOopDesc@@PAVsymbolOopDesc@@2_N@Z 08028890 f   verifier.obj
 0001:00027960       ?cp_ref_index_to_type@ClassVerifier@@AAE?AVVerificationType@@HVconstantPoolHandle@@PAVThread@@@Z 08028960 f i verifier.obj
 0001:000279a0       ?get_index@RawBytecodeStream@@QBEHXZ 080289a0 f i verifier.obj
 0001:000279e0       ?get_index_u2@RawBytecodeStream@@QBEHXZ 080289e0 f i verifier.obj
 0001:00027a10       ?inference_verify@Verifier@@CA?AVsymbolHandle@@VinstanceKlassHandle@@PADIPAVThread@@@Z 08028a10 f   verifier.obj
 0001:00027c90       ??0ClassVerifier@@QAE@VinstanceKlassHandle@@PADIPAVThread@@@Z 08028c90 f   verifier.obj
 0001:00027ce0       ?object_type@ClassVerifier@@ABE?AVVerificationType@@XZ 08028ce0 f   verifier.obj
 0001:00027d00       ?verify_error@ClassVerifier@@QAAXGPBDZZ 08028d00 f   verifier.obj
 0001:00027d40       ?verify_error@ClassVerifier@@QAAXPBDZZ 08028d40 f   verifier.obj
 0001:00027d70       ?class_format_error@ClassVerifier@@QAAXPBDZZ 08028d70 f   verifier.obj
 0001:00027da0       ?verify_switch@ClassVerifier@@AAEXPAVRawBytecodeStream@@IPADPAVStackMapFrame@@PAVStackMapTable@@PAVThread@@@Z 08028da0 f   verifier.obj
 0001:00027fc0       ?get_newarray_type@ClassVerifier@@AAE?AVVerificationType@@GGPAVThread@@@Z 08028fc0 f   verifier.obj
 0001:00028080       ?verify_return_value@ClassVerifier@@AAEXVVerificationType@@0GPAVThread@@@Z 08029080 f   verifier.obj
 0001:000280f0       ?push_stack@StackMapFrame@@QAEXVVerificationType@@PAVThread@@@Z 080290f0 f i verifier.obj
 0001:00028130       ?push_stack_2@StackMapFrame@@QAEXVVerificationType@@0PAVThread@@@Z 08029130 f i verifier.obj
 0001:00028180       ?pop_stack@StackMapFrame@@QAE?AVVerificationType@@PAVThread@@@Z 08029180 f i verifier.obj
 0001:000281d0       ??0StackMapReader@@QAE@PAVClassVerifier@@PAVStackMapStream@@PADHPAVThread@@@Z 080291d0 f i verifier.obj
 0001:00028240       ?generate_code_data@ClassVerifier@@AAEPADVmethodHandle@@IPAVThread@@@Z 08029240 f   verifier.obj
 0001:00028320       ?verify_exception_handler_table@ClassVerifier@@AAEXIPADAAH1PAVThread@@@Z 08029320 f   verifier.obj
 0001:00028510       ?verify_local_variable_table@ClassVerifier@@AAEXIPADPAVThread@@@Z 08029510 f   verifier.obj
 0001:000285e0       ?verify_stackmap_table@ClassVerifier@@AAEGGGPAVStackMapFrame@@PAVStackMapTable@@_NPAVThread@@@Z 080295e0 f   verifier.obj
 0001:000286e0       ?verify_exception_handler_targets@ClassVerifier@@AAEXG_NPAVStackMapFrame@@PAVStackMapTable@@PAVThread@@@Z 080296e0 f   verifier.obj
 0001:00028910       ?verify_cp_type@ClassVerifier@@AAEXHVconstantPoolHandle@@IPAVThread@@@Z 08029910 f   verifier.obj
 0001:000289c0       ?verify_cp_class_type@ClassVerifier@@AAEXHVconstantPoolHandle@@PAVThread@@@Z 080299c0 f   verifier.obj
 0001:00028a50       ?verify_ldc@ClassVerifier@@AAEXHGPAVStackMapFrame@@VconstantPoolHandle@@GPAVThread@@@Z 08029a50 f   verifier.obj
 0001:00028d10       ?verify_field_instructions@ClassVerifier@@AAEXPAVRawBytecodeStream@@PAVStackMapFrame@@VconstantPoolHandle@@PAVThread@@@Z 08029d10 f   verifier.obj
 0001:000291e0       ?verify_invoke_init@ClassVerifier@@AAEXPAVRawBytecodeStream@@VVerificationType@@PAVStackMapFrame@@IPA_NVconstantPoolHandle@@PAVThread@@@Z 0802a1e0 f   verifier.obj
 0001:00029490       ?verify_invoke_instructions@ClassVerifier@@AAEXPAVRawBytecodeStream@@IPAVStackMapFrame@@PA_NVVerificationType@@VconstantPoolHandle@@PAVThread@@@Z 0802a490 f   verifier.obj
 0001:00029af0       ?verify_anewarray@ClassVerifier@@AAEXGVconstantPoolHandle@@PAVStackMapFrame@@PAVThread@@@Z 0802aaf0 f   verifier.obj
 0001:00029c60       ?verify_iload@ClassVerifier@@AAEXGPAVStackMapFrame@@PAVThread@@@Z 0802ac60 f   verifier.obj
 0001:00029cd0       ?verify_lload@ClassVerifier@@AAEXGPAVStackMapFrame@@PAVThread@@@Z 0802acd0 f   verifier.obj
 0001:00029d20       ?verify_fload@ClassVerifier@@AAEXGPAVStackMapFrame@@PAVThread@@@Z 0802ad20 f   verifier.obj
 0001:00029d90       ?verify_dload@ClassVerifier@@AAEXGPAVStackMapFrame@@PAVThread@@@Z 0802ad90 f   verifier.obj
 0001:00029de0       ?verify_aload@ClassVerifier@@AAEXGPAVStackMapFrame@@PAVThread@@@Z 0802ade0 f   verifier.obj
 0001:00029e50       ?verify_method@ClassVerifier@@AAEXVmethodHandle@@PAVThread@@@Z 0802ae50 f   verifier.obj
 0001:0002c3a0       ?verify_class@ClassVerifier@@QAEXPAVThread@@@Z 0802d3a0 f   verifier.obj
 0001:0002c4d0       ?verify@Verifier@@SA_NVinstanceKlassHandle@@W4Mode@1@_NPAVThread@@@Z 0802d4d0 f   verifier.obj
 0001:0002c7b0       ?oops_do@vmSymbols@@SAXPAVOopClosure@@_N@Z 0802d7b0 f   vmSymbols.obj
 0001:0002c810       ?signature_type@vmSymbols@@SA?AW4BasicType@@PAVsymbolOopDesc@@@Z 0802d810 f   vmSymbols.obj
 0001:0002c840       ?find_id_impl@vmIntrinsics@@CA?AW4ID@1@W4SID@vmSymbols@@00F@Z 0802d840 f   vmSymbols.obj
 0001:0002ded0       ?new_symbol@oopFactory@@SAPAVsymbolOopDesc@@PBDPAVThread@@@Z 0802eed0 f i vmSymbols.obj
 0001:0002df30       ?initialize@vmSymbols@@SAXPAVThread@@@Z 0802ef30 f   vmSymbols.obj
 0001:0002e040       ?find_sid@vmSymbols@@SA?AW4SID@1@PAVsymbolOopDesc@@@Z 0802f040 f   vmSymbols.obj
 0001:0002e0f0       ?method_for@vmIntrinsics@@SAPAVmethodOopDesc@@W4ID@1@@Z 0802f0f0 f   vmSymbols.obj
 0001:0002e190       ?verify@CodeBlob@@UAEXXZ   0802f190 f   codeBlob.obj
 0001:0002e1b0       ?print_on@CodeBlob@@UBEXPAVoutputStream@@@Z 0802f1b0 f   codeBlob.obj
 0001:0002e1e0       ?print_value_on@CodeBlob@@UBEXPAVoutputStream@@@Z 0802f1e0 f   codeBlob.obj
 0001:0002e200       ?print_on@BufferBlob@@UBEXPAVoutputStream@@@Z 0802f200 f   codeBlob.obj
 0001:0002e240       ?print_value_on@DeoptimizationBlob@@UBEXPAVoutputStream@@@Z 0802f240 f   codeBlob.obj
 0001:0002e260       ?set_oop_maps@CodeBlob@@QAEXPAVOopMapSet@@@Z 0802f260 f   codeBlob.obj
 0001:0002e2d0       ?flush@CodeBlob@@QAEXXZ    0802f2d0 f   codeBlob.obj
 0001:0002e2f0       ?oop_map_for_return_address@CodeBlob@@QAEPAVOopMap@@PAE@Z 0802f2f0 f   codeBlob.obj
 0001:0002e310       ?print_value_on@BufferBlob@@UBEXPAVoutputStream@@@Z 0802f310 f   codeBlob.obj
 0001:0002e330       ?print_on@RuntimeStub@@UBEXPAVoutputStream@@@Z 0802f330 f   codeBlob.obj
 0001:0002e380       ?print_value_on@RuntimeStub@@UBEXPAVoutputStream@@@Z 0802f380 f   codeBlob.obj
 0001:0002e3b0       ?print_on@SingletonBlob@@UBEXPAVoutputStream@@@Z 0802f3b0 f   codeBlob.obj
 0001:0002e3f0       ?print_value_on@SingletonBlob@@UBEXPAVoutputStream@@@Z 0802f3f0 f   codeBlob.obj
 0001:0002e410       ?allocation_size@CodeBlob@@SAIPAVCodeBuffer@@H@Z 0802f410 f   codeBlob.obj
 0001:0002e480       ?preserve_callee_argument_oops@CodeBlob@@UAEXVframe@@PBVRegisterMap@@PAVOopClosure@@@Z 0802f480 f i codeBlob.obj
 0001:0002e4a0       ??0CodeBlob@@QAE@PBDPAVCodeBuffer@@HHHHPAVOopMapSet@@@Z 0802f4a0 f   codeBlob.obj
 0001:0002e550       ??0BufferBlob@@AAE@PBDH@Z  0802f550 f   codeBlob.obj
 0001:0002e5c0       ?create@BufferBlob@@SAPAV1@PBDH@Z 0802f5c0 f   codeBlob.obj
 0001:0002e680       ?free@BufferBlob@@SAXPAV1@@Z 0802f680 f   codeBlob.obj
 0001:0002e710       ?create@AdapterBlob@@SAPAV1@PAVCodeBuffer@@@Z 0802f710 f   codeBlob.obj
 0001:0002e7f0       ?caller_must_gc_arguments@RuntimeStub@@UBE_NPAVJavaThread@@@Z 0802f7f0 f i codeBlob.obj
 0001:0002e800       ?new_runtime_stub@RuntimeStub@@SAPAV1@PBDPAVCodeBuffer@@HHPAVOopMapSet@@_N@Z 0802f800 f   codeBlob.obj
 0001:0002e990       ?create@MethodHandlesAdapterBlob@@SAPAV1@H@Z 0802f990 f   codeBlob.obj
 0001:0002ea60       ?create@DeoptimizationBlob@@SAPAV1@PAVCodeBuffer@@PAVOopMapSet@@HHHH@Z 0802fa60 f   codeBlob.obj
 0001:0002ec00       ?preserve_callee_argument_oops@DeoptimizationBlob@@UAEXVframe@@PBVRegisterMap@@PAVOopClosure@@@Z 0802fc00 f i codeBlob.obj
 0001:0002ec00       ?preserve_callee_argument_oops@BufferBlob@@UAEXVframe@@PBVRegisterMap@@PAVOopClosure@@@Z 0802fc00 f i codeBlob.obj
 0001:0002ec00       ?preserve_callee_argument_oops@SafepointBlob@@UAEXVframe@@PBVRegisterMap@@PAVOopClosure@@@Z 0802fc00 f i codeBlob.obj
 0001:0002ec00       ?preserve_callee_argument_oops@RuntimeStub@@UAEXVframe@@PBVRegisterMap@@PAVOopClosure@@@Z 0802fc00 f i codeBlob.obj
 0001:0002ec10       ?create@SafepointBlob@@SAPAV1@PAVCodeBuffer@@PAVOopMapSet@@H@Z 0802fc10 f   codeBlob.obj
 0001:0002eda0       ?number_of_nmethods_with_dependencies@CodeCache@@SAHXZ 0802fda0 f   codeCache.obj
 0001:0002edb0       ?find_blob_unsafe@CodeCache@@SAPAVCodeBlob@@PAX@Z 0802fdb0 f i codeCache.obj
 0001:0002ede0       ?first@CodeCache@@SAPAVCodeBlob@@XZ 0802fde0 f   codeCache.obj
 0001:0002ee00       ?next@CodeCache@@SAPAVCodeBlob@@PAV2@@Z 0802fe00 f   codeCache.obj
 0001:0002ee30       ?alive@CodeCache@@SAPAVCodeBlob@@PAV2@@Z 0802fe30 f   codeCache.obj
 0001:0002ee80       ?alive_nmethod@CodeCache@@SAPAVnmethod@@PAVCodeBlob@@@Z 0802fe80 f   codeCache.obj
 0001:0002eed0       ?first_nmethod@CodeCache@@SAPAVnmethod@@XZ 0802fed0 f   codeCache.obj
 0001:0002ef30       ?next_nmethod@CodeCache@@SAPAVnmethod@@PAVCodeBlob@@@Z 0802ff30 f   codeCache.obj
 0001:0002efa0       ?free@CodeCache@@SAXPAVCodeBlob@@@Z 0802ffa0 f   codeCache.obj
 0001:0002f000       ?commit@CodeCache@@SAXPAVCodeBlob@@@Z 08030000 f   codeCache.obj
 0001:0002f060       ?contains@CodeCache@@SA_NPAX@Z 08030060 f   codeCache.obj
 0001:0002f090       ?find_blob@CodeCache@@SAPAVCodeBlob@@PAX@Z 08030090 f   codeCache.obj
 0001:0002f100       ?find_nmethod@CodeCache@@SAPAVnmethod@@PAX@Z 08030100 f   codeCache.obj
 0001:0002f110       ?blobs_do@CodeCache@@SAXP6AXPAVCodeBlob@@@Z@Z 08030110 f   codeCache.obj
 0001:0002f170       ?do_unloading@CodeCache@@SAXPAVBoolObjectClosure@@PAVOopClosure@@_N@Z 08030170 f   codeCache.obj
 0001:0002f1f0       ?blobs_do@CodeCache@@SAXPAVCodeBlobClosure@@@Z 080301f0 f   codeCache.obj
 0001:0002f260       ?scavenge_root_nmethods_do@CodeCache@@SAXPAVCodeBlobClosure@@@Z 08030260 f   codeCache.obj
 0001:0002f2b0       ?add_scavenge_root_nmethod@CodeCache@@SAXPAVnmethod@@@Z 080302b0 f   codeCache.obj
 0001:0002f2d0       ?drop_scavenge_root_nmethod@CodeCache@@SAXPAVnmethod@@@Z 080302d0 f   codeCache.obj
 0001:0002f330       ?prune_scavenge_root_nmethods@CodeCache@@SAXXZ 08030330 f   codeCache.obj
 0001:0002f390       ?remove_saved_code@CodeCache@@SAXPAVnmethod@@@Z 08030390 f   codeCache.obj
 0001:0002f440       ?gc_epilogue@CodeCache@@SAXXZ 08030440 f   codeCache.obj
 0001:0002f4d0       ?first_address@CodeCache@@SAPAEXZ 080304d0 f   codeCache.obj
 0001:0002f4e0       ?initialize@CodeCache@@SAXXZ 080304e0 f   codeCache.obj
 0001:0002f580       ?codeCache_init@@YAXXZ     08030580 f   codeCache.obj
 0001:0002f590       ?mark_all_nmethods_for_deoptimization@CodeCache@@SAXXZ 08030590 f   codeCache.obj
 0001:0002f620       ?make_marked_nmethods_zombies@CodeCache@@SAXXZ 08030620 f   codeCache.obj
 0001:0002f6b0       ?make_marked_nmethods_not_entrant@CodeCache@@SAXXZ 080306b0 f   codeCache.obj
 0001:0002f720       ?verify@CodeCache@@SAXXZ   08030720 f   codeCache.obj
 0001:0002f790       ?print_bounds@CodeCache@@SAXPAVoutputStream@@@Z 08030790 f   codeCache.obj
 0001:0002f820       ?allocate@CodeCache@@SAPAVCodeBlob@@H@Z 08030820 f   codeCache.obj
 0001:0002f890       ?mark_for_deoptimization@CodeCache@@SAHAAVDepChange@@@Z 08030890 f   codeCache.obj
 0001:0002f920       ?mark_for_deoptimization@CodeCache@@SAHPAVmethodOopDesc@@@Z 08030920 f   codeCache.obj
 0001:0002fa20       ?find_and_remove_saved_code@CodeCache@@SAPAVnmethod@@PAVmethodOopDesc@@@Z 08030a20 f   codeCache.obj
 0001:0002fb20       ?speculatively_disconnect@CodeCache@@SAXPAVnmethod@@@Z 08030b20 f   codeCache.obj
 0001:0002fbc0       ?mark_for_evol_deoptimization@CodeCache@@SAHVinstanceKlassHandle@@@Z 08030bc0 f   codeCache.obj
 0001:0002fd60       ?is_in_transition_state@CompiledIC@@ABE_NXZ 08030d60 f   compiledIC.obj
 0001:0002fd80       ?stub_address@CompiledIC@@ABEPAEXZ 08030d80 f   compiledIC.obj
 0001:0002fd90       ?value@CallRelocation@@UAEPAEXZ 08030d90 f i compiledIC.obj
 0001:0002fda0       ?set_value@CallRelocation@@UAEXPAE@Z 08030da0 f i compiledIC.obj
 0001:0002fdb0       ?opt_virtual_call_reloc@RelocIterator@@QAEPAVopt_virtual_call_Relocation@@XZ 08030db0 f i compiledIC.obj
 0001:0002fdd0       ?static_call_reloc@RelocIterator@@QAEPAVstatic_call_Relocation@@XZ 08030dd0 f i compiledIC.obj
 0001:0002fdf0       ??0RelocIterator@@QAE@PAVnmethod@@PAE1@Z 08030df0 f i compiledIC.obj
 0001:0002fe30       ?set_data@NativeMovConstReg@@QAEXH@Z 08030e30 f i compiledIC.obj
 0001:0002fe50       ?cached_oop@CompiledIC@@QBEPAVoopDesc@@XZ 08030e50 f   compiledIC.obj
 0001:0002fe90       ?set_ic_destination@CompiledIC@@AAEXPAE@Z 08030e90 f   compiledIC.obj
 0001:0002fed0       ?ic_destination@CompiledIC@@QBEPAEXZ 08030ed0 f   compiledIC.obj
 0001:0002ff00       ?is_megamorphic@CompiledIC@@QBE_NXZ 08030f00 f   compiledIC.obj
 0001:0002ff40       ?is_clean@CompiledIC@@QBE_NXZ 08030f40 f   compiledIC.obj
 0001:0002ff90       ?compute_monomorphic_entry@CompiledIC@@SAXVmethodHandle@@VKlassHandle@@_N2AAVCompiledICInfo@@PAVThread@@@Z 08030f90 f   compiledIC.obj
 0001:00030040       ??0CompiledIC@@AAE@PAVNativeCall@@@Z 08031040 f   compiledIC.obj
 0001:00030090       ??0CompiledIC@@AAE@PAVRelocation@@@Z 08031090 f   compiledIC.obj
 0001:000300f0       ?set_to_clean@CompiledStaticCall@@QAEXXZ 080310f0 f   compiledIC.obj
 0001:00030130       ?is_clean@CompiledStaticCall@@QBE_NXZ 08031130 f   compiledIC.obj
 0001:00030150       ?compute_entry@CompiledStaticCall@@SAXVmethodHandle@@AAVStaticCallInfo@@@Z 08031150 f   compiledIC.obj
 0001:00030190       ?set_stub_to_clean@CompiledStaticCall@@SAXPAVstatic_stub_Relocation@@@Z 08031190 f   compiledIC.obj
 0001:000301d0       ?find_stub@CompiledStaticCall@@QAEPAEXZ 080311d0 f   compiledIC.obj
 0001:000302c0       ?set_value@DataRelocation@@UAEXPAE@Z 080312c0 f i compiledIC.obj
 0001:00030300       ?value@oop_Relocation@@UAEPAEXZ 08031300 f i compiledIC.obj
 0001:00030310       ?oop_reloc@RelocIterator@@QAEPAVoop_Relocation@@XZ 08031310 f i compiledIC.obj
 0001:00030340       ?set_cached_oop@CompiledIC@@AAEXPAVoopDesc@@@Z 08031340 f   compiledIC.obj
 0001:00030420       ?set_to_megamorphic@CompiledIC@@QAEXPAVCallInfo@@W4Code@Bytecodes@@PAVThread@@@Z 08031420 f   compiledIC.obj
 0001:000304c0       ?set_to_clean@CompiledIC@@QAEXXZ 080314c0 f   compiledIC.obj
 0001:00030560       ?set_to_interpreted@CompiledStaticCall@@AAEXVmethodHandle@@PAE@Z 08031560 f   compiledIC.obj
 0001:000305c0       ?set@CompiledStaticCall@@QAEXABVStaticCallInfo@@@Z 080315c0 f   compiledIC.obj
 0001:00030610       ?set_to_monomorphic@CompiledIC@@QAEXABVCompiledICInfo@@@Z 08031610 f   compiledIC.obj
 0001:00030770       ?reverse_int@CompressedStream@@KAII@Z 08031770 f i compressedStream.obj
 0001:000307e0       ?grow@CompressedWriteStream@@AAEXXZ 080317e0 f   compressedStream.obj
 0001:00030820       ??0CompressedWriteStream@@QAE@H@Z 08031820 f   compressedStream.obj
 0001:00030860       ?read_int_mb@CompressedReadStream@@AAEHH@Z 08031860 f   compressedStream.obj
 0001:000308e0       ?write_int_mb@CompressedWriteStream@@AAEXH@Z 080318e0 f   compressedStream.obj
 0001:00030990       ?read_signed_int@CompressedReadStream@@QAEHXZ 08031990 f   compressedStream.obj
 0001:000309c0       ?read_double@CompressedReadStream@@QAENXZ 080319c0 f   compressedStream.obj
 0001:00030a40       ?read_long@CompressedReadStream@@QAE_JXZ 08031a40 f   compressedStream.obj
 0001:00030ab0       ?write_signed_int@CompressedWriteStream@@QAEXH@Z 08031ab0 f   compressedStream.obj
 0001:00030af0       ?write_double@CompressedWriteStream@@QAEXN@Z 08031af0 f   compressedStream.obj
 0001:00030b80       ?write_long@CompressedWriteStream@@QAEX_J@Z 08031b80 f   compressedStream.obj
 0001:00030bf0       ??0DebugInfoWriteStream@@QAE@PAVDebugInformationRecorder@@H@Z 08031bf0 f   debugInfo.obj
 0001:00030c10       ?write_on@ConstantOopReadValue@@UAEXPAVDebugInfoWriteStream@@@Z 08031c10 f   debugInfo.obj
 0001:00030c30       ?write_handle@DebugInfoWriteStream@@QAEXPAV_jobject@@@Z 08031c30 f   debugInfo.obj
 0001:00030c90       ?get_cached_object@DebugInfoReadStream@@QAEPAVScopeValue@@XZ 08031c90 f   debugInfo.obj
 0001:00030cf0       ??0LocationValue@@QAE@PAVDebugInfoReadStream@@@Z 08031cf0 f   debugInfo.obj
 0001:00030d20       ?write_on@LocationValue@@UAEXPAVDebugInfoWriteStream@@@Z 08031d20 f   debugInfo.obj
 0001:00030d60       ?write_on@ObjectValue@@UAEXPAVDebugInfoWriteStream@@@Z 08031d60 f   debugInfo.obj
 0001:00030e60       ??0ConstantIntValue@@QAE@PAVDebugInfoReadStream@@@Z 08031e60 f   debugInfo.obj
 0001:00030e80       ?write_on@ConstantIntValue@@UAEXPAVDebugInfoWriteStream@@@Z 08031e80 f   debugInfo.obj
 0001:00030ed0       ??0ConstantLongValue@@QAE@PAVDebugInfoReadStream@@@Z 08031ed0 f   debugInfo.obj
 0001:00030f00       ?write_on@ConstantLongValue@@UAEXPAVDebugInfoWriteStream@@@Z 08031f00 f   debugInfo.obj
 0001:00030f40       ??0ConstantDoubleValue@@QAE@PAVDebugInfoReadStream@@@Z 08031f40 f   debugInfo.obj
 0001:00030f60       ?write_on@ConstantDoubleValue@@UAEXPAVDebugInfoWriteStream@@@Z 08031f60 f   debugInfo.obj
 0001:00030fa0       ?write_on@ConstantOopWriteValue@@UAEXPAVDebugInfoWriteStream@@@Z 08031fa0 f   debugInfo.obj
 0001:00030ff0       ??0MonitorValue@@QAE@PAVScopeValue@@VLocation@@_N@Z 08031ff0 f   debugInfo.obj
 0001:00031020       ?write_on@MonitorValue@@QAEXPAVDebugInfoWriteStream@@@Z 08032020 f   debugInfo.obj
 0001:00031070       ??0ConstantOopReadValue@@QAE@PAVDebugInfoReadStream@@@Z 08032070 f   debugInfo.obj
 0001:000310d0       ??0ObjectValue@@QAE@H@Z    080320d0 f i debugInfo.obj
 0001:00031130       ?read_object@ObjectValue@@QAEXPAVDebugInfoReadStream@@@Z 08032130 f   debugInfo.obj
 0001:000311b0       ?read_object_value@DebugInfoReadStream@@QAEPAVScopeValue@@XZ 080321b0 f   debugInfo.obj
 0001:00031220       ?read_from@ScopeValue@@SAPAV1@PAVDebugInfoReadStream@@@Z 08032220 f   debugInfo.obj
 0001:00031340       ??0MonitorValue@@QAE@PAVDebugInfoReadStream@@@Z 08032340 f   debugInfo.obj
 0001:00031390       ?add_new_pc_offset@DebugInformationRecorder@@AAEXH@Z 08032390 f   debugInfoRec.obj
 0001:00031440       ?is_same_info@PcDesc@@QAE_NPBV1@@Z 08032440 f i debugInfoRec.obj
 0001:00031470       ??0DIR_Chunk@@AAE@HHPAVDebugInformationRecorder@@@Z 08032470 f i debugInfoRec.obj
 0001:000314c0       ?find_match@DIR_Chunk@@AAEPAV1@PAV?$GrowableArray@PAVDIR_Chunk@@@@HPAVDebugInformationRecorder@@@Z 080324c0 f i debugInfoRec.obj
 0001:00031550       ?add_safepoint@DebugInformationRecorder@@QAEXHPAVOopMap@@@Z 08032550 f   debugInfoRec.obj
 0001:00031580       ?add_non_safepoint@DebugInformationRecorder@@QAEXH@Z 08032580 f   debugInfoRec.obj
 0001:00031590       ?end_scopes@DebugInformationRecorder@@AAEXH_N@Z 08032590 f   debugInfoRec.obj
 0001:00031650       ?data_size@DebugInformationRecorder@@QAEHXZ 08032650 f   debugInfoRec.obj
 0001:00031660       ?pcs_size@DebugInformationRecorder@@QAEHXZ 08032660 f   debugInfoRec.obj
 0001:000316b0       ?copy_to@DebugInformationRecorder@@QAEXPAVnmethod@@@Z 080326b0 f   debugInfoRec.obj
 0001:000316e0       ??0DebugInformationRecorder@@QAE@PAVOopRecorder@@@Z 080326e0 f   debugInfoRec.obj
 0001:00031830       ?find_sharable_decode_offset@DebugInformationRecorder@@AAEHH@Z 08032830 f   debugInfoRec.obj
 0001:00031940       ?describe_scope@DebugInformationRecorder@@QAEXHPAVciMethod@@H_N11PAVDebugToken@@22@Z 08032940 f   debugInfoRec.obj
 0001:00031af0       ?serialize_monitor_values@DebugInformationRecorder@@AAEHPAV?$GrowableArray@PAVMonitorValue@@@@@Z 08032af0 f   debugInfoRec.obj
 0001:00031b80       ?serialize_scope_values@DebugInformationRecorder@@AAEHPAV?$GrowableArray@PAVScopeValue@@@@@Z 08032b80 f   debugInfoRec.obj
 0001:00031c10       ?create_scope_values@DebugInformationRecorder@@QAEPAVDebugToken@@PAV?$GrowableArray@PAVScopeValue@@@@@Z 08032c10 f   debugInfoRec.obj
 0001:00031c20       ?create_monitor_values@DebugInformationRecorder@@QAEPAVDebugToken@@PAV?$GrowableArray@PAVMonitorValue@@@@@Z 08032c20 f   debugInfoRec.obj
 0001:00031cf0       ?ignore_witness@ClassHierarchyWalker@@QAE_NPAVklassOopDesc@@@Z 08032cf0 f i dependencies.obj
 0001:00031d30       ?in_list@ClassHierarchyWalker@@SA_NPAVklassOopDesc@@PAPAV2@@Z 08032d30 f i dependencies.obj
 0001:00031d60       ?has_finalizable_subclass@Dependencies@@SA_NPAVciInstanceKlass@@@Z 08032d60 f   dependencies.obj
 0001:00031d70       ?next@DepStream@Dependencies@@QAE_NXZ 08032d70 f   dependencies.obj
 0001:00031e50       ?find_finalizable_subclass@Dependencies@@SAPAVKlass@@PAV2@@Z 08032e50 f   dependencies.obj
 0001:00031ea0       ?check_evol_method@Dependencies@@SAPAVklassOopDesc@@PAVmethodOopDesc@@@Z 08032ea0 f   dependencies.obj
 0001:00031ed0       ?check_leaf_type@Dependencies@@SAPAVklassOopDesc@@PAV2@@Z 08032ed0 f   dependencies.obj
 0001:00031f10       ?check_has_no_finalizable_subclasses@Dependencies@@SAPAVklassOopDesc@@PAV2@PAVDepChange@@@Z 08032f10 f   dependencies.obj
 0001:00031f40       ?initialize@Dependencies@@AAEXPAVciEnv@@@Z 08032f40 f   dependencies.obj
 0001:00032030       ?copy_to@Dependencies@@QAEXPAVnmethod@@@Z 08033030 f   dependencies.obj
 0001:00032090       ?sort_all_deps@Dependencies@@AAEXXZ 08033090 f   dependencies.obj
 0001:00032160       ?encode_content_bytes@Dependencies@@QAEXXZ 08033160 f   dependencies.obj
 0001:000323e0       ?write_dependency_to@Dependencies@@SAXPAVCompileLog@@W4DepType@1@HQAPAVciObject@@PAVklassOopDesc@@@Z 080333e0 f   dependencies.obj
 0001:00032530       ?write_dependency_to@Dependencies@@SAXPAVxmlStream@@W4DepType@1@HQAPAVoopDesc@@PAVklassOopDesc@@@Z 08033530 f   dependencies.obj
 0001:00032690       ?recorded_oop_at@DepStream@Dependencies@@AAEPAVoopDesc@@H@Z 08033690 f i dependencies.obj
 0001:000326d0       ?context_type@DepStream@Dependencies@@QAEPAVklassOopDesc@@XZ 080336d0 f   dependencies.obj
 0001:00032760       ?is_witness@ClassHierarchyWalker@@QAE_NPAVklassOopDesc@@@Z 08033760 f i dependencies.obj
 0001:000327d0       ?find_witness_in@ClassHierarchyWalker@@AAEPAVklassOopDesc@@AAVDepChange@@PAV2@_N@Z 080337d0 f   dependencies.obj
 0001:00032870       ?find_witness_anywhere@ClassHierarchyWalker@@AAEPAVklassOopDesc@@PAV2@_N1@Z 08033870 f   dependencies.obj
 0001:00032b20       ?log_dependency@Dependencies@@QAEXW4DepType@1@PAVciObject@@11@Z 08033b20 f i dependencies.obj
 0001:00032b80       ?argument@DepStream@Dependencies@@QAEPAVoopDesc@@H@Z 08033b80 f i dependencies.obj
 0001:00032b80       ?method_argument@DepStream@Dependencies@@QAEPAVmethodOopDesc@@H@Z 08033b80 f i dependencies.obj
 0001:00032b80       ?type_argument@DepStream@Dependencies@@QAEPAVklassOopDesc@@H@Z 08033b80 f i dependencies.obj
 0001:00032bc0       ?assert_common_1@Dependencies@@AAEXW4DepType@1@PAVciObject@@@Z 08033bc0 f   dependencies.obj
 0001:00032c50       ?assert_common_2@Dependencies@@AAEXW4DepType@1@PAVciKlass@@PAVciObject@@@Z 08033c50 f   dependencies.obj
 0001:00032d40       ?log_all_dependencies@Dependencies@@QAEXXZ 08033d40 f   dependencies.obj
 0001:00032e10       ?write_dependency_to@Dependencies@@SAXPAVCompileLog@@W4DepType@1@HQAPAVoopDesc@@PAVklassOopDesc@@@Z 08033e10 f   dependencies.obj
 0001:00032e90       ?log_dependency@DepStream@Dependencies@@QAEXPAVklassOopDesc@@@Z 08033e90 f   dependencies.obj
 0001:00032f80       ?find_witness_subtype@ClassHierarchyWalker@@QAEPAVklassOopDesc@@PAV2@PAVDepChange@@@Z 08033f80 f i dependencies.obj
 0001:00033200       ?check_abstract_with_unique_concrete_subtype@Dependencies@@SAPAVklassOopDesc@@PAV2@0PAVDepChange@@@Z 08034200 f   dependencies.obj
 0001:00033250       ?check_abstract_with_no_concrete_subtype@Dependencies@@SAPAVklassOopDesc@@PAV2@PAVDepChange@@@Z 08034250 f   dependencies.obj
 0001:00033280       ?check_concrete_with_no_concrete_subtype@Dependencies@@SAPAVklassOopDesc@@PAV2@PAVDepChange@@@Z 08034280 f   dependencies.obj
 0001:000332c0       ?check_abstract_with_exclusive_concrete_subtypes@Dependencies@@SAPAVklassOopDesc@@PAV2@00PAVDepChange@@@Z 080342c0 f   dependencies.obj
 0001:00033310       ?check_unique_concrete_method@Dependencies@@SAPAVklassOopDesc@@PAV2@PAVmethodOopDesc@@PAVDepChange@@@Z 08034310 f   dependencies.obj
 0001:00033390       ?find_unique_concrete_method@Dependencies@@SAPAVmethodOopDesc@@PAVklassOopDesc@@PAV2@@Z 08034390 f   dependencies.obj
 0001:00033420       ?check_exclusive_concrete_methods@Dependencies@@SAPAVklassOopDesc@@PAV2@PAVmethodOopDesc@@1PAVDepChange@@@Z 08034420 f   dependencies.obj
 0001:000334b0       ?check_dependency_impl@DepStream@Dependencies@@AAEPAVklassOopDesc@@PAVDepChange@@@Z 080344b0 f   dependencies.obj
 0001:00033620       ?spot_check_dependency_at@DepStream@Dependencies@@QAEPAVklassOopDesc@@AAVDepChange@@@Z 08034620 f   dependencies.obj
 0001:00033660       ?assert_evol_method@Dependencies@@QAEXPAVciMethod@@@Z 08034660 f   dependencies.obj
 0001:00033680       ?assert_leaf_type@Dependencies@@QAEXPAVciKlass@@@Z 08034680 f   dependencies.obj
 0001:000336c0       ?assert_unique_concrete_method@Dependencies@@QAEXPAVciKlass@@PAVciMethod@@@Z 080346c0 f   dependencies.obj
 0001:000336e0       ?assert_has_no_finalizable_subclasses@Dependencies@@QAEXPAVciKlass@@@Z 080346e0 f   dependencies.obj
 0001:00033700       ?next@ContextStream@DepChange@@QAE_NXZ 08034700 f   dependencies.obj
 0001:000337b0       ?initialize@DepChange@@AAEXXZ 080347b0 f   dependencies.obj
 0001:00033810       ??1DepChange@@QAE@XZ       08034810 f   dependencies.obj
 0001:00033870       ?set_size@ImplicitExceptionTable@@QAEXI@Z 08034870 f   exceptionHandlerTable.obj
 0001:000338a0       ?add_entry@ExceptionHandlerTable@@AAEXVHandlerTableEntry@@@Z 080348a0 f   exceptionHandlerTable.obj
 0001:00033920       ?subtable_for@ExceptionHandlerTable@@ABEPAVHandlerTableEntry@@H@Z 08034920 f   exceptionHandlerTable.obj
 0001:00033960       ??0ExceptionHandlerTable@@QAE@H@Z 08034960 f   exceptionHandlerTable.obj
 0001:000339b0       ??0ExceptionHandlerTable@@QAE@PBVnmethod@@@Z 080349b0 f   exceptionHandlerTable.obj
 0001:000339f0       ?add_subtable@ExceptionHandlerTable@@QAEXHPAV?$GrowableArray@H@@00@Z 080349f0 f   exceptionHandlerTable.obj
 0001:00033a70       ?copy_to@ExceptionHandlerTable@@QAEXPAVnmethod@@@Z 08034a70 f   exceptionHandlerTable.obj
 0001:00033aa0       ?entry_for@ExceptionHandlerTable@@QBEPAVHandlerTableEntry@@HHH@Z 08034aa0 f   exceptionHandlerTable.obj
 0001:00033ae0       ?print_subtable@ExceptionHandlerTable@@QBEXPAVHandlerTableEntry@@@Z 08034ae0 f   exceptionHandlerTable.obj
 0001:00033b40       ?print@ExceptionHandlerTable@@QBEXXZ 08034b40 f   exceptionHandlerTable.obj
 0001:00033ba0       ?append@ImplicitExceptionTable@@QAEXII@Z 08034ba0 f   exceptionHandlerTable.obj
 0001:00033c00       ?at@ImplicitExceptionTable@@QBEII@Z 08034c00 f   exceptionHandlerTable.obj
 0001:00033c40       ??0ImplicitExceptionTable@@QAE@PBVnmethod@@@Z 08034c40 f   exceptionHandlerTable.obj
 0001:00033c90       ?copy_to@ImplicitExceptionTable@@QAEXPAVnmethod@@@Z 08034c90 f   exceptionHandlerTable.obj
 0001:00033cd0       ?clear@ICStub@@QAEXXZ      08034cd0 f   icBuffer.obj
 0001:00033ce0       ?evaluate_at_safepoint@VM_Operation@@UBE_NXZ 08034ce0 f i icBuffer.obj
 0001:00033d10       ?evaluate_concurrently@VM_Operation@@UBE_NXZ 08034d10 f i icBuffer.obj
 0001:00033d40       ?CompiledIC_at@@YAPAVCompiledIC@@PAE@Z 08034d40 f i icBuffer.obj
 0001:00033d70       ?initialize@ICStubInterface@@UAEXPAVStub@@H@Z 08034d70 f i icBuffer.obj
 0001:00033d90       ?size@ICStubInterface@@UBEHPAVStub@@@Z 08034d90 f i icBuffer.obj
 0001:00033d90       ?size@InterpreterCodeletInterface@@UBEHPAVStub@@@Z 08034d90 f i templateInterpreter.obj
 0001:00033da0       ?code_end@InterpreterCodeletInterface@@UBEPAEPAVStub@@@Z 08034da0 f i templateInterpreter.obj
 0001:00033da0       ?code_end@ICStubInterface@@UBEPAEPAVStub@@@Z 08034da0 f i icBuffer.obj
 0001:00033db0       ?update_inline_caches@InlineCacheBuffer@@SAXXZ 08034db0 f   icBuffer.obj
 0001:00033de0       ?contains@InlineCacheBuffer@@SA_NPAE@Z 08034de0 f   icBuffer.obj
 0001:00033e10       ?is_empty@InlineCacheBuffer@@SA_NXZ 08034e10 f   icBuffer.obj
 0001:00033e30       ?ic_destination_for@InlineCacheBuffer@@SAPAEPAVCompiledIC@@@Z 08034e30 f   icBuffer.obj
 0001:00033e50       ?cached_oop_for@InlineCacheBuffer@@SAPAVoopDesc@@PAVCompiledIC@@@Z 08034e50 f   icBuffer.obj
 0001:00033e70       ?finalize@ICStub@@IAEXXZ   08034e70 f   icBuffer.obj
 0001:00033f20       ?initialize@InlineCacheBuffer@@SAXXZ 08034f20 f   icBuffer.obj
 0001:00033f90       ?new_ic_stub@InlineCacheBuffer@@CAPAVICStub@@XZ 08034f90 f   icBuffer.obj
 0001:00034040       ?InlineCacheBuffer_init@@YAXXZ 08035040 f   icBuffer.obj
 0001:00034050       ?create_transition_stub@InlineCacheBuffer@@SAXPAVCompiledIC@@PAVoopDesc@@PAE@Z 08035050 f   icBuffer.obj
 0001:000340b0       ?finalize@ICStubInterface@@UAEXPAVStub@@@Z 080350b0 f i icBuffer.obj
 0001:000340c0       ?legal_offset_in_bytes@Location@@SA_NH@Z 080350c0 f   location.obj
 0001:000340f0       ??0Location@@QAE@PAVDebugInfoReadStream@@@Z 080350f0 f   location.obj
 0001:00034120       ?write_on@Location@@QAEXPAVDebugInfoWriteStream@@@Z 08035120 f   location.obj
 0001:00034150       ?init_defaults@nmethod@@AAEXXZ 08035150 f   nmethod.obj
 0001:000341b0       ?do_oop_v@OopClosure@@UAEXPAPAVoopDesc@@@Z 080351b0 f i nmethod.obj
 0001:000341c0       ?do_oop_v@OopClosure@@UAEXPAI@Z 080351c0 f i nmethod.obj
 0001:000341d0       ?inc@Atomic@@SAXPCH@Z      080351d0 f i nmethod.obj
 0001:00034200       ??0Bytecode_member_ref@@IAE@VmethodHandle@@H@Z 08035200 f i nmethod.obj
 0001:00034260       ??0Bytecode_invoke@@QAE@VmethodHandle@@H@Z 08035260 f i nmethod.obj
 0001:00034260       ??0Bytecode_field@@QAE@VmethodHandle@@H@Z 08035260 f i nmethod.obj
 0001:00034290       ?is_compiled_by_c1@nmethod@@UBE_NXZ 08035290 f   nmethod.obj
 0001:000342b0       ?is_compiled_by_c2@nmethod@@UBE_NXZ 080352b0 f   nmethod.obj
 0001:000342d0       ?add_address_and_handler@ExceptionCache@@QAE_NPAE0@Z 080352d0 f   nmethod.obj
 0001:00034340       ?find_pc_desc@PcDescCache@@QAEPAVPcDesc@@H_N@Z 08035340 f   nmethod.obj
 0001:000343c0       ?remove_from_exception_cache@nmethod@@QAEXPAVExceptionCache@@@Z 080353c0 f   nmethod.obj
 0001:00034420       ?total_size@nmethod@@QBEHXZ 08035420 f   nmethod.obj
 0001:00034440       ?log_identity@nmethod@@QBEXPAVxmlStream@@@Z 08035440 f   nmethod.obj
 0001:000344e0       ?is_at_poll_return@nmethod@@QAE_NPAE@Z 080354e0 f   nmethod.obj
 0001:000345a0       ?clear_inline_caches@nmethod@@QAEXXZ 080355a0 f   nmethod.obj
 0001:00034600       ?mark_as_seen_on_stack@nmethod@@QAEXXZ 08035600 f   nmethod.obj
 0001:00034610       ?can_not_entrant_be_converted@nmethod@@QAE_NXZ 08035610 f   nmethod.obj
 0001:00034630       ?inc_decompile_count@nmethod@@AAEXXZ 08035630 f   nmethod.obj
 0001:00034670       ?flush@nmethod@@IAEXXZ     08035670 f   nmethod.obj
 0001:000346e0       ?flush_dependencies@nmethod@@QAEXPAVBoolObjectClosure@@@Z 080356e0 f   nmethod.obj
 0001:00034760       ?test_set_oops_do_mark@nmethod@@QAE_NXZ 08035760 f   nmethod.obj
 0001:000347f0       ?oops_do_marking_prologue@nmethod@@SAXXZ 080357f0 f   nmethod.obj
 0001:00034850       ?oops_do_marking_epilogue@nmethod@@SAXXZ 08035850 f   nmethod.obj
 0001:000348d0       ?do_oop@DetectScavengeRoot@@UAEXPAI@Z 080358d0 f i nmethod.obj
 0001:000348f0       ?do_oop@DetectScavengeRoot@@UAEXPAPAVoopDesc@@@Z 080358f0 f i nmethod.obj
 0001:00034920       ?copy_scopes_pcs@nmethod@@QAEXPAVPcDesc@@H@Z 08035920 f   nmethod.obj
 0001:000349d0       ?copy_scopes_data@nmethod@@QAEXPAEH@Z 080359d0 f   nmethod.obj
 0001:00034a00       ?find_pc_desc_internal@nmethod@@AAEPAVPcDesc@@PAE_N@Z 08035a00 f   nmethod.obj
 0001:00034b00       ?check_dependency_on@nmethod@@QAE_NAAVDepChange@@@Z 08035b00 f   nmethod.obj
 0001:00034b70       ?is_dependent_on_method@nmethod@@QAE_NPAVmethodOopDesc@@@Z 08035b70 f   nmethod.obj
 0001:00034be0       ?continuation_for_implicit_exception@nmethod@@QAEPAEPAE@Z 08035be0 f   nmethod.obj
 0001:00034c20       ?lock_nmethod@nmethodLocker@@CAXPAVnmethod@@@Z 08035c20 f   nmethod.obj
 0001:00034c80       ?unlock_nmethod@nmethodLocker@@CAXPAVnmethod@@@Z 08035c80 f   nmethod.obj
 0001:00034ce0       ?do_oop@VerifyOopsClosure@@UAEXPAI@Z 08035ce0 f i nmethod.obj
 0001:00034d00       ?java_code_at@methodOopDesc@@QBE?AW4Code@Bytecodes@@H@Z 08035d00 f i nmethod.obj
 0001:00034d40       ?is_compiledICHolder@oopDesc@@QBE_NXZ 08035d40 f i nmethod.obj
 0001:00034d50       ??0SimpleScopeDesc@@QAE@PAVnmethod@@PAE@Z 08035d50 f i nmethod.obj
 0001:00034e20       ?exception_cache_entry_for_exception@nmethod@@AAEPAVExceptionCache@@VHandle@@@Z 08035e20 f   nmethod.obj
 0001:00034e60       ?handler_for_exception_and_pc@nmethod@@QAEPAEVHandle@@PAE@Z 08035e60 f   nmethod.obj
 0001:00034ec0       ?add_handler_for_exception_and_pc@nmethod@@QAEXVHandle@@PAE1@Z 08035ec0 f   nmethod.obj
 0001:00034f60       ?print_compilation@nmethod@@SAXPAVoutputStream@@PBD1PAVmethodOopDesc@@_NHHH@Z 08035f60 f   nmethod.obj
 0001:00035120       ?print_on@nmethod@@QBEXPAVoutputStream@@PBD@Z 08036120 f   nmethod.obj
 0001:00035180       ?fix_oop_relocations@nmethod@@AAEXPAE0_N@Z 08036180 f   nmethod.obj
 0001:00035290       ?scope_desc_at@nmethod@@QAEPAVScopeDesc@@PAE@Z 08036290 f   nmethod.obj
 0001:00035330       ?cleanup_inline_caches@nmethod@@QAEXXZ 08036330 f   nmethod.obj
 0001:00035540       ?log_state_change@nmethod@@QBEXXZ 08036540 f   nmethod.obj
 0001:00035620       ?post_compiled_method_unload@nmethod@@AAEXXZ 08036620 f   nmethod.obj
 0001:00035680       ?oops_do@nmethod@@QAEXPAVOopClosure@@_N@Z 08036680 f   nmethod.obj
 0001:000357f0       ?embeddedOop_at@nmethod@@QAEPAVoopDesc@@PAE@Z 080367f0 f   nmethod.obj
 0001:000358d0       ?get_deopt_original_pc@nmethod@@SAPAEPBVframe@@@Z 080368d0 f   nmethod.obj
 0001:00035920       ?is_method_handle_return@nmethod@@QAE_NPAE@Z 08036920 f   nmethod.obj
 0001:00035970       ?verify_interrupt_point@nmethod@@QAEXPAE@Z 08036970 f   nmethod.obj
 0001:00035ab0       ?verify_scopes@nmethod@@QAEXXZ 08036ab0 f   nmethod.obj
 0001:00035ba0       ?print@nmethod@@QBEXXZ     08036ba0 f   nmethod.obj
 0001:00035ed0       ?print_code@nmethod@@QAEXXZ 08036ed0 f   nmethod.obj
 0001:00035f50       ?reloc_string_for@nmethod@@AAEPBDPAE0@Z 08036f50 f   nmethod.obj
 0001:00036180       ?scope_desc_in@nmethod@@AAEPAVScopeDesc@@PAE0@Z 08037180 f   nmethod.obj
 0001:00036210       ?print_code_comment_on@nmethod@@QAEXPAVoutputStream@@HPAE1@Z 08037210 f   nmethod.obj
 0001:000364b0       ?jmethod_id@methodOopDesc@@QAEPAU_jmethodID@@XZ 080374b0 f i nmethod.obj
 0001:000364e0       ??0nmethod@@AAE@PAVmethodOopDesc@@HPAVCodeOffsets@@PAVCodeBuffer@@HHHPAVOopMapSet@@@Z 080374e0 f   nmethod.obj
 0001:000366a0       ?is_alive@nmethod@@UBE_NXZ 080376a0 f i nmethod.obj
 0001:000366c0       ?is_not_entrant@nmethod@@UBE_NXZ 080376c0 f i nmethod.obj
 0001:000366d0       ?is_zombie@nmethod@@UBE_NXZ 080376d0 f i nmethod.obj
 0001:000366e0       ?is_unloaded@nmethod@@UBE_NXZ 080376e0 f i nmethod.obj
 0001:000366f0       ?is_locked_by_vm@nmethod@@UBE_NXZ 080376f0 f i nmethod.obj
 0001:00036700       ?print_on@nmethod@@UBEXPAVoutputStream@@@Z 08037700 f i nmethod.obj
 0001:00036710       ?log_new_nmethod@nmethod@@QBEXXZ 08037710 f   nmethod.obj
 0001:00036930       ?print_nmethod@nmethod@@QAEX_N@Z 08037930 f   nmethod.obj
 0001:000369c0       ?copy_oops@nmethod@@QAEXPAV?$GrowableArray@PAV_jobject@@@@@Z 080379c0 f   nmethod.obj
 0001:00036a20       ?make_unloaded@nmethod@@QAEXPAVBoolObjectClosure@@PAVoopDesc@@@Z 08037a20 f   nmethod.obj
 0001:00036ab0       ?make_not_entrant_or_zombie@nmethod@@AAE_NI@Z 08037ab0 f   nmethod.obj
 0001:00036c40       ?can_unload@nmethod@@QAE_NPAVBoolObjectClosure@@PAVOopClosure@@PAPAVoopDesc@@_N@Z 08037c40 f   nmethod.obj
 0001:00036cc0       ?get_and_cache_jmethod_id@nmethod@@QAEPAU_jmethodID@@XZ 08037cc0 f   nmethod.obj
 0001:00036d10       ?do_unloading@nmethod@@QAEXPAVBoolObjectClosure@@PAVOopClosure@@_N@Z 08037d10 f   nmethod.obj
 0001:00036f70       ?detect_scavenge_root_oops@nmethod@@QAE_NXZ 08037f70 f   nmethod.obj
 0001:00036fa0       ?preserve_callee_argument_oops@nmethod@@UAEXVframe@@PBVRegisterMap@@PAVOopClosure@@@Z 08037fa0 f   nmethod.obj
 0001:00037030       ?do_oop@VerifyOopsClosure@@UAEXPAPAVoopDesc@@@Z 08038030 f i nmethod.obj
 0001:00037090       ?verify@nmethod@@UAEXXZ    08038090 f   nmethod.obj
 0001:00037220       ?print_nmethod_labels@nmethod@@QAEXPAVoutputStream@@PAE@Z 08038220 f   nmethod.obj
 0001:000376c0       ?print_block_comment@nmethod@@UAEXPAVoutputStream@@PAE@Z 080386c0 f i nmethod.obj
 0001:000376d0       ?new_native_nmethod@nmethod@@SAPAV1@VmethodHandle@@PAVCodeBuffer@@HHHHHPAVOopMapSet@@@Z 080386d0 f   nmethod.obj
 0001:000377c0       ??0nmethod@@AAE@PAVmethodOopDesc@@HHHPAVCodeOffsets@@HPAVDebugInformationRecorder@@PAVDependencies@@PAVCodeBuffer@@HPAVOopMapSet@@PAVExceptionHandlerTable@@PAVImplicitExceptionTable@@PAVAbstractCompiler@@H@Z 080387c0 f   nmethod.obj
 0001:00037a80       ?post_compiled_method_load_event@nmethod@@QAEXXZ 08038a80 f   nmethod.obj
 0001:00037af0       ?new_nmethod@nmethod@@SAPAV1@VmethodHandle@@HHPAVCodeOffsets@@HPAVDebugInformationRecorder@@PAVDependencies@@PAVCodeBuffer@@HPAVOopMapSet@@PAVExceptionHandlerTable@@PAVImplicitExceptionTable@@PAVAbstractCompiler@@H@Z 08038af0 f   nmethod.obj
 0001:00037cb0       ?is_evol_dependent_on@nmethod@@QAE_NPAVklassOopDesc@@@Z 08038cb0 f   nmethod.obj
 0001:00037e50       ??0OopRecorder@@QAE@PAVArena@@@Z 08038e50 f   oopRecorder.obj
 0001:00037e70       ?oop_size@OopRecorder@@QAEHXZ 08038e70 f   oopRecorder.obj
 0001:00037e90       ?handle_at@OopRecorder@@QAEPAV_jobject@@H@Z 08038e90 f   oopRecorder.obj
 0001:00037eb0       ??0?$GrowableArray@H@@QAE@HHABH_N@Z 08038eb0 f i oopRecorder.obj
 0001:00037eb0       ??0?$GrowableArray@PAV_jobject@@@@QAE@HHABQAV_jobject@@_N@Z 08038eb0 f i oopRecorder.obj
 0001:00037eb0       ??0?$GrowableArray@VHandle@@@@QAE@HHABVHandle@@_N@Z 08038eb0 f i unsafe.obj
 0001:00037f20       ?maybe_initialize@OopRecorder@@AAEXXZ 08038f20 f   oopRecorder.obj
 0001:00037ff0       ?maybe_find_index@OopRecorder@@QAEHPAV_jobject@@@Z 08038ff0 f   oopRecorder.obj
 0001:000380f0       ?copy_to@OopRecorder@@QAEXPAVnmethod@@@Z 080390f0 f   oopRecorder.obj
 0001:00038110       ?add_handle@OopRecorder@@AAEHPAV_jobject@@_N@Z 08039110 f   oopRecorder.obj
 0001:00038270       ??0PcDesc@@QAE@HHH@Z       08039270 f   pcDesc.obj
 0001:000382a0       ?verify@PcDesc@@QAE_NPAVnmethod@@@Z 080392a0 f   pcDesc.obj
 0001:000382a0       ?do_object_b@AlwaysTrueClosure@@UAE_NPAVoopDesc@@@Z 080392a0 f   sharedHeap.obj
 0001:000382a0       ?oop_is_parsable@Klass@@UBE_NPAVoopDesc@@@Z 080392a0 f   universe.obj
 0001:000382a0       ?oop_is_conc_safe@Klass@@UBE_NPAVoopDesc@@@Z 080392a0 f   universe.obj
 0001:000382a0       ?do_object_b@AlwaysAliveClosure@@UAE_NPAVoopDesc@@@Z 080392a0 f   jniHandles.obj
 0001:000382a0       ?obj_is_alive@Space@@UBE_NPBVHeapWord@@@Z 080392a0 f   space.obj
 0001:000382a0       ?should_clear_reference@AlwaysClearPolicy@@UAE_NPAVoopDesc@@@Z 080392a0 f   referenceProcessor.obj
 0001:000382a0       ?do_object_b@PSAlwaysTrueClosure@@UAE_NPAVoopDesc@@@Z 080392a0 f   psMarkSweep.obj
 0001:000382b0       ?real_pc@PcDesc@@QBEPAEPBVnmethod@@@Z 080392b0 f   pcDesc.obj
 0001:000382d0       ?value@Relocation@@UAEPAEXZ 080392d0 f   relocInfo.obj
 0001:000382f0       ?set_value@Relocation@@UAEXPAE@Z 080392f0 f   relocInfo.obj
 0001:00038310       ?set_destination@CallRelocation@@QAEXPAE@Z 08039310 f   relocInfo.obj
 0001:00038320       ?clear_inline_cache@static_stub_Relocation@@UAEXXZ 08039320 f   relocInfo.obj
 0001:00038330       ?fix_relocation_after_move@external_word_Relocation@@UAEXPBVCodeBuffer@@PAV2@@Z 08039330 f   relocInfo.obj
 0001:00038340       ?pack_2_ints_to@Relocation@@IAEPAFPAFHH@Z 08039340 f i relocInfo.obj
 0001:000383b0       ?value@external_word_Relocation@@UAEPAEXZ 080393b0 f i relocInfo.obj
 0001:000383b0       ?value@internal_word_Relocation@@UAEPAEXZ 080393b0 f i relocInfo.obj
 0001:000383c0       ?type@breakpoint_Relocation@@EAE?AW4relocType@relocInfo@@XZ 080393c0 f i relocInfo.obj
 0001:000383d0       ?runtime_call_reloc@RelocIterator@@QAEPAVruntime_call_Relocation@@XZ 080393d0 f i relocInfo.obj
 0001:000383f0       ?type@poll_Relocation@@EAE?AW4relocType@relocInfo@@XZ 080393f0 f i relocInfo.obj
 0001:00038400       ?finish_prefix@relocInfo@@QAEPAV1@PAF@Z 08039400 f   relocInfo.obj
 0001:00038460       ?addr_in_const@RelocIterator@@QBE_NXZ 08039460 f   relocInfo.obj
 0001:00038480       ?advance_over_prefix@RelocIterator@@AAEXXZ 08039480 f   relocInfo.obj
 0001:000384d0       ?new_addr_for@Relocation@@IAEPAEPAEPBVCodeBuffer@@PAV2@@Z 080394d0 f   relocInfo.obj
 0001:00038540       ?fix_relocation_after_move@CallRelocation@@UAEXPBVCodeBuffer@@PAV2@@Z 08039540 f   relocInfo.obj
 0001:000385b0       ?pack_data_to@oop_Relocation@@UAEXPAVCodeSection@@@Z 080395b0 f   relocInfo.obj
 0001:000385d0       ?pack_data_to@virtual_call_Relocation@@UAEXPAVCodeSection@@@Z 080395d0 f   relocInfo.obj
 0001:00038670       ?pack_data_to@static_stub_Relocation@@UAEXPAVCodeSection@@@Z 08039670 f   relocInfo.obj
 0001:000386e0       ?pack_data_to@external_word_Relocation@@UAEXPAVCodeSection@@@Z 080396e0 f   relocInfo.obj
 0001:00038750       ?pack_data_to@internal_word_Relocation@@UAEXPAVCodeSection@@@Z 08039750 f   relocInfo.obj
 0001:000388e0       ?oop_addr@oop_Relocation@@QAEPAPAVoopDesc@@XZ 080398e0 f   relocInfo.obj
 0001:00038900       ?oop_value@oop_Relocation@@QAEPAVoopDesc@@XZ 08039900 f   relocInfo.obj
 0001:00038940       ?fix_oop_relocation@oop_Relocation@@QAEXXZ 08039940 f   relocInfo.obj
 0001:00038960       ?clear_inline_cache@static_call_Relocation@@UAEXXZ 08039960 f   relocInfo.obj
 0001:00038970       ?unpack_2_ints@Relocation@@IAEXAAH0@Z 08039970 f i relocInfo.obj
 0001:00038a00       ?poll_reloc@RelocIterator@@QAEPAVpoll_Relocation@@XZ 08039a00 f i relocInfo.obj
 0001:00038a20       ?poll_return_reloc@RelocIterator@@QAEPAVpoll_return_Relocation@@XZ 08039a20 f i relocInfo.obj
 0001:00038a40       ?initialize@relocInfo@@QAEXPAVCodeSection@@PAVRelocation@@@Z 08039a40 f   relocInfo.obj
 0001:00038a80       ?change_reloc_info_for_address@relocInfo@@SAXPAVRelocIterator@@PAEW4relocType@1@2@Z 08039a80 f   relocInfo.obj
 0001:00038b80       ?create_index@RelocIterator@@SAXPAVrelocInfo@@H0@Z 08039b80 f   relocInfo.obj
 0001:00038bb0       ?set_limits@RelocIterator@@AAEXPAE0@Z 08039bb0 f   relocInfo.obj
 0001:00038ca0       ?unpack_data@oop_Relocation@@UAEXXZ 08039ca0 f   relocInfo.obj
 0001:00038cb0       ?unpack_data@virtual_call_Relocation@@UAEXXZ 08039cb0 f   relocInfo.obj
 0001:00038d00       ?unpack_data@static_stub_Relocation@@UAEXXZ 08039d00 f   relocInfo.obj
 0001:00038d40       ?unpack_data@external_word_Relocation@@UAEXXZ 08039d40 f   relocInfo.obj
 0001:00038da0       ?unpack_data@internal_word_Relocation@@UAEXXZ 08039da0 f   relocInfo.obj
 0001:00038df0       ?unpack_data@section_word_Relocation@@UAEXXZ 08039df0 f   relocInfo.obj
 0001:00038e30       ?pack_data_to@breakpoint_Relocation@@UAEXPAVCodeSection@@@Z 08039e30 f   relocInfo.obj
 0001:00038f10       ?unpack_data@breakpoint_Relocation@@UAEXXZ 08039f10 f   relocInfo.obj
 0001:00038fd0       ?clear_inline_cache@virtual_call_Relocation@@UAEXXZ 08039fd0 f   relocInfo.obj
 0001:00038fd0       ?clear_inline_cache@opt_virtual_call_Relocation@@UAEXXZ 08039fd0 f   relocInfo.obj
 0001:00039040       ?fix_relocation_after_move@internal_word_Relocation@@UAEXPBVCodeBuffer@@PAV2@@Z 0803a040 f   relocInfo.obj
 0001:00039090       ?virtual_call_reloc@RelocIterator@@QAEPAVvirtual_call_Relocation@@XZ 0803a090 f i relocInfo.obj
 0001:00039100       ?static_stub_reloc@RelocIterator@@QAEPAVstatic_stub_Relocation@@XZ 0803a100 f i relocInfo.obj
 0001:00039160       ?external_word_reloc@RelocIterator@@QAEPAVexternal_word_Relocation@@XZ 0803a160 f i relocInfo.obj
 0001:00039190       ?internal_word_reloc@RelocIterator@@QAEPAVinternal_word_Relocation@@XZ 0803a190 f i relocInfo.obj
 0001:000391f0       ?breakpoint_reloc@RelocIterator@@QAEPAVbreakpoint_Relocation@@XZ 0803a1f0 f i relocInfo.obj
 0001:00039220       ?section_word_reloc@RelocIterator@@QAEPAVsection_word_Relocation@@XZ 0803a220 f i relocInfo.obj
 0001:00039280       ?initialize@RelocIterator@@AAEXPAVnmethod@@PAE1@Z 0803a280 f   relocInfo.obj
 0001:00039330       ??0RelocIterator@@QAE@PAVCodeSection@@PAE1@Z 0803a330 f   relocInfo.obj
 0001:000393c0       ?reloc@RelocIterator@@QAEPAVRelocation@@XZ 0803a3c0 f   relocInfo.obj
 0001:00039490       ?spec_simple@Relocation@@SA?AVRelocationHolder@@W4relocType@relocInfo@@@Z 0803a490 f   relocInfo.obj
 0001:00039530       ?parse_ic@virtual_call_Relocation@@SA?AVRelocIterator@@AAPAVnmethod@@AAPAE1AAPAPAVoopDesc@@PA_N@Z 0803a530 f   relocInfo.obj
 0001:000399f0       ?static_stub@static_call_Relocation@@QAEPAEXZ 0803a9f0 f   relocInfo.obj
 0001:000399f0       ?static_stub@opt_virtual_call_Relocation@@QAEPAEXZ 0803a9f0 f   relocInfo.obj
 0001:00039b30       ?is_top@ScopeDesc@@QBE_NXZ 0803ab30 f   scopeDesc.obj
 0001:00039b40       ?decode_object_values@ScopeDesc@@AAEPAV?$GrowableArray@PAVScopeValue@@@@H@Z 0803ab40 f   scopeDesc.obj
 0001:00039be0       ?decode_body@ScopeDesc@@AAEXXZ 0803abe0 f   scopeDesc.obj
 0001:00039d40       ??0ScopeDesc@@QAE@PBVnmethod@@HH_N1@Z 0803ad40 f   scopeDesc.obj
 0001:00039d80       ??0ScopeDesc@@QAE@PBVnmethod@@H_N1@Z 0803ad80 f   scopeDesc.obj
 0001:00039dc0       ?decode_scope_values@ScopeDesc@@AAEPAV?$GrowableArray@PAVScopeValue@@@@H@Z 0803adc0 f   scopeDesc.obj
 0001:00039e80       ?decode_monitor_values@ScopeDesc@@AAEPAV?$GrowableArray@PAVMonitorValue@@@@H@Z 0803ae80 f   scopeDesc.obj
 0001:00039f50       ?locals@ScopeDesc@@QAEPAV?$GrowableArray@PAVScopeValue@@@@XZ 0803af50 f   scopeDesc.obj
 0001:00039f60       ?expressions@ScopeDesc@@QAEPAV?$GrowableArray@PAVScopeValue@@@@XZ 0803af60 f   scopeDesc.obj
 0001:00039f70       ?monitors@ScopeDesc@@QAEPAV?$GrowableArray@PAVMonitorValue@@@@XZ 0803af70 f   scopeDesc.obj
 0001:00039f80       ?sender@ScopeDesc@@QBEPAV1@XZ 0803af80 f   scopeDesc.obj
 0001:00039fd0       ?verify@ScopeDesc@@QAEXXZ  0803afd0 f   scopeDesc.obj
 0001:0003a060       ?stub_containing@StubQueue@@QBEPAVStub@@PAE@Z 0803b060 f   stubs.obj
 0001:0003a0f0       ?request@StubQueue@@QAEPAVStub@@H@Z 0803b0f0 f   stubs.obj
 0001:0003a1a0       ?commit@StubQueue@@QAEXH@Z 0803b1a0 f   stubs.obj
 0001:0003a1f0       ?remove_first@StubQueue@@QAEXXZ 0803b1f0 f   stubs.obj
 0001:0003a260       ?remove_all@StubQueue@@QAEXXZ 0803b260 f   stubs.obj
 0001:0003a280       ?print@StubQueue@@QAEXXZ   0803b280 f   stubs.obj
 0001:0003a300       ??0StubQueue@@QAE@PAVStubInterface@@HPAVMutex@@PBD@Z 0803b300 f   stubs.obj
 0001:0003a3d0       ?request_committed@StubQueue@@QAEPAVStub@@H@Z 0803b3d0 f   stubs.obj
 0001:0003a400       ?print_on@VMRegImpl@@QBEXPAVoutputStream@@@Z 0803b400 f   vmreg.obj
 0001:0003a470       ?print_on@VtableStub@@QBEXPAVoutputStream@@@Z 0803b470 f   vtableStubs.obj
 0001:0003a4b0       ?stub_containing@VtableStubs@@SAPAVVtableStub@@PAE@Z 0803b4b0 f   vtableStubs.obj
 0001:0003a510       ??2VtableStub@@CAPAXIH@Z   0803b510 f   vtableStubs.obj
 0001:0003a630       ?lookup@VtableStubs@@CAPAVVtableStub@@_NH@Z 0803b630 f   vtableStubs.obj
 0001:0003a690       ?enter@VtableStubs@@CAX_NHPAVVtableStub@@@Z 0803b690 f   vtableStubs.obj
 0001:0003a6f0       ?is_entry_point@VtableStubs@@SA_NPAE@Z 0803b6f0 f   vtableStubs.obj
 0001:0003a760       ?contains@VtableStubs@@SA_NPAE@Z 0803b760 f   vtableStubs.obj
 0001:0003a780       ?vtableStubs_init@@YAXXZ   0803b780 f   vtableStubs.obj
 0001:0003a7b0       ?create_stub@VtableStubs@@SAPAE_NHPAVmethodOopDesc@@@Z 0803b7b0 f   vtableStubs.obj
 0001:0003a850       ?initialize_runtimes@AbstractCompiler@@IAEXP6AXXZPCH@Z 0803b850 f   abstractCompiler.obj
 0001:0003a920       ?should_compile_new_jobs@CompileBroker@@SA_NXZ 0803b920 f i compileBroker.obj
 0001:0003a940       ?set_should_block@CompileBroker@@SAXXZ 0803b940 f   compileBroker.obj
 0001:0003a950       ?handle_full_code_cache@CompileBroker@@SAXXZ 0803b950 f   compileBroker.obj
 0001:0003a9d0       ?create_constant@PerfDataManager@@SAPAVPerfLongConstant@@W4CounterNS@@PBDW4Units@PerfData@@_JPAVThread@@@Z 0803b9d0 f i compileBroker.obj
 0001:0003aa00       ?create_variable@PerfDataManager@@SAPAVPerfLongVariable@@W4CounterNS@@PBDW4Units@PerfData@@_JPAVThread@@@Z 0803ba00 f i compileBroker.obj
 0001:0003aa30       ?lookup_osr_nmethod_for@methodOopDesc@@QAEPAVnmethod@@HH_N@Z 0803ba30 f i compileBroker.obj
 0001:0003aa60       ?needs_flushing@CodeCache@@SA_NXZ 0803ba60 f i compileBroker.obj
 0001:0003aa90       ?initialize@CompileTask@@QAEXHVmethodHandle@@HH0HPBD_N@Z 0803ba90 f   compileBroker.obj
 0001:0003ab40       ?set_code@CompileTask@@QAEXPAVnmethod@@@Z 0803bb40 f   compileBroker.obj
 0001:0003aba0       ?free@CompileTask@@QAEXXZ  0803bba0 f   compileBroker.obj
 0001:0003abf0       ?print_line_on_error@CompileTask@@QAEXPAVoutputStream@@PADH@Z 0803bbf0 f   compileBroker.obj
 0001:0003ac80       ?get@CompileQueue@@QAEPAVCompileTask@@XZ 0803bc80 f   compileBroker.obj
 0001:0003ad90       ?compilation_is_complete@CompileBroker@@CA_NVmethodHandle@@HH@Z 0803bd90 f   compileBroker.obj
 0001:0003ae20       ?assign_compile_id@CompileBroker@@CAIVmethodHandle@@H@Z 0803be20 f   compileBroker.obj
 0001:0003ae60       ?allocate_task@CompileBroker@@CAPAVCompileTask@@XZ 0803be60 f   compileBroker.obj
 0001:0003af00       ?print_times@CompileBroker@@SAXXZ 0803bf00 f   compileBroker.obj
 0001:0003b0c0       ?print_line@CompileTask@@QAEXXZ 0803c0c0 f   compileBroker.obj
 0001:0003b170       ?log_task@CompileTask@@QAEXPAVxmlStream@@@Z 0803c170 f   compileBroker.obj
 0001:0003b270       ?log_task_queued@CompileTask@@QAEXXZ 0803c270 f   compileBroker.obj
 0001:0003b390       ?log_task_done@CompileTask@@QAEXPAVCompileLog@@@Z 0803c390 f   compileBroker.obj
 0001:0003b4c0       ??0CompilerCounters@@QAE@PBDHPAVThread@@@Z 0803c4c0 f   compileBroker.obj
 0001:0003b640       ?make_compiler_thread@CompileBroker@@CAPAVCompilerThread@@PBDPAVCompileQueue@@PAVCompilerCounters@@PAVThread@@@Z 0803c640 f   compileBroker.obj
 0001:0003b7e0       ?compilation_is_prohibited@CompileBroker@@CA_NVmethodHandle@@HH@Z 0803c7e0 f   compileBroker.obj
 0001:0003b910       ?wait_for_completion@CompileBroker@@CAXPAVCompileTask@@@Z 0803c910 f   compileBroker.obj
 0001:0003b9b0       ?init_compiler_thread_log@CompileBroker@@SAXXZ 0803c9b0 f   compileBroker.obj
 0001:0003bb40       ?set_last_compile@CompileBroker@@CAXPAVCompilerThread@@VmethodHandle@@_NH@Z 0803cb40 f   compileBroker.obj
 0001:0003bcc0       ?collect_statistics@CompileBroker@@CAXPAVCompilerThread@@VelapsedTimer@@PAVCompileTask@@@Z 0803ccc0 f   compileBroker.obj
 0001:0003c0a0       ??1CompileTaskWrapper@@QAE@XZ 0803d0a0 f   compileBroker.obj
 0001:0003c130       ?add@CompileQueue@@QAEXPAVCompileTask@@@Z 0803d130 f   compileBroker.obj
 0001:0003c1b0       ?init_compiler_threads@CompileBroker@@CAXHH@Z 0803d1b0 f   compileBroker.obj
 0001:0003c420       ?create_compile_task@CompileBroker@@CAPAVCompileTask@@PAVCompileQueue@@HVmethodHandle@@HH1HPBD_N@Z 0803d420 f   compileBroker.obj
 0001:0003c460       ?invoke_compiler_on_method@CompileBroker@@CAXPAVCompileTask@@@Z 0803d460 f   compileBroker.obj
 0001:0003c880       ?compilation_init@CompileBroker@@SAXXZ 0803d880 f   compileBroker.obj
 0001:0003cc20       ?compile_method_base@CompileBroker@@CAXVmethodHandle@@HH0HPBDPAVThread@@@Z 0803dc20 f   compileBroker.obj
 0001:0003cd60       ?compile_method@CompileBroker@@SAPAVnmethod@@VmethodHandle@@HH0HPBDPAVThread@@@Z 0803dd60 f   compileBroker.obj
 0001:0003cf40       ?compiler_thread_loop@CompileBroker@@SAXXZ 0803df40 f   compileBroker.obj
 0001:0003d220       ?name@CompileLog@@QAEXPAVciSymbol@@@Z 0803e220 f   compileLog.obj
 0001:0003d260       ?clear_identities@CompileLog@@QAEXXZ 0803e260 f   compileLog.obj
 0001:0003d270       ?print_raw_cr@outputStream@@QAEXPBD@Z 0803e270 f i compileLog.obj
 0001:0003d2a0       ??_GoutputStream@@UAEPAXI@Z 0803e2a0 f i compileLog.obj
 0001:0003d2a0       ??_EstaticBufferStream@@UAEPAXI@Z 0803e2a0 f i ostream.obj
 0001:0003d2a0       ??_GstringStream@@UAEPAXI@Z 0803e2a0 f i ostream.obj
 0001:0003d2a0       ??_GstaticBufferStream@@UAEPAXI@Z 0803e2a0 f i ostream.obj
 0001:0003d2a0       ??_EoutputStream@@UAEPAXI@Z 0803e2a0 f i compileLog.obj
 0001:0003d2a0       ??_EstringStream@@UAEPAXI@Z 0803e2a0 f i ostream.obj
 0001:0003d2a0       ??_GxmlTextStream@@UAEPAXI@Z 0803e2a0 f i compileLog.obj
 0001:0003d2a0       ??_ExmlTextStream@@UAEPAXI@Z 0803e2a0 f i compileLog.obj
 0001:0003d2d0       ??_EfileStream@@UAEPAXI@Z  0803e2d0 f i compileLog.obj
 0001:0003d2d0       ??_GfileStream@@UAEPAXI@Z  0803e2d0 f i compileLog.obj
 0001:0003d300       ?ReallocateHeap@@YAPADPADIPBD@Z 0803e300 f i compileLog.obj
 0001:0003d340       ??0CompileLog@@QAE@PBDPAU_iobuf@@H@Z 0803e340 f   compileLog.obj
 0001:0003d450       ?see_tag@CompileLog@@UAEXPBD_N@Z 0803e450 f   compileLog.obj
 0001:0003d4a0       ?pop_tag@CompileLog@@UAEXPBD@Z 0803e4a0 f   compileLog.obj
 0001:0003d4c0       ?identify@CompileLog@@QAEHPAVciObject@@@Z 0803e4c0 f   compileLog.obj
 0001:0003d840       ?finish_log_on_error@CompileLog@@SAXPAVoutputStream@@PADH@Z 0803e840 f   compileLog.obj
 0001:0003dac0       ?finish_log@CompileLog@@SAXPAVoutputStream@@@Z 0803eac0 f   compileLog.obj
 0001:0003daf0       ??_ExmlStream@@UAEPAXI@Z   0803eaf0 f i compileLog.obj
 0001:0003daf0       ??_GxmlStream@@UAEPAXI@Z   0803eaf0 f i compileLog.obj
 0001:0003db20       ??_ECompileLog@@UAEPAXI@Z  0803eb20 f i compileLog.obj
 0001:0003db20       ??_GCompileLog@@UAEPAXI@Z  0803eb20 f i compileLog.obj
 0001:0003dea0       ?parse_from_string@CompilerOracle@@SAXPBDP6AXPAD@Z@Z 0803eea0 f   compilerOracle.obj
 0001:0003df10       ?new_symbol_handle@oopFactory@@SA?AVsymbolHandle@@PBDPAVThread@@@Z 0803ef10 f i compilerOracle.obj
 0001:0003df10       ?new_symbol_handle@oopFactory@@SA?AVsymbolHandle@@PADPAVThread@@@Z 0803ef10 f i compilerOracle.obj
 0001:0003df50       ??0MethodMatcher@@QAE@VsymbolHandle@@W4Mode@0@010PAV0@@Z 0803ef50 f   compilerOracle.obj
 0001:0003dfd0       ?match@MethodMatcher@@KA_NVsymbolHandle@@0W4Mode@1@@Z 0803efd0 f   compilerOracle.obj
 0001:0003e220       ?parse_from_line@CompilerOracle@@SAXPAD@Z 0803f220 f   compilerOracle.obj
 0001:0003e580       ?parse_from_file@CompilerOracle@@SAXXZ 0803f580 f   compilerOracle.obj
 0001:0003e620       ?parse_compile_only@CompilerOracle@@SAXPAD@Z 0803f620 f   compilerOracle.obj
 0001:0003e990       ?find@MethodMatcher@@QAEPAV1@VmethodHandle@@@Z 0803f990 f i compilerOracle.obj
 0001:0003ea90       ?print@MethodMatcher@@UAEXXZ 0803fa90 f i compilerOracle.obj
 0001:0003eaa0       ?print_base@MethodMatcher@@QAEXXZ 0803faa0 f i compilerOracle.obj
 0001:0003eb50       ?print_symbol@MethodMatcher@@SAXVsymbolHandle@@W4Mode@1@@Z 0803fb50 f i compilerOracle.obj
 0001:0003ec00       ?match@MethodOptionMatcher@@QAE_NVmethodHandle@@PBD@Z 0803fc00 f i compilerOracle.obj
 0001:0003ec70       ?print@MethodOptionMatcher@@UAEXXZ 0803fc70 f i compilerOracle.obj
 0001:0003eca0       ?has_option_string@CompilerOracle@@SA_NVmethodHandle@@PBD@Z 0803fca0 f   compilerOracle.obj
 0001:0003ecd0       ?should_exclude@CompilerOracle@@SA_NVmethodHandle@@AA_N@Z 0803fcd0 f   compilerOracle.obj
 0001:0003ed20       ?should_print@CompilerOracle@@SA_NVmethodHandle@@@Z 0803fd20 f   compilerOracle.obj
 0001:0003ed50       ?should_log@CompilerOracle@@SA_NVmethodHandle@@@Z 0803fd50 f   compilerOracle.obj
 0001:0003ed90       ?should_break_at@CompilerOracle@@SA_NVmethodHandle@@@Z 0803fd90 f   compilerOracle.obj
 0001:0003edc0       ?compilerOracle_init@@YAXXZ 0803fdc0 f   compilerOracle.obj
 0001:0003ee30       ?match@decode_env@@CA_NPBD0@Z 0803fe30 f i disassembler.obj
 0001:0003ee90       ?collect_options@decode_env@@AAEXPBD@Z 0803fe90 f i disassembler.obj
 0001:0003ef40       ?bol@outputStream@@QAEXXZ  0803ff40 f i disassembler.obj
 0001:0003ef50       ?contains@StubRoutines@@SA_NPAE@Z 0803ff50 f i disassembler.obj
 0001:0003ef90       ?load_library@Disassembler@@CA_NXZ 0803ff90 f   disassembler.obj
 0001:0003f150       ?start_insn@decode_env@@QAEXPAE@Z 08040150 f i disassembler.obj
 0001:0003f1b0       ??0decode_env@@QAE@PAVCodeBlob@@PAVoutputStream@@@Z 080401b0 f   disassembler.obj
 0001:0003f320       ?print_insn_bytes@decode_env@@AAEXPAE0@Z 08040320 f   disassembler.obj
 0001:0003f4b0       ?end_insn@decode_env@@QAEXPAE@Z 080404b0 f i disassembler.obj
 0001:0003f560       ?print_address@decode_env@@AAEXPAE@Z 08040560 f   disassembler.obj
 0001:0003f710       ?handle_event@decode_env@@QAEPAEPBDPAE@Z 08040710 f   disassembler.obj
 0001:0003f800       ?decode_instructions@decode_env@@QAEPAEPAE0@Z 08040800 f   disassembler.obj
 0001:0003f8a0       ?decode@Disassembler@@SAXPAVCodeBlob@@PAVoutputStream@@@Z 080408a0 f   disassembler.obj
 0001:0003f900       ?decode@Disassembler@@SAXPAE0PAVoutputStream@@@Z 08040900 f   disassembler.obj
 0001:0003f960       ?decode@Disassembler@@SAXPAVnmethod@@PAVoutputStream@@@Z 08040960 f   disassembler.obj
 0001:0003fac0       ?at@BitMap@@QBE_NI@Z       08040ac0 f i methodLiveness.obj
 0001:0003faf0       ??0MethodLiveness@@QAE@PAVArena@@PAVciMethod@@@Z 08040af0 f   methodLiveness.obj
 0001:0003fb90       ?load_one@BasicBlock@MethodLiveness@@AAEXH@Z 08040b90 f   methodLiveness.obj
 0001:0003fbd0       ?store_one@BasicBlock@MethodLiveness@@AAEXH@Z 08040bd0 f   methodLiveness.obj
 0001:0003fc10       ?propagate@BasicBlock@MethodLiveness@@AAEXPAV2@@Z 08040c10 f   methodLiveness.obj
 0001:0003fd10       ??0?$GrowableArray@PAVBasicBlock@MethodLiveness@@@@QAE@PAVArena@@HHABQAVBasicBlock@MethodLiveness@@@Z 08040d10 f i methodLiveness.obj
 0001:0003fd10       ??0?$GrowableArray@PAVciField@@@@QAE@PAVArena@@HHABQAVciField@@@Z 08040d10 f i ciInstanceKlass.obj
 0001:0003fd10       ??0?$GrowableArray@PAV_jobject@@@@QAE@PAVArena@@HHABQAV_jobject@@@Z 08040d10 f i oopRecorder.obj
 0001:0003fd10       ??0?$GrowableArray@PAVciInstance@@@@QAE@PAVArena@@HHABQAVciInstance@@@Z 08040d10 f i ciObjectFactory.obj
 0001:0003fd10       ??0?$GrowableArray@PAVciType@@@@QAE@PAVArena@@HHABQAVciType@@@Z 08040d10 f i ciSignature.obj
 0001:0003fd10       ??0?$GrowableArray@PAVciObject@@@@QAE@PAVArena@@HHABQAVciObject@@@Z 08040d10 f i ciObjectFactory.obj
 0001:0003fd10       ??0?$GrowableArray@PAVciMethod@@@@QAE@PAVArena@@HHABQAVciMethod@@@Z 08040d10 f i ciObjectFactory.obj
 0001:0003fd10       ??0?$GrowableArray@PAX@@QAE@PAVArena@@HHABQAX@Z 08040d10 f i ciConstantPoolCache.obj
 0001:0003fd10       ??0?$GrowableArray@H@@QAE@PAVArena@@HHABH@Z 08040d10 f i codeBuffer.obj
 0001:0003fd10       ??0?$GrowableArray@PAVciBlock@@@@QAE@PAVArena@@HHABQAVciBlock@@@Z 08040d10 f i ciMethodBlocks.obj
 0001:0003fd10       ??0?$GrowableArray@PAVciReturnAddress@@@@QAE@PAVArena@@HHABQAVciReturnAddress@@@Z 08040d10 f i ciObjectFactory.obj
 0001:0003fd10       ??0?$GrowableArray@PAVciKlass@@@@QAE@PAVArena@@HHABQAVciKlass@@@Z 08040d10 f i ciObjectFactory.obj
 0001:0003fd80       ?propagate_liveness@MethodLiveness@@AAEXXZ 08040d80 f   methodLiveness.obj
 0001:0003fdd0       ??0BasicBlock@MethodLiveness@@AAE@PAV1@HH@Z 08040dd0 f   methodLiveness.obj
 0001:000400d0       ?load_two@BasicBlock@MethodLiveness@@AAEXH@Z 080410d0 f   methodLiveness.obj
 0001:00040130       ?store_two@BasicBlock@MethodLiveness@@AAEXH@Z 08041130 f   methodLiveness.obj
 0001:00040190       ?append_if_missing@?$GrowableArray@PAVBasicBlock@MethodLiveness@@@@QAEXABQAVBasicBlock@MethodLiveness@@@Z 08041190 f i methodLiveness.obj
 0001:000401e0       ?get_index@ciBytecodeStream@@QBEHXZ 080411e0 f i methodLiveness.obj
 0001:00040250       ?init_basic_blocks@MethodLiveness@@AAEXXZ 08041250 f   methodLiveness.obj
 0001:00040b10       ?compute_gen_kill_single@BasicBlock@MethodLiveness@@AAEXPAVciBytecodeStream@@@Z 08041b10 f   methodLiveness.obj
 0001:00040de0       ?compute_gen_kill_range@BasicBlock@MethodLiveness@@AAEXPAVciBytecodeStream@@@Z 08041de0 f   methodLiveness.obj
 0001:00040e70       ?get_liveness_at@BasicBlock@MethodLiveness@@AAE?AVMethodLivenessResult@@PAVciMethod@@H@Z 08041e70 f   methodLiveness.obj
 0001:00040f80       ?get_liveness_at@MethodLiveness@@QAE?AVMethodLivenessResult@@H@Z 08041f80 f   methodLiveness.obj
 0001:00041040       ?init_gen_kill@MethodLiveness@@AAEXXZ 08042040 f   methodLiveness.obj
 0001:000410f0       ?compute_liveness@MethodLiveness@@QAEXXZ 080420f0 f   methodLiveness.obj
 0001:00041250       ?set_location@RegisterMap@@QAEXPAVVMRegImpl@@PAE@Z 08042250 f i oopMap.obj
 0001:000412b0       ??0OopMap@@QAE@HH@Z        080422b0 f   oopMap.obj
 0001:000412f0       ??0OopMapSet@@QAE@XZ       080422f0 f   oopMap.obj
 0001:00041320       ?grow_om_data@OopMapSet@@AAEXXZ 08042320 f   oopMap.obj
 0001:00041370       ?copy_to@OopMapSet@@QAEXPAE@Z 08042370 f   oopMap.obj
 0001:00041460       ?add_gc_map@OopMapSet@@QAEXHPAVOopMap@@@Z 08042460 f   oopMap.obj
 0001:00041490       ?heap_size@OopMapSet@@QBEHXZ 08042490 f   oopMap.obj
 0001:000414d0       ?find_map_at_offset@OopMapSet@@QBEPAVOopMap@@H@Z 080424d0 f   oopMap.obj
 0001:00041520       ?write_on@OopMapValue@@QAEXPAVCompressedWriteStream@@@Z 08042520 f i oopMap.obj
 0001:000415a0       ??0OopMapStream@@QAE@PAVOopMap@@@Z 080425a0 f   oopMap.obj
 0001:00041610       ??0OopMapStream@@QAE@PAVOopMap@@H@Z 08042610 f   oopMap.obj
 0001:00041680       ?find_next@OopMapStream@@AAEXXZ 08042680 f   oopMap.obj
 0001:00041720       ?set_oop@OopMap@@QAEXPAVVMRegImpl@@@Z 08042720 f   oopMap.obj
 0001:00041750       ?set_callee_saved@OopMap@@QAEXPAVVMRegImpl@@0@Z 08042750 f   oopMap.obj
 0001:00041780       ??0OopMap@@AAE@W4DeepCopyToken@0@PAV0@@Z 08042780 f   oopMap.obj
 0001:00041820       ?deep_copy@OopMap@@QAEPAV1@XZ 08042820 f   oopMap.obj
 0001:00041850       ?all_do@OopMapSet@@SAXPBVframe@@PBVRegisterMap@@PAVOopClosure@@P6AXPAPAVoopDesc@@3@Z2@Z 08042850 f   oopMap.obj
 0001:000419d0       ?update_register_map@OopMapSet@@SAXPBVframe@@PAVRegisterMap@@@Z 080429d0 f   oopMap.obj
 0001:00041b00       ?print_on@OopMap@@QBEXPAVoutputStream@@@Z 08042b00 f   oopMap.obj
 0001:00041ba0       ?print_on@OopMapSet@@QBEXPAVoutputStream@@@Z 08042ba0 f   oopMap.obj
 0001:00041c00       ?oops_do@OopMapSet@@SAXPBVframe@@PBVRegisterMap@@PAVOopClosure@@@Z 08042c00 f   oopMap.obj
 0001:00041c30       ?allocate_new_tlab@CollectedHeap@@MAEPAVHeapWord@@I@Z 08042c30 f   collectedHeap.obj
 0001:00041c60       ?accumulate_statistics_all_tlabs@CollectedHeap@@MAEXXZ 08042c60 f   collectedHeap.obj
 0001:00041c70       ?resize_all_tlabs@CollectedHeap@@MAEXXZ 08042c70 f   collectedHeap.obj
 0001:00041c80       ?flush_deferred_store_barrier@CollectedHeap@@UAEXPAVJavaThread@@@Z 08042c80 f   collectedHeap.obj
 0001:00041cd0       ?ensure_parsability@CollectedHeap@@UAEX_N@Z 08042cd0 f   collectedHeap.obj
 0001:00041d10       ?pre_full_gc_dump@CollectedHeap@@QAEXXZ 08042d10 f   collectedHeap.obj
 0001:00041de0       ?post_full_gc_dump@CollectedHeap@@QAEXXZ 08042de0 f   collectedHeap.obj
 0001:00041eb0       ?new_store_pre_barrier@CollectedHeap@@UAEPAVoopDesc@@PAVJavaThread@@PAV2@@Z 08042eb0 f   collectedHeap.obj
 0001:00041f40       ?max_array_length@arrayOopDesc@@SAHW4BasicType@@@Z 08042f40 f i collectedHeap.obj
 0001:00041f90       ?compute_size@ThreadLocalAllocBuffer@@QAEII@Z 08042f90 f i collectedHeap.obj
 0001:00042030       ?allocate_from_tlab_slow@CollectedHeap@@KAPAVHeapWord@@PAVThread@@I@Z 08043030 f   collectedHeap.obj
 0001:000420e0       ??0CollectedHeap@@IAE@XZ   080430e0 f   collectedHeap.obj
 0001:000421f0       ?is_in_closed_subset@CollectedHeap@@UBE_NPBX@Z 080431f0 f i collectedHeap.obj
 0001:00042220       ?set_par_threads@CollectedHeap@@UAEXH@Z 08043220 f i collectedHeap.obj
 0001:00042230       ?preload_and_dump@CollectedHeap@@UAEXPAVThread@@@Z 08043230 f i collectedHeap.obj
 0001:00042250       ?top_addr@CollectedHeap@@UBEPAPAVHeapWord@@XZ 08043250 f i collectedHeap.obj
 0001:00042270       ?end_addr@CollectedHeap@@UBEPAPAVHeapWord@@XZ 08043270 f i collectedHeap.obj
 0001:00042290       ?tlab_capacity@CollectedHeap@@UBEIPAVThread@@@Z 08043290 f i collectedHeap.obj
 0001:000422c0       ?unsafe_max_tlab_alloc@CollectedHeap@@UBEIPAVThread@@@Z 080432c0 f i collectedHeap.obj
 0001:000422f0       ?post_allocation_setup_common@CollectedHeap@@KAXVKlassHandle@@PAVHeapWord@@I@Z 080432f0 f i collectedHeap.obj
 0001:00042350       ?fill_with_object_impl@CollectedHeap@@KAXPAVHeapWord@@I_N@Z 08043350 f i collectedHeap.obj
 0001:000423c0       ?fill_with_object@CollectedHeap@@SAXPAVHeapWord@@I_N@Z 080433c0 f   collectedHeap.obj
 0001:000423c0       ?fill_with_objects@CollectedHeap@@SAXPAVHeapWord@@I_N@Z 080433c0 f   collectedHeap.obj
 0001:00042400       ?to_string@GCCause@@SAPBDW4Cause@1@@Z 08043400 f   gcCause.obj
 0001:00042510       ??0ResultTypeFinder@@QAE@VsymbolHandle@@@Z 08043510 f i bytecode.obj
 0001:00042540       ?set@ResultTypeFinder@@EAEXHW4BasicType@@@Z 08043540 f i bytecode.obj
 0001:00042550       ?dest_offset_at@Bytecode_tableswitch@@QBEHH@Z 08043550 f   bytecode.obj
 0001:00042570       ?index@Bytecode_member_ref@@QBEHXZ 08043570 f   bytecode.obj
 0001:00042590       ?signature@Bytecode_member_ref@@QBEPAVsymbolOopDesc@@XZ 08043590 f   bytecode.obj
 0001:000425c0       ?name@Bytecode_member_ref@@QBEPAVsymbolOopDesc@@XZ 080435c0 f   bytecode.obj
 0001:000425f0       ?result_type@Bytecode_member_ref@@QBE?AW4BasicType@@PAVThread@@@Z 080435f0 f   bytecode.obj
 0001:00042680       ?static_target@Bytecode_invoke@@QAE?AVmethodHandle@@PAVThread@@@Z 08043680 f   bytecode.obj
 0001:00042770       ?pool_index@Bytecode_loadconstant@@QBEHXZ 08043770 f   bytecode.obj
 0001:000427e0       ?resolve_constant@Bytecode_loadconstant@@QBEPAVoopDesc@@PAVThread@@@Z 080437e0 f   bytecode.obj
 0001:00042880       ?result_type@Bytecode_loadconstant@@QBE?AW4BasicType@@XZ 08043880 f   bytecode.obj
 0001:000428b0       ?non_breakpoint_code_at@Bytecodes@@SA?AW4Code@1@PBVmethodOopDesc@@PAE@Z 080438b0 f   bytecodes.obj
 0001:000428d0       ?compute_flags@Bytecodes@@SAHPBDH@Z 080438d0 f   bytecodes.obj
 0001:00042bb0       ?def@Bytecodes@@CAXW4Code@1@PBD11W4BasicType@@H_N0@Z 08043bb0 f   bytecodes.obj
 0001:00042c70       ?special_length_at@Bytecodes@@SAHW4Code@1@PAE1@Z 08043c70 f   bytecodes.obj
 0001:00042e20       ?raw_special_length_at@Bytecodes@@SAHPAE0@Z 08043e20 f   bytecodes.obj
 0001:00042e50       ?initialize@Bytecodes@@SAXXZ 08043e50 f   bytecodes.obj
 0001:000454b0       ?bytecodes_init@@YAXXZ     080464b0 f   bytecodes.obj
 0001:000454c0       ?raw_next_special@RawBytecodeStream@@QAE?AW4Code@Bytecodes@@W423@@Z 080464c0 f   bytecodeStream.obj
 0001:00045540       ??0AbstractInterpreterGenerator@@QAE@PAVStubQueue@@@Z 08046540 f   interpreter.obj
 0001:00045550       ?bytecode_should_reexecute@AbstractInterpreter@@SA_NW4Code@Bytecodes@@@Z 08046550 f   interpreter.obj
 0001:00045620       ?bang_stack_shadow_pages@AbstractInterpreterGenerator@@IAEX_N@Z 08046620 f   interpreter.obj
 0001:00045670       ?as_TosState@@YA?AW4TosState@@W4BasicType@@@Z 08046670 f i interpreter.obj
 0001:00045700       ?bang_stack_with_offset@MacroAssembler@@UAEXH@Z 08046700 f i interpreter.obj
 0001:00045750       ??0Address@@QAE@PAVRegisterImpl@@H@Z 08046750 f i interpreter.obj
 0001:00045790       ?length_at@Bytecodes@@SAHPAVmethodOopDesc@@PAE@Z 08046790 f i interpreter.obj
 0001:000457d0       ?print_on@InterpreterCodelet@@QBEXPAVoutputStream@@@Z 080467d0 f   interpreter.obj
 0001:00045870       ?initialize@AbstractInterpreter@@SAXXZ 08046870 f   interpreter.obj
 0001:00045890       ?print@AbstractInterpreter@@SAXXZ 08046890 f   interpreter.obj
 0001:00045a00       ?interpreter_init@@YAXXZ   08046a00 f   interpreter.obj
 0001:00045a50       ?method_kind@AbstractInterpreter@@SA?AW4MethodKind@1@VmethodHandle@@@Z 08046a50 f   interpreter.obj
 0001:00045b60       ?set_parameter_size@ConstantPoolCacheEntry@@QAEXH@Z 08046b60 f i interpreter.obj
 0001:00045be0       ??0CodeletMark@@QAE@AAPAVInterpreterMacroAssembler@@PBDW4Code@Bytecodes@@@Z 08046be0 f i interpreter.obj
 0001:00045cd0       ??1CodeletMark@@QAE@XZ     08046cd0 f i interpreter.obj
 0001:00045d50       ??0Bytecode_loadconstant@@QAE@VmethodHandle@@H@Z 08046d50 f i interpreter.obj
 0001:00045da0       ?generate_all@AbstractInterpreterGenerator@@IAEXXZ 08046da0 f   interpreter.obj
 0001:00045de0       ?deopt_continue_after_entry@AbstractInterpreter@@SAPAEPAVmethodOopDesc@@PAEH_N@Z 08046de0 f   interpreter.obj
 0001:00046120       ?deopt_reexecute_entry@AbstractInterpreter@@SAPAEPAVmethodOopDesc@@PAE@Z 08047120 f   interpreter.obj
 0001:00046160       ?find@?$GrowableArray@_K@@QBEHAB_K@Z 08047160 f i interpreterRuntime.obj
 0001:000461a0       ?contains@TemplateInterpreter@@SA_NPAE@Z 080471a0 f i interpreterRuntime.obj
 0001:000461d0       ?fingerprint@Fingerprinter@@QAE_KXZ 080471d0 f i interpreterRuntime.obj
 0001:000462e0       ?transition@ThreadStateTransition@@SAXPAVJavaThread@@W4JavaThreadState@@1@Z 080472e0 f i interpreterRuntime.obj
 0001:00046350       ??1ThreadInVMfromJava@@QAE@XZ 08047350 f i interpreterRuntime.obj
 0001:00046380       ??1ThreadInVMfromJavaNoAsyncException@@QAE@XZ 08047380 f i interpreterRuntime.obj
 0001:000463b0       ?to_jfieldID@jfieldIDWorkaround@@SAPAU_jfieldID@@VinstanceKlassHandle@@H_N@Z 080473b0 f i interpreterRuntime.obj
 0001:000463f0       ?newarray@InterpreterRuntime@@SAXPAVJavaThread@@W4BasicType@@H@Z 080473f0 f   interpreterRuntime.obj
 0001:00046480       ?register_finalizer@InterpreterRuntime@@SAXPAVJavaThread@@PAVoopDesc@@@Z 08047480 f   interpreterRuntime.obj
 0001:00046550       ?throw_StackOverflowError@InterpreterRuntime@@SAXPAVJavaThread@@@Z 08047550 f   interpreterRuntime.obj
 0001:00046610       ?throw_pending_exception@InterpreterRuntime@@SAXPAVJavaThread@@@Z 08047610 f   interpreterRuntime.obj
 0001:00046680       ?throw_AbstractMethodError@InterpreterRuntime@@SAXPAVJavaThread@@@Z 08047680 f   interpreterRuntime.obj
 0001:00046710       ?throw_IncompatibleClassChangeError@InterpreterRuntime@@SAXPAVJavaThread@@@Z 08047710 f   interpreterRuntime.obj
 0001:000467a0       ?monitorenter@InterpreterRuntime@@SAXPAVJavaThread@@PAVBasicObjectLock@@@Z 080477a0 f   interpreterRuntime.obj
 0001:000468a0       ?monitorexit@InterpreterRuntime@@SAXPAVJavaThread@@PAVBasicObjectLock@@@Z 080478a0 f   interpreterRuntime.obj
 0001:00046990       ?throw_illegal_monitor_state_exception@InterpreterRuntime@@SAXPAVJavaThread@@@Z 08047990 f   interpreterRuntime.obj
 0001:00046a20       ?get_original_bytecode_at@InterpreterRuntime@@SA?AW4Code@Bytecodes@@PAVJavaThread@@PAVmethodOopDesc@@PAE@Z 08047a20 f   interpreterRuntime.obj
 0001:00046ab0       ?set_original_bytecode_at@InterpreterRuntime@@SAXPAVJavaThread@@PAVmethodOopDesc@@PAEW4Code@Bytecodes@@@Z 08047ab0 f   interpreterRuntime.obj
 0001:00046b30       ?_breakpoint@InterpreterRuntime@@SAXPAVJavaThread@@PAVmethodOopDesc@@PAE@Z 08047b30 f   interpreterRuntime.obj
 0001:00046bb0       ?bcp_to_di@InterpreterRuntime@@SAHPAVmethodOopDesc@@PAE@Z 08047bb0 f   interpreterRuntime.obj
 0001:00046bf0       ?interpreter_contains@InterpreterRuntime@@SAHPAE@Z 08047bf0 f   interpreterRuntime.obj
 0001:00046c30       ?set_handler@SignatureHandlerLibrary@@CAPAEPAVCodeBuffer@@@Z 08047c30 f   interpreterRuntime.obj
 0001:00046cd0       ??0?$GrowableArray@_K@@QAE@H_N@Z 08047cd0 f i interpreterRuntime.obj
 0001:00046d30       ?grow@?$GrowableArray@_K@@AAEXH@Z 08047d30 f i interpreterRuntime.obj
 0001:00046de0       ?klass_at@constantPoolOopDesc@@QAEPAVklassOopDesc@@HPAVThread@@@Z 08047de0 f i interpreterRuntime.obj
 0001:00046e10       ??0Fingerprinter@@QAE@VmethodHandle@@@Z 08047e10 f i interpreterRuntime.obj
 0001:00046e50       ?do_bool@Fingerprinter@@UAEXXZ 08047e50 f i interpreterRuntime.obj
 0001:00046e80       ?do_char@Fingerprinter@@UAEXXZ 08047e80 f i interpreterRuntime.obj
 0001:00046eb0       ?do_byte@Fingerprinter@@UAEXXZ 08047eb0 f i interpreterRuntime.obj
 0001:00046ee0       ?do_short@Fingerprinter@@UAEXXZ 08047ee0 f i interpreterRuntime.obj
 0001:00046f10       ?do_int@Fingerprinter@@UAEXXZ 08047f10 f i interpreterRuntime.obj
 0001:00046f40       ?do_long@Fingerprinter@@UAEXXZ 08047f40 f i interpreterRuntime.obj
 0001:00046f70       ?do_float@Fingerprinter@@UAEXXZ 08047f70 f i interpreterRuntime.obj
 0001:00046fa0       ?do_double@Fingerprinter@@UAEXXZ 08047fa0 f i interpreterRuntime.obj
 0001:00046fd0       ?do_array@Fingerprinter@@UAEXHH@Z 08047fd0 f i interpreterRuntime.obj
 0001:00046fd0       ?do_object@Fingerprinter@@UAEXHH@Z 08047fd0 f i interpreterRuntime.obj
 0001:00047000       ?do_void@Fingerprinter@@UAEXXZ 08048000 f i interpreterRuntime.obj
 0001:00047020       ??0NativeSignatureIterator@@QAE@VmethodHandle@@@Z 08048020 f i interpreterRuntime.obj
 0001:00047080       ?do_float@NativeSignatureIterator@@EAEXXZ 08048080 f i interpreterRuntime.obj
 0001:000470a0       ?do_double@NativeSignatureIterator@@EAEXXZ 080480a0 f i interpreterRuntime.obj
 0001:000470c0       ?do_byte@NativeSignatureIterator@@EAEXXZ 080480c0 f i interpreterRuntime.obj
 0001:000470c0       ?do_bool@NativeSignatureIterator@@EAEXXZ 080480c0 f i interpreterRuntime.obj
 0001:000470c0       ?do_int@NativeSignatureIterator@@EAEXXZ 080480c0 f i interpreterRuntime.obj
 0001:000470c0       ?do_char@NativeSignatureIterator@@EAEXXZ 080480c0 f i interpreterRuntime.obj
 0001:000470c0       ?do_short@NativeSignatureIterator@@EAEXXZ 080480c0 f i interpreterRuntime.obj
 0001:000470e0       ?do_long@NativeSignatureIterator@@EAEXXZ 080480e0 f i interpreterRuntime.obj
 0001:00047100       ?do_void@NativeSignatureIterator@@EAEXXZ 08048100 f i interpreterRuntime.obj
 0001:00047120       ?do_array@NativeSignatureIterator@@EAEXHH@Z 08048120 f i interpreterRuntime.obj
 0001:00047120       ?do_object@NativeSignatureIterator@@EAEXHH@Z 08048120 f i interpreterRuntime.obj
 0001:00047140       ?pass_double@NativeSignatureIterator@@UAEXXZ 08048140 f i interpreterRuntime.obj
 0001:00047150       ??0SignatureHandlerGenerator@InterpreterRuntime@@QAE@VmethodHandle@@PAVCodeBuffer@@@Z 08048150 f i interpreterRuntime.obj
 0001:000471a0       ?_new@InterpreterRuntime@@SAXPAVJavaThread@@PAVconstantPoolOopDesc@@H@Z 080481a0 f   interpreterRuntime.obj
 0001:000472e0       ?anewarray@InterpreterRuntime@@SAXPAVJavaThread@@PAVconstantPoolOopDesc@@HH@Z 080482e0 f   interpreterRuntime.obj
 0001:000473b0       ?new_illegal_monitor_state_exception@InterpreterRuntime@@SAXPAVJavaThread@@@Z 080483b0 f   interpreterRuntime.obj
 0001:000474a0       ?initialize@SignatureHandlerLibrary@@CAXXZ 080484a0 f   interpreterRuntime.obj
 0001:00047570       ?append@?$GrowableArray@_K@@QAEHAB_K@Z 08048570 f i interpreterRuntime.obj
 0001:000475b0       ?method@InterpreterRuntime@@CAPAVmethodOopDesc@@PAVJavaThread@@@Z 080485b0 f i interpreterRuntime.obj
 0001:00047610       ?bcp@InterpreterRuntime@@CAPAEPAVJavaThread@@@Z 08048610 f i interpreterRuntime.obj
 0001:00047670       ?bci@InterpreterRuntime@@CAHPAVJavaThread@@@Z 08048670 f i interpreterRuntime.obj
 0001:000476d0       ?get_index_u2@InterpreterRuntime@@CAHPAVJavaThread@@W4Code@Bytecodes@@@Z 080486d0 f i interpreterRuntime.obj
 0001:00047730       ?cache_entry@InterpreterRuntime@@CAPAVConstantPoolCacheEntry@@PAVJavaThread@@@Z 08048730 f i interpreterRuntime.obj
 0001:00047760       ?set_bcp_and_mdp@InterpreterRuntime@@CAXPAEPAVJavaThread@@@Z 08048760 f   interpreterRuntime.obj
 0001:000478c0       ?resolve_ldc@InterpreterRuntime@@SAXPAVJavaThread@@W4Code@Bytecodes@@@Z 080488c0 f   interpreterRuntime.obj
 0001:000479c0       ?multianewarray@InterpreterRuntime@@SAXPAVJavaThread@@PAH@Z 080489c0 f   interpreterRuntime.obj
 0001:00047b60       ?quicken_io_cc@InterpreterRuntime@@SAXPAVJavaThread@@@Z 08048b60 f   interpreterRuntime.obj
 0001:00047c10       ?create_exception@InterpreterRuntime@@SAXPAVJavaThread@@PAD1@Z 08048c10 f   interpreterRuntime.obj
 0001:00047ce0       ?create_klass_exception@InterpreterRuntime@@SAXPAVJavaThread@@PADPAVoopDesc@@@Z 08048ce0 f   interpreterRuntime.obj
 0001:00047e30       ?throw_ArrayIndexOutOfBoundsException@InterpreterRuntime@@SAXPAVJavaThread@@PADH@Z 08048e30 f   interpreterRuntime.obj
 0001:00047f10       ?throw_ClassCastException@InterpreterRuntime@@SAXPAVJavaThread@@PAVoopDesc@@@Z 08048f10 f   interpreterRuntime.obj
 0001:00047fe0       ?throw_WrongMethodTypeException@InterpreterRuntime@@SAXPAVJavaThread@@PAVoopDesc@@1@Z 08048fe0 f   interpreterRuntime.obj
 0001:000480b0       ?exception_handler_for_exception@InterpreterRuntime@@SAPAEPAVJavaThread@@PAVoopDesc@@@Z 080490b0 f   interpreterRuntime.obj
 0001:00048320       ?resolve_invokedynamic@InterpreterRuntime@@SAXPAVJavaThread@@@Z 08049320 f   interpreterRuntime.obj
 0001:000486b0       ?frequency_counter_overflow_inner@InterpreterRuntime@@CAPAVnmethod@@PAVJavaThread@@PAE@Z 080496b0 f   interpreterRuntime.obj
 0001:000488c0       ?profile_method@InterpreterRuntime@@SAXPAVJavaThread@@@Z 080498c0 f   interpreterRuntime.obj
 0001:000489b0       ?update_mdp_for_ret@InterpreterRuntime@@SAXPAVJavaThread@@H@Z 080499b0 f   interpreterRuntime.obj
 0001:00048b20       ?at_safepoint@InterpreterRuntime@@SAXPAVJavaThread@@@Z 08049b20 f   interpreterRuntime.obj
 0001:00048bb0       ?post_method_entry@InterpreterRuntime@@SAXPAVJavaThread@@@Z 08049bb0 f   interpreterRuntime.obj
 0001:00048ca0       ?post_method_exit@InterpreterRuntime@@SAXPAVJavaThread@@@Z 08049ca0 f   interpreterRuntime.obj
 0001:00048d90       ?add@SignatureHandlerLibrary@@SAXVmethodHandle@@@Z 08049d90 f   interpreterRuntime.obj
 0001:00048f70       ?prepare_native_call@InterpreterRuntime@@SAXPAVJavaThread@@PAVmethodOopDesc@@@Z 08049f70 f   interpreterRuntime.obj
 0001:00049020       ?popframe_move_outgoing_args@InterpreterRuntime@@SAXPAVJavaThread@@PAX1@Z 0804a020 f   interpreterRuntime.obj
 0001:000491a0       ?already_resolved@InterpreterRuntime@@CA_NPAVJavaThread@@@Z 0804a1a0 f i interpreterRuntime.obj
 0001:00049200       ?ldc@InterpreterRuntime@@SAXPAVJavaThread@@_N@Z 0804a200 f   interpreterRuntime.obj
 0001:00049360       ?resolve_get_put@InterpreterRuntime@@SAXPAVJavaThread@@W4Code@Bytecodes@@@Z 0804a360 f   interpreterRuntime.obj
 0001:000495b0       ?resolve_invoke@InterpreterRuntime@@SAXPAVJavaThread@@W4Code@Bytecodes@@@Z 0804a5b0 f   interpreterRuntime.obj
 0001:00049a20       ?frequency_counter_overflow@InterpreterRuntime@@SAPAVnmethod@@PAVJavaThread@@PAE@Z 0804aa20 f   interpreterRuntime.obj
 0001:00049ac0       ?post_field_access@InterpreterRuntime@@SAXPAVJavaThread@@PAVoopDesc@@PAVConstantPoolCacheEntry@@@Z 0804aac0 f   interpreterRuntime.obj
 0001:00049c30       ?post_field_modification@InterpreterRuntime@@SAXPAVJavaThread@@PAVoopDesc@@PAVConstantPoolCacheEntry@@PATjvalue@@@Z 0804ac30 f   interpreterRuntime.obj
 0001:00049df0       ?dummy_invocation_counter_overflow@@YAPAEVmethodHandle@@PAVThread@@@Z 0804adf0 f   invocationCounter.obj
 0001:00049e10       ?set_carry@InvocationCounter@@QAEXXZ 0804ae10 f   invocationCounter.obj
 0001:00049e50       ?set_state@InvocationCounter@@QAEXW4State@1@@Z 0804ae50 f   invocationCounter.obj
 0001:00049f50       ?reinitialize@InvocationCounter@@SAX_N@Z 0804af50 f   invocationCounter.obj
 0001:0004a010       ?invocationCounter_init@@YAXXZ 0804b010 f   invocationCounter.obj
 0001:0004a020       ?reset@InvocationCounter@@QAEXXZ 0804b020 f   invocationCounter.obj
 0001:0004a050       ?init@InvocationCounter@@QAEXXZ 0804b050 f   invocationCounter.obj
 0001:0004a070       ?set@FieldAccessInfo@@QAEXVKlassHandle@@VsymbolHandle@@HHW4BasicType@@VAccessFlags@@@Z 0804b070 f   linkResolver.obj
 0001:0004a0a0       ?is_method_handle_invoke_name@methodOopDesc@@SA_NPAVsymbolOopDesc@@@Z 0804b0a0 f i linkResolver.obj
 0001:0004a0c0       ?set_common@CallInfo@@AAEXVKlassHandle@@0VmethodHandle@@1HPAVThread@@@Z 0804b0c0 f   linkResolver.obj
 0001:0004a130       ?set_interface@CallInfo@@AAEXVKlassHandle@@0VmethodHandle@@1PAVThread@@@Z 0804b130 f   linkResolver.obj
 0001:0004a180       ?check_klass_accessability@LinkResolver@@SAXVKlassHandle@@0PAVThread@@@Z 0804b180 f   linkResolver.obj
 0001:0004a220       ?lookup_method_in_klasses@LinkResolver@@CAXAAVmethodHandle@@VKlassHandle@@VsymbolHandle@@2PAVThread@@@Z 0804b220 f   linkResolver.obj
 0001:0004a290       ?lookup_instance_method_in_klasses@LinkResolver@@CAXAAVmethodHandle@@VKlassHandle@@VsymbolHandle@@2PAVThread@@@Z 0804b290 f   linkResolver.obj
 0001:0004a3b0       ?vtable_index_of_miranda_method@LinkResolver@@CAHVKlassHandle@@VsymbolHandle@@1PAVThread@@@Z 0804b3b0 f   linkResolver.obj
 0001:0004a430       ?lookup_method_in_interfaces@LinkResolver@@CAXAAVmethodHandle@@VKlassHandle@@VsymbolHandle@@2PAVThread@@@Z 0804b430 f   linkResolver.obj
 0001:0004a480       ?lookup_implicit_method@LinkResolver@@CAXAAVmethodHandle@@VKlassHandle@@VsymbolHandle@@21PAVThread@@@Z 0804b480 f   linkResolver.obj
 0001:0004a540       ?check_method_accessability@LinkResolver@@CAXVKlassHandle@@00VmethodHandle@@PAVThread@@@Z 0804b540 f   linkResolver.obj
 0001:0004a680       ?resolve_method@LinkResolver@@CAXAAVmethodHandle@@VKlassHandle@@VsymbolHandle@@21_NPAVThread@@@Z 0804b680 f   linkResolver.obj
 0001:0004aa30       ?resolve_interface_method@LinkResolver@@CAXAAVmethodHandle@@VKlassHandle@@VsymbolHandle@@21_NPAVThread@@@Z 0804ba30 f   linkResolver.obj
 0001:0004ad40       ?check_field_accessability@LinkResolver@@CAXVKlassHandle@@00AAVfieldDescriptor@@PAVThread@@@Z 0804bd40 f   linkResolver.obj
 0001:0004ae10       ?resolve_field@LinkResolver@@SAXAAVFieldAccessInfo@@VconstantPoolHandle@@HW4Code@Bytecodes@@_N3PAVThread@@@Z 0804be10 f   linkResolver.obj
 0001:0004b2f0       ?linktime_resolve_static_method@LinkResolver@@CAXAAVmethodHandle@@VKlassHandle@@VsymbolHandle@@21_NPAVThread@@@Z 0804c2f0 f   linkResolver.obj
 0001:0004b3b0       ?linktime_resolve_special_method@LinkResolver@@CAXAAVmethodHandle@@VKlassHandle@@VsymbolHandle@@21_NPAVThread@@@Z 0804c3b0 f   linkResolver.obj
 0001:0004b530       ?runtime_resolve_special_method@LinkResolver@@CAXAAVCallInfo@@VmethodHandle@@VKlassHandle@@2_NPAVThread@@@Z 0804c530 f   linkResolver.obj
 0001:0004b800       ?linktime_resolve_virtual_method@LinkResolver@@CAXAAVmethodHandle@@VKlassHandle@@VsymbolHandle@@21_NPAVThread@@@Z 0804c800 f   linkResolver.obj
 0001:0004b8c0       ?runtime_resolve_virtual_method@LinkResolver@@CAXAAVCallInfo@@VmethodHandle@@VKlassHandle@@VHandle@@2_NPAVThread@@@Z 0804c8c0 f   linkResolver.obj
 0001:0004bb00       ?runtime_resolve_interface_method@LinkResolver@@CAXAAVCallInfo@@VmethodHandle@@VKlassHandle@@VHandle@@2_NPAVThread@@@Z 0804cb00 f   linkResolver.obj
 0001:0004bd60       ?linktime_resolve_interface_method_or_null@LinkResolver@@SA?AVmethodHandle@@VKlassHandle@@VsymbolHandle@@10_N@Z 0804cd60 f   linkResolver.obj
 0001:0004bde0       ?linktime_resolve_virtual_method_or_null@LinkResolver@@SA?AVmethodHandle@@VKlassHandle@@VsymbolHandle@@10_N@Z 0804cde0 f   linkResolver.obj
 0001:0004be60       ?resolve_pool@LinkResolver@@CAXAAVKlassHandle@@AAVsymbolHandle@@10VconstantPoolHandle@@HPAVThread@@@Z 0804ce60 f   linkResolver.obj
 0001:0004bef0       ?resolve_invokedynamic@LinkResolver@@SAXAAVCallInfo@@VconstantPoolHandle@@HPAVThread@@@Z 0804cef0 f   linkResolver.obj
 0001:0004bfa0       ?resolve_method@LinkResolver@@SAXAAVmethodHandle@@AAVKlassHandle@@VconstantPoolHandle@@HPAVThread@@@Z 0804cfa0 f   linkResolver.obj
 0001:0004c040       ?resolve_dynamic_method@LinkResolver@@SAXAAVmethodHandle@@AAVKlassHandle@@VconstantPoolHandle@@HPAVThread@@@Z 0804d040 f   linkResolver.obj
 0001:0004c0a0       ?resolve_interface_method@LinkResolver@@SAXAAVmethodHandle@@AAVKlassHandle@@VconstantPoolHandle@@HPAVThread@@@Z 0804d0a0 f   linkResolver.obj
 0001:0004c140       ?resolve_field@LinkResolver@@SAXAAVFieldAccessInfo@@VconstantPoolHandle@@HW4Code@Bytecodes@@_NPAVThread@@@Z 0804d140 f   linkResolver.obj
 0001:0004c170       ?resolve_static_call@LinkResolver@@SAXAAVCallInfo@@AAVKlassHandle@@VsymbolHandle@@2V3@_N4PAVThread@@@Z 0804d170 f   linkResolver.obj
 0001:0004c240       ?resolve_special_call@LinkResolver@@SAXAAVCallInfo@@VKlassHandle@@VsymbolHandle@@21_NPAVThread@@@Z 0804d240 f   linkResolver.obj
 0001:0004c2a0       ?resolve_virtual_call@LinkResolver@@SAXAAVCallInfo@@VHandle@@VKlassHandle@@2VsymbolHandle@@32_N4PAVThread@@@Z 0804d2a0 f   linkResolver.obj
 0001:0004c300       ?resolve_interface_call@LinkResolver@@SAXAAVCallInfo@@VHandle@@VKlassHandle@@2VsymbolHandle@@32_N4PAVThread@@@Z 0804d300 f   linkResolver.obj
 0001:0004c360       ?resolve_virtual_call_or_null@LinkResolver@@SA?AVmethodHandle@@VKlassHandle@@0VsymbolHandle@@10@Z 0804d360 f   linkResolver.obj
 0001:0004c550       ?resolve_interface_call_or_null@LinkResolver@@SA?AVmethodHandle@@VKlassHandle@@0VsymbolHandle@@10@Z 0804d550 f   linkResolver.obj
 0001:0004c7a0       ?resolve_static_call_or_null@LinkResolver@@SA?AVmethodHandle@@VKlassHandle@@VsymbolHandle@@10@Z 0804d7a0 f   linkResolver.obj
 0001:0004c860       ?resolve_special_call_or_null@LinkResolver@@SA?AVmethodHandle@@VKlassHandle@@VsymbolHandle@@10@Z 0804d860 f   linkResolver.obj
 0001:0004c900       ?resolve_invokestatic@LinkResolver@@SAXAAVCallInfo@@VconstantPoolHandle@@HPAVThread@@@Z 0804d900 f   linkResolver.obj
 0001:0004c970       ?resolve_invokespecial@LinkResolver@@SAXAAVCallInfo@@VconstantPoolHandle@@HPAVThread@@@Z 0804d970 f   linkResolver.obj
 0001:0004c9e0       ?resolve_invokevirtual@LinkResolver@@SAXAAVCallInfo@@VHandle@@VconstantPoolHandle@@HPAVThread@@@Z 0804d9e0 f   linkResolver.obj
 0001:0004ca70       ?resolve_invokeinterface@LinkResolver@@SAXAAVCallInfo@@VHandle@@VconstantPoolHandle@@HPAVThread@@@Z 0804da70 f   linkResolver.obj
 0001:0004cb00       ?resolve_invoke@LinkResolver@@SAXAAVCallInfo@@VHandle@@VconstantPoolHandle@@HW4Code@Bytecodes@@PAVThread@@@Z 0804db00 f   linkResolver.obj
 0001:0004cbc0       ??1InterpreterOopMap@@QAE@XZ 0804dbc0 f   oopMapCache.obj
 0001:0004cbf0       ?iterate_oop@InterpreterOopMap@@QAEXPAVOffsetClosure@@@Z 0804dbf0 f   oopMapCache.obj
 0001:0004cc60       ?resource_copy@InterpreterOopMap@@QAEXPAVOopMapCacheEntry@@@Z 0804dc60 f   oopMapCache.obj
 0001:0004cd00       ?oop_iterate@OopMapCache@@QAEXPAVOopClosure@@@Z 0804dd00 f   oopMapCache.obj
 0001:0004cd40       ?offset_do@VerifyClosure@@UAEXH@Z 0804dd40 f i oopMapCache.obj
 0001:0004cd90       ??0InterpreterOopMap@@QAE@XZ 0804dd90 f   oopMapCache.obj
 0001:0004cdb0       ?set_mask@OopMapCacheEntry@@IAEXPAVCellTypeState@@0H@Z 0804ddb0 f   oopMapCache.obj
 0001:0004cea0       ??0OopMapCache@@QAE@XZ     0804dea0 f   oopMapCache.obj
 0001:0004cf20       ?flush@OopMapCache@@AAEXXZ 0804df20 f   oopMapCache.obj
 0001:0004cf80       ?oop_iterate@OopMapCache@@QAEXPAVOopClosure@@VMemRegion@@@Z 0804df80 f   oopMapCache.obj
 0001:0004cfd0       ?iterate@NativeSignatureIterator@@QAEXXZ 0804dfd0 f i oopMapCache.obj
 0001:0004d050       ?compute_map@OopMapForCacheEntry@@QAEXPAVThread@@@Z 0804e050 f   oopMapCache.obj
 0001:0004d140       ?fill_stackmap_for_opcodes@OopMapForCacheEntry@@EAEXPAVBytecodeStream@@PAVCellTypeState@@1H@Z 0804e140 f   oopMapCache.obj
 0001:0004d170       ??0MaskFillerForNative@@QAE@VmethodHandle@@PAIH@Z 0804e170 f i oopMapCache.obj
 0001:0004d1c0       ?pass_object@MaskFillerForNative@@UAEXXZ 0804e1c0 f i oopMapCache.obj
 0001:0004d200       ?fill_for_native@OopMapCacheEntry@@IAEXVmethodHandle@@@Z 0804e200 f   oopMapCache.obj
 0001:0004d290       ?fill@OopMapCacheEntry@@IAEXVmethodHandle@@H@Z 0804e290 f   oopMapCache.obj
 0001:0004d3a0       ??1OopMapCache@@QAE@XZ     0804e3a0 f   oopMapCache.obj
 0001:0004d3c0       ?flush_obsolete_entries@OopMapCache@@QAEXXZ 0804e3c0 f   oopMapCache.obj
 0001:0004d500       ?verify@OopMapCache@@QAEXXZ 0804e500 f   oopMapCache.obj
 0001:0004d560       ?compute_one_oop_map@OopMapCache@@SAXVmethodHandle@@HPAVInterpreterOopMap@@@Z 0804e560 f   oopMapCache.obj
 0001:0004d5d0       ?lookup@OopMapCache@@QAEXVmethodHandle@@HPAVInterpreterOopMap@@@Z 0804e5d0 f   oopMapCache.obj
 0001:0004d6e0       ?init_cp_map@Rewriter@@AAEXH@Z 0804e6e0 f i rewriter.obj
 0001:0004d750       ?fill_init_vars@ResolveOopMapConflicts@@EAEXPAV?$GrowableArray@H@@@Z 0804e750 f i rewriter.obj
 0001:0004d770       ?rewrite_jsrs@Rewriter@@AAE?AVmethodHandle@@V2@PAVThread@@@Z 0804e770 f   rewriter.obj
 0001:0004d820       ?maybe_add_cp_cache_entry@Rewriter@@AAEHH@Z 0804e820 f i rewriter.obj
 0001:0004d880       ?rewrite_invokedynamic@Rewriter@@AAEXPAEH@Z 0804e880 f   rewriter.obj
 0001:0004d8f0       ?rewrite_Object_init@Rewriter@@AAEXVmethodHandle@@PAVThread@@@Z 0804e8f0 f   rewriter.obj
 0001:0004da80       ?compute_index_maps@Rewriter@@AAEXXZ 0804ea80 f   rewriter.obj
 0001:0004db70       ?scan_method@Rewriter@@AAEXPAVmethodOopDesc@@@Z 0804eb70 f   rewriter.obj
 0001:0004de30       ?set_cache@constantPoolOopDesc@@QAEXPAVconstantPoolCacheOopDesc@@@Z 0804ee30 f i rewriter.obj
 0001:0004de80       ?make_constant_pool_cache@Rewriter@@AAEXPAVThread@@@Z 0804ee80 f   rewriter.obj
 0001:0004e010       ??0Rewriter@@AAE@VinstanceKlassHandle@@VconstantPoolHandle@@VobjArrayHandle@@PAVThread@@@Z 0804f010 f   rewriter.obj
 0001:0004e230       ?rewrite@Rewriter@@SAXVinstanceKlassHandle@@PAVThread@@@Z 0804f230 f   rewriter.obj
 0001:0004e2e0       ?entry@EntryPoint@@QBEPAEW4TosState@@@Z 0804f2e0 f   templateInterpreter.obj
 0001:0004e2f0       ?entry@DispatchTable@@QBE?AVEntryPoint@@H@Z 0804f2f0 f   templateInterpreter.obj
 0001:0004e380       ?set_entry@DispatchTable@@QAEXHAAVEntryPoint@@@Z 0804f380 f   templateInterpreter.obj
 0001:0004e3f0       ??0TemplateInterpreterGenerator@@QAE@PAVStubQueue@@@Z 0804f3f0 f   templateInterpreter.obj
 0001:0004e410       ?return_entry@TemplateInterpreter@@SAPAEW4TosState@@H@Z 0804f410 f   templateInterpreter.obj
 0001:0004e450       ?deopt_entry@TemplateInterpreter@@SAPAEW4TosState@@H@Z 0804f450 f   templateInterpreter.obj
 0001:0004e490       ?notice_safepoints@TemplateInterpreter@@SAXXZ 0804f490 f   templateInterpreter.obj
 0001:0004e4c0       ?deopt_continue_after_entry@TemplateInterpreter@@SAPAEPAVmethodOopDesc@@PAEH_N@Z 0804f4c0 f   templateInterpreter.obj
 0001:0004e4d0       ?bytecode_should_reexecute@TemplateInterpreter@@SA_NW4Code@Bytecodes@@@Z 0804f4d0 f   templateInterpreter.obj
 0001:0004e4f0       ?initialize@InterpreterCodeletInterface@@UAEXPAVStub@@H@Z 0804f4f0 f i templateInterpreter.obj
 0001:0004e500       ?finalize@InterpreterCodeletInterface@@UAEXPAVStub@@@Z 0804f500 f i templateInterpreter.obj
 0001:0004e520       ?code_begin@ICStubInterface@@UBEPAEPAVStub@@@Z 0804f520 f i icBuffer.obj
 0001:0004e520       ?code_begin@InterpreterCodeletInterface@@UBEPAEPAVStub@@@Z 0804f520 f i templateInterpreter.obj
 0001:0004e520       ?code_size_to_size@InterpreterCodeletInterface@@UBEHH@Z 0804f520 f i templateInterpreter.obj
 0001:0004e520       ?code_size_to_size@ICStubInterface@@UBEHH@Z 0804f520 f i icBuffer.obj
 0001:0004e530       ?verify@InterpreterCodeletInterface@@UAEXPAVStub@@@Z 0804f530 f i templateInterpreter.obj
 0001:0004e540       ?print@InterpreterCodeletInterface@@UAEXPAVStub@@@Z 0804f540 f i templateInterpreter.obj
 0001:0004e560       ?generate_and_dispatch@TemplateInterpreterGenerator@@IAEXPAVTemplate@@W4TosState@@@Z 0804f560 f   templateInterpreter.obj
 0001:0004e5f0       ?ignore_safepoints@TemplateInterpreter@@SAXXZ 0804f5f0 f   templateInterpreter.obj
 0001:0004e630       ?initialize@TemplateInterpreter@@SAXXZ 0804f630 f   templateInterpreter.obj
 0001:0004e720       ?set_safepoints_for_all_bytes@TemplateInterpreterGenerator@@IAEXXZ 0804f720 f   templateInterpreter.obj
 0001:0004e920       ?set_short_entry_points@TemplateInterpreterGenerator@@IAEXPAVTemplate@@AAPAE11111111@Z 0804f920 f   templateInterpreter.obj
 0001:0004eab0       ?deopt_reexecute_entry@TemplateInterpreter@@SAPAEPAVmethodOopDesc@@PAE@Z 0804fab0 f   templateInterpreter.obj
 0001:0004eb10       ?set_entry_points@TemplateInterpreterGenerator@@IAEXW4Code@Bytecodes@@@Z 0804fb10 f   templateInterpreter.obj
 0001:0004ec50       ?set_entry_points_for_all_bytes@TemplateInterpreterGenerator@@IAEXXZ 0804fc50 f   templateInterpreter.obj
 0001:0004ece0       ?generate_all@TemplateInterpreterGenerator@@IAEXXZ 0804fce0 f   templateInterpreter.obj
 0001:00050150       ?generate@Template@@QAEXPAVInterpreterMacroAssembler@@@Z 08051150 f   templateTable.obj
 0001:00050180       ?call_VM@TemplateTable@@CAXPAVRegisterImpl@@PAE@Z 08051180 f   templateTable.obj
 0001:000501a0       ?call_VM@TemplateTable@@CAXPAVRegisterImpl@@PAE0@Z 080511a0 f   templateTable.obj
 0001:000501c0       ?call_VM@TemplateTable@@CAXPAVRegisterImpl@@PAE00@Z 080511c0 f   templateTable.obj
 0001:000501f0       ?call_VM@TemplateTable@@CAXPAVRegisterImpl@@PAE000@Z 080511f0 f   templateTable.obj
 0001:00050220       ?unimplemented@MacroAssembler@@QAEXPBD@Z 08051220 f i templateTable.obj
 0001:00050260       ?bytecode@Template@@QBE?AW4Code@Bytecodes@@XZ 08051260 f   templateTable.obj
 0001:000502a0       ?float_cmp@TemplateTable@@CAXH@Z 080512a0 f   templateTable.obj
 0001:000502c0       ?double_cmp@TemplateTable@@CAXH@Z 080512c0 f   templateTable.obj
 0001:000502e0       ?_goto@TemplateTable@@CAXXZ 080512e0 f   templateTable.obj
 0001:000502f0       ?goto_w@TemplateTable@@CAXXZ 080512f0 f   templateTable.obj
 0001:00050300       ?jsr_w@TemplateTable@@CAXXZ 08051300 f   templateTable.obj
 0001:00050310       ?jsr@TemplateTable@@CAXXZ  08051310 f   templateTable.obj
 0001:00050320       ?initialize@TemplateTable@@SAXXZ 08051320 f   templateTable.obj
 0001:00052560       ?templateTable_init@@YAXXZ 08053560 f   templateTable.obj
 0001:00052570       ??3_ValueObj@@SAXPAX@Z     08053570 f   allocation.obj
 0001:00052590       ?signal_out_of_memory@Arena@@IBEXIPBD@Z 08053590 f   allocation.obj
 0001:000525c0       ??2CHeapObj@@SAPAXI@Z      080535c0 f   allocation.obj
 0001:00052600       ??3CHeapObj@@SAXPAX@Z      08053600 f   allocation.obj
 0001:00052600       ?OSR_migration_end@SharedRuntime@@SAXPAH@Z 08053600 f   sharedRuntime.obj
 0001:00052600       ??3ResourceObj@@SAXPAX@Z   08053600 f   allocation.obj
 0001:00052610       ??2ResourceObj@@SAPAXIW4allocation_type@0@@Z 08053610 f   allocation.obj
 0001:00052670       ?allocate@ChunkPool@@QAEPAXI@Z 08053670 f i allocation.obj
 0001:000526e0       ?free@ChunkPool@@QAEXPAVChunk@@@Z 080536e0 f i allocation.obj
 0001:00052720       ?free_all_but@ChunkPool@@QAEXI@Z 08053720 f i allocation.obj
 0001:00052790       ?initialize@ChunkPool@@SAXXZ 08053790 f i allocation.obj
 0001:00052820       ?chunkpool_init@@YAXXZ     08053820 f   allocation.obj
 0001:00052830       ?task@ChunkPoolCleaner@@UAEXXZ 08053830 f i allocation.obj
 0001:00052860       ??2Chunk@@SAPAXII@Z        08053860 f   allocation.obj
 0001:000528f0       ??3Chunk@@SAXPAX@Z         080538f0 f   allocation.obj
 0001:00052990       ?next_chop@Chunk@@QAEXXZ   08053990 f   allocation.obj
 0001:000529c0       ?start_chunk_pool_cleaner_task@Chunk@@SAXXZ 080539c0 f   allocation.obj
 0001:00052a10       ??0Arena@@QAE@XZ           08053a10 f   allocation.obj
 0001:00052a60       ?destruct_contents@Arena@@QAEXXZ 08053a60 f   allocation.obj
 0001:00052aa0       ?grow@Arena@@IAEPAXI@Z     08053aa0 f   allocation.obj
 0001:00052b40       ??1Arena@@QAE@XZ           08053b40 f   allocation.obj
 0001:00052b50       ?Arealloc@Arena@@QAEPAXPAXII@Z 08053b50 f   allocation.obj
 0001:00052be0       ?write_ref_array@BarrierSet@@QAEXPAVHeapWord@@I@Z 08053be0 f i barrierSet.obj
 0001:00052c20       ?static_write_ref_array_pre@BarrierSet@@SAXPAVHeapWord@@I@Z 08053c20 f   barrierSet.obj
 0001:00052c40       ?static_write_ref_array_post@BarrierSet@@SAXPAVHeapWord@@I@Z 08053c40 f   barrierSet.obj
 0001:00052c80       ?serialize@BlockOffsetArrayContigSpace@@QAEXPAVSerializeOopClosure@@@Z 08053c80 f   blockOffsetTable.obj
 0001:00052cc0       ?last_active_index@BlockOffsetArrayContigSpace@@UBEIXZ 08053cc0 f   blockOffsetTable.obj
 0001:00052cd0       ?set_bottom@BlockOffsetTable@@UAEXPAVHeapWord@@@Z 08053cd0 f i blockOffsetTable.obj
 0001:00052cd0       ?set_bottom@G1BlockOffsetTable@@UAEXPAVHeapWord@@@Z 08053cd0 f i g1BlockOffsetTable.obj
 0001:00052cf0       ?resize@BlockOffsetSharedArray@@QAEXI@Z 08053cf0 f   blockOffsetTable.obj
 0001:00052d80       ?serialize@BlockOffsetSharedArray@@QAEXPAVSerializeOopClosure@@PAVHeapWord@@1@Z 08053d80 f   blockOffsetTable.obj
 0001:00052dc0       ?check_all_cards@BlockOffsetArray@@QBEXII@Z 08053dc0 f   blockOffsetTable.obj
 0001:00052f50       ?verify@BlockOffsetArray@@QBEXXZ 08053f50 f   blockOffsetTable.obj
 0001:00052fb0       ?block_start_unsafe@BlockOffsetArrayNonContigSpace@@UBEPAVHeapWord@@PBX@Z 08053fb0 f   blockOffsetTable.obj
 0001:00053050       ?block_start_careful@BlockOffsetArrayNonContigSpace@@QBEPAVHeapWord@@PBX@Z 08054050 f   blockOffsetTable.obj
 0001:000530c0       ?last_active_index@BlockOffsetArrayNonContigSpace@@UBEIXZ 080540c0 f   blockOffsetTable.obj
 0001:000530e0       ?block_start_unsafe@BlockOffsetArrayContigSpace@@UBEPAVHeapWord@@PBX@Z 080540e0 f   blockOffsetTable.obj
 0001:000531a0       ?initialize_threshold@BlockOffsetArrayContigSpace@@QAEPAVHeapWord@@XZ 080541a0 f   blockOffsetTable.obj
 0001:000531c0       ?set_offset_array@BlockOffsetSharedArray@@IAEXIIE_N@Z 080541c0 f i blockOffsetTable.obj
 0001:00053230       ??0BlockOffsetSharedArray@@QAE@VMemRegion@@I@Z 08054230 f   blockOffsetTable.obj
 0001:000532e0       ?set_remainder_to_point_to_start_incl@BlockOffsetArray@@IAEXII_N@Z 080542e0 f   blockOffsetTable.obj
 0001:00053370       ?split_block@BlockOffsetArrayNonContigSpace@@QAEXPAVHeapWord@@II@Z 08054370 f   blockOffsetTable.obj
 0001:00053530       ?set_remainder_to_point_to_start@BlockOffsetArray@@IAEXPAVHeapWord@@0_N@Z 08054530 f   blockOffsetTable.obj
 0001:00053570       ?do_block_internal@BlockOffsetArray@@IAEXPAVHeapWord@@0W4Action@1@_N@Z 08054570 f   blockOffsetTable.obj
 0001:00053640       ?alloc_block@BlockOffsetArrayNonContigSpace@@UAEXPAVHeapWord@@0@Z 08054640 f   blockOffsetTable.obj
 0001:00053680       ?mark_block@BlockOffsetArrayNonContigSpace@@QAEXPAVHeapWord@@0_N@Z 08054680 f   blockOffsetTable.obj
 0001:00053710       ?alloc_block_work@BlockOffsetArrayContigSpace@@AAEXPAVHeapWord@@0@Z 08054710 f   blockOffsetTable.obj
 0001:000537a0       ??0BlockOffsetArray@@QAE@PAVBlockOffsetSharedArray@@VMemRegion@@_N@Z 080547a0 f   blockOffsetTable.obj
 0001:00053810       ?resize@BlockOffsetArray@@UAEXI@Z 08054810 f i blockOffsetTable.obj
 0001:00053850       ?set_offset_array@BlockOffsetSharedArray@@IAEXPAVHeapWord@@0E_N@Z 08054850 f i blockOffsetTable.obj
 0001:000538d0       ?single_block@BlockOffsetArray@@QAEXPAVHeapWord@@0@Z 080548d0 f   blockOffsetTable.obj
 0001:000538d0       ?alloc_block@BlockOffsetArray@@UAEXPAVHeapWord@@0@Z 080548d0 f   blockOffsetTable.obj
 0001:000538f0       ?find_covering_region_containing@CardTableModRefBS@@IAEHPAVHeapWord@@@Z 080548f0 f   cardTableModRefBS.obj
 0001:00053930       ?largest_prev_committed_end@CardTableModRefBS@@IBEPAVHeapWord@@H@Z 08054930 f   cardTableModRefBS.obj
 0001:00053960       ?committed_unique_to_self@CardTableModRefBS@@IBE?AVMemRegion@@HV2@@Z 08054960 f   cardTableModRefBS.obj
 0001:000539f0       ?ct_max_alignment_constraint@CardTableModRefBS@@SAIXZ 080549f0 f   cardTableModRefBS.obj
 0001:00053a00       ?verify@CardTableModRefBS@@QAEXXZ 08054a00 f   cardTableModRefBS.obj
 0001:00053a30       ?write_ref_field_pre_work@BarrierSet@@EAEXPAXPAVoopDesc@@@Z 08054a30 f i cardTableModRefBS.obj
 0001:00053a50       ?is_a@ModRefBarrierSet@@UAE_NW4Name@BarrierSet@@@Z 08054a50 f i cardTableModRefBS.obj
 0001:00053a70       ?write_prim_needs_barrier@ModRefBarrierSet@@UAE_NPAVHeapWord@@III@Z 08054a70 f i cardTableModRefBS.obj
 0001:00053a80       ?card_will_be_scanned@CardTableModRefBS@@MAE_NC@Z 08054a80 f i cardTableModRefBS.obj
 0001:00053a80       ?card_may_have_been_dirty@CardTableModRefBS@@MAE_NC@Z 08054a80 f i cardTableModRefBS.obj
 0001:00053aa0       ??0CardTableModRefBS@@QAE@VMemRegion@@H@Z 08054aa0 f   cardTableModRefBS.obj
 0001:00053d40       ?is_a@CardTableModRefBS@@UAE_NW4Name@BarrierSet@@@Z 08054d40 f i cardTableModRefBS.obj
 0001:00053d60       ?write_ref_needs_barrier@CardTableModRefBS@@UAE_NPAXPAVoopDesc@@@Z 08054d60 f i cardTableModRefBS.obj
 0001:00053d90       ?find_covering_region_by_base@CardTableModRefBS@@IAEHPAVHeapWord@@@Z 08054d90 f   cardTableModRefBS.obj
 0001:00053e20       ?resize_covered_region@CardTableModRefBS@@MAEXVMemRegion@@@Z 08054e20 f   cardTableModRefBS.obj
 0001:00054020       ?write_ref_field_work@CardTableModRefBS@@MAEXPAXPAVoopDesc@@@Z 08055020 f   cardTableModRefBS.obj
 0001:00054040       ?mark_card_deferred@CardTableModRefBS@@QAE_NI@Z 08055040 f   cardTableModRefBS.obj
 0001:000540a0       ?non_clean_card_iterate_work@CardTableModRefBS@@IAEXVMemRegion@@PAVMemRegionClosure@@_N@Z 080550a0 f   cardTableModRefBS.obj
 0001:00054200       ?dirty_MemRegion@CardTableModRefBS@@IAEXVMemRegion@@@Z 08055200 f   cardTableModRefBS.obj
 0001:00054240       ?invalidate@CardTableModRefBS@@UAEXVMemRegion@@_N@Z 08055240 f   cardTableModRefBS.obj
 0001:000542c0       ?clear@CardTableModRefBS@@UAEXVMemRegion@@@Z 080552c0 f   cardTableModRefBS.obj
 0001:00054350       ?dirty@CardTableModRefBS@@QAEXVMemRegion@@@Z 08055350 f   cardTableModRefBS.obj
 0001:00054390       ?dirty_card_iterate@CardTableModRefBS@@QAEXVMemRegion@@PAVMemRegionClosure@@@Z 08055390 f   cardTableModRefBS.obj
 0001:00054450       ?dirty_card_range_after_reset@CardTableModRefBS@@QAE?AVMemRegion@@V2@_NH@Z 08055450 f   cardTableModRefBS.obj
 0001:00054550       ?card_will_be_scanned@CardTableModRefBSForCTRS@@MAE_NC@Z 08055550 f   cardTableModRefBS.obj
 0001:00054580       ?card_may_have_been_dirty@CardTableModRefBSForCTRS@@MAE_NC@Z 08055580 f   cardTableModRefBS.obj
 0001:000545b0       ?write_ref_array_work@CardTableModRefBS@@MAEXVMemRegion@@@Z 080555b0 f i cardTableModRefBS.obj
 0001:000545b0       ?write_region_work@CardTableModRefBS@@MAEXVMemRegion@@@Z 080555b0 f i cardTableModRefBS.obj
 0001:000545d0       ?non_clean_card_iterate@CardTableModRefBS@@IAEXPAVSpace@@VMemRegion@@PAVDirtyCardToOopClosure@@PAVMemRegionClosure@@_N@Z 080555d0 f   cardTableModRefBS.obj
 0001:00054630       ?mod_oop_in_space_iterate@CardTableModRefBS@@UAEXPAVSpace@@PAVOopClosure@@_N2@Z 08055630 f   cardTableModRefBS.obj
 0001:00054690       ?find_unused_youngergenP_card_value@CardTableRS@@AAECXZ 08055690 f   cardTableRS.obj
 0001:000546d0       ?prepare_for_younger_refs_iterate@CardTableRS@@UAEX_N@Z 080556d0 f   cardTableRS.obj
 0001:00054700       ??0CardTableRS@@QAE@VMemRegion@@H@Z 08055700 f   cardTableRS.obj
 0001:000547e0       ?write_ref_field_gc_work@CardTableRS@@UAEXPAXPAVoopDesc@@@Z 080557e0 f i cardTableRS.obj
 0001:00054800       ?clear@CardTableRS@@UAEXVMemRegion@@@Z 08055800 f i cardTableRS.obj
 0001:00054830       ?invalidate@CardTableRS@@UAEXVMemRegion@@_N@Z 08055830 f i cardTableRS.obj
 0001:00054860       ?resize_covered_region@CardTableRS@@UAEXVMemRegion@@@Z 08055860 f   cardTableRS.obj
 0001:00054890       ?younger_refs_iterate@CardTableRS@@UAEXPAVGeneration@@PAVOopsInGenClosure@@@Z 08055890 f   cardTableRS.obj
 0001:000548c0       ?do_MemRegion@ClearNoncleanCardWrapper@@UAEXVMemRegion@@@Z 080558c0 f i cardTableRS.obj
 0001:00054970       ?clear_card@ClearNoncleanCardWrapper@@AAE_NPAC@Z 08055970 f i cardTableRS.obj
 0001:000549f0       ?write_ref_field_gc_par@CardTableRS@@UAEXPAXPAVoopDesc@@@Z 080559f0 f   cardTableRS.obj
 0001:00054a60       ?younger_refs_in_space_iterate@CardTableRS@@EAEXPAVSpace@@PAVOopsInGenClosure@@@Z 08055a60 f   cardTableRS.obj
 0001:00054ac0       ?clear_into_younger@CardTableRS@@UAEXPAVGeneration@@_N@Z 08055ac0 f   cardTableRS.obj
 0001:00054b40       ?invalidate_or_clear@CardTableRS@@UAEXPAVGeneration@@_N1@Z 08055b40 f   cardTableRS.obj
 0001:00054c80       ?do_generation@VerifyCTGenClosure@@UAEXPAVGeneration@@@Z 08055c80 f i cardTableRS.obj
 0001:00054cc0       ?verify@CardTableRS@@UAEXXZ 08055cc0 f   cardTableRS.obj
 0001:00054d90       ?verify_aligned_region_empty@CardTableRS@@UAEXVMemRegion@@@Z 08055d90 f   cardTableRS.obj
 0001:00054e00       ?oop_iterate@oopDesc@@QAEHPAVOopClosure@@@Z 08055e00 f i cardTableRS.obj
 0001:00054e20       ?is_aligned@CardTableRS@@UAE_NPAVHeapWord@@@Z 08055e20 f i cardTableRS.obj
 0001:00054e20       ?is_aligned@CardTableModRefBS@@UAE_NPAVHeapWord@@@Z 08055e20 f i cardTableModRefBS.obj
 0001:00054e40       ?do_oop@VerifyCleanCardClosure@@UAEXPAPAVoopDesc@@@Z 08055e40 f i cardTableRS.obj
 0001:00054e50       ??$do_oop_work@PAVoopDesc@@@VerifyCleanCardClosure@@IAEXPAPAVoopDesc@@@Z 08055e50 f i cardTableRS.obj
 0001:00054ea0       ?do_oop@VerifyCleanCardClosure@@UAEXPAI@Z 08055ea0 f i cardTableRS.obj
 0001:00054eb0       ??$do_oop_work@I@VerifyCleanCardClosure@@IAEXPAI@Z 08055eb0 f i cardTableRS.obj
 0001:00054f10       ?verify_space@CardTableRS@@AAEXPAVSpace@@PAVHeapWord@@@Z 08055f10 f   cardTableRS.obj
 0001:000550d0       ?do_space@VerifyCTSpaceClosure@@UAEXPAVSpace@@@Z 080560d0 f i cardTableRS.obj
 0001:000550f0       ?reset@ClassifyObjectClosure@@QAEXXZ 080560f0 f   classify.obj
 0001:00055120       ?print@ClassifyObjectClosure@@QAEIXZ 08056120 f   classify.obj
 0001:000551b0       ?print@ClassifyInstanceKlassClosure@@QAEXXZ 080561b0 f   classify.obj
 0001:000551d0       ?reset@ClassifyInstanceKlassClosure@@QAEXXZ 080561d0 f   classify.obj
 0001:000551e0       ?is_constantPool@oopDesc@@QBE_NXZ 080561e0 f i classify.obj
 0001:000551f0       ?classify_object@ClassifyObjectClosure@@SA?AW4oop_type@@PAVoopDesc@@_N@Z 080561f0 f   classify.obj
 0001:00055390       ?do_object@ClassifyObjectClosure@@UAEXPAVoopDesc@@@Z 08056390 f   classify.obj
 0001:000553e0       ?do_object@ClassifyInstanceKlassClosure@@UAEXPAVoopDesc@@@Z 080563e0 f   classify.obj
 0001:00055570       ?initialize_perm_generation@CollectorPolicy@@IAEXW4Name@PermGen@@@Z 08056570 f   collectorPolicy.obj
 0001:000555e0       ?initialize_size_policy@GenCollectorPolicy@@UAEXIII@Z 080565e0 f   collectorPolicy.obj
 0001:00055660       ?large_typearray_limit@GenCollectorPolicy@@UAEIXZ 08056660 f   collectorPolicy.obj
 0001:00055660       ?large_typearray_limit@ParallelScavengeHeap@@UAEIXZ 08056660 f   universe.obj
 0001:00055670       ?initialize_generations@MarkSweepPolicy@@MAEXXZ 08056670 f   collectorPolicy.obj
 0001:00055770       ?initialize_gc_policy_counters@MarkSweepPolicy@@UAEXXZ 08056770 f   collectorPolicy.obj
 0001:000557e0       ?set_gc_cause@CollectedHeap@@QAEXW4Cause@GCCause@@@Z 080567e0 f i collectorPolicy.obj
 0001:00055840       ?permanent_generation@CollectorPolicy@@UAEPAVPermanentGenerationSpec@@XZ 08056840 f i collectorPolicy.obj
 0001:00055840       ?constant_encoding@ciObject@@QAEPAV_jobject@@XZ 08056840 f i ciObject.obj
 0001:00055840       ?klass@oopDesc@@QBEPAVklassOopDesc@@XZ 08056840 f i ciEnv.obj
 0001:00055850       ?initialize_gc_policy_counters@CollectorPolicy@@UAEXXZ 08056850 f i collectorPolicy.obj
 0001:00055870       ?initialize_all@GenCollectorPolicy@@UAEXXZ 08056870 f i collectorPolicy.obj
 0001:00055890       ?type@VM_GenCollectForAllocation@@UBE?AW4VMOp_Type@VM_Operation@@XZ 08056890 f i collectorPolicy.obj
 0001:000558a0       ?initialize_flags@CollectorPolicy@@MAEXXZ 080568a0 f   collectorPolicy.obj
 0001:000559a0       ?initialize_size_info@CollectorPolicy@@MAEXXZ 080569a0 f   collectorPolicy.obj
 0001:00055ab0       ?create_rem_set@CollectorPolicy@@UAEPAVGenRemSet@@VMemRegion@@H@Z 08056ab0 f   collectorPolicy.obj
 0001:00055b10       ?initialize_flags@GenCollectorPolicy@@MAEXXZ 08056b10 f   collectorPolicy.obj
 0001:00055bd0       ?initialize_flags@TwoGenerationCollectorPolicy@@MAEXXZ 08056bd0 f   collectorPolicy.obj
 0001:00055c50       ?initialize_size_info@GenCollectorPolicy@@MAEXXZ 08056c50 f   collectorPolicy.obj
 0001:00055dd0       ?adjust_gen0_sizes@TwoGenerationCollectorPolicy@@QAE_NPAI0II@Z 08056dd0 f   collectorPolicy.obj
 0001:00055e40       ?initialize_size_info@TwoGenerationCollectorPolicy@@MAEXXZ 08056e40 f   collectorPolicy.obj
 0001:00055f70       ?expand_heap_and_allocate@GenCollectorPolicy@@MAEPAVHeapWord@@I_N@Z 08056f70 f   collectorPolicy.obj
 0001:00056000       ?should_try_older_generation_allocation@GenCollectorPolicy@@MBE_NI@Z 08057000 f   collectorPolicy.obj
 0001:00056070       ?cleared_all_soft_refs@CollectorPolicy@@QAEXXZ 08057070 f   collectorPolicy.obj
 0001:00056090       ?mem_allocate_work@GenCollectorPolicy@@UAEPAVHeapWord@@I_NPA_N@Z 08057090 f   collectorPolicy.obj
 0001:000563a0       ?satisfy_failed_allocation@GenCollectorPolicy@@UAEPAVHeapWord@@I_N@Z 080573a0 f   collectorPolicy.obj
 0001:00056530       ?initialize_generations@TwoGenerationCollectorPolicy@@MAEXXZ 08057530 f i collectorPolicy.obj
 0001:00056550       ??0MarkSweepPolicy@@QAE@XZ 08057550 f   collectorPolicy.obj
 0001:000565a0       ?initialize_performance_counters@CompactingPermGenGen@@AAEXXZ 080575a0 f   compactingPermGenGen.obj
 0001:00056620       ?contiguous_available@CompactingPermGenGen@@UBEIXZ 08057620 f   compactingPermGenGen.obj
 0001:00056630       ?max_capacity@CompactingPermGenGen@@UBEIXZ 08057630 f   compactingPermGenGen.obj
 0001:00056640       ?invalidate_remembered_set@CardGeneration@@UAEXXZ 08057640 f   generation.obj
 0001:00056640       ?invalidate_remembered_set@CompactingPermGenGen@@UAEXXZ 08057640 f   compactingPermGenGen.obj
 0001:00056670       ?remap_shared_readonly_as_readwrite@CompactingPermGenGen@@SA_NXZ 08057670 f   compactingPermGenGen.obj
 0001:00056690       ?constant_value@ObjectConstant@@UBEPAVciObject@@XZ 08057690 f i c1_ValueType.obj
 0001:00056690       ?saved_mark_word@Space@@UBEPAVHeapWord@@XZ 08057690 f i compactingPermGenGen.obj
 0001:00056690       ?offset@oop_Relocation@@UAEHXZ 08057690 f i compiledIC.obj
 0001:00056690       ?constant_value@ClassConstant@@UBEPAVciObject@@XZ 08057690 f i c1_ValueType.obj
 0001:00056690       ?constant_value@ArrayConstant@@UBEPAVciObject@@XZ 08057690 f i c1_ValueType.obj
 0001:00056690       ?constant_value@InstanceConstant@@UBEPAVciObject@@XZ 08057690 f i c1_ValueType.obj
 0001:00056690       ?name@ClassPathZipEntry@@UAEPBDXZ 08057690 f i classLoader.obj
 0001:000566a0       ?next_compaction_space@CompactibleSpace@@UBEPAV1@XZ 080576a0 f i compactingPermGenGen.obj
 0001:000566b0       ?adjust_object_size_v@CompactibleSpace@@UBEII@Z 080576b0 f i compactingPermGenGen.obj
 0001:000566c0       ?set_saved_mark@ContiguousSpace@@UAEXXZ 080576c0 f i compactingPermGenGen.obj
 0001:000566d0       ?used@ContiguousSpace@@UBEIXZ 080576d0 f i compactingPermGenGen.obj
 0001:000566e0       ?free@ContiguousSpace@@UBEIXZ 080576e0 f i compactingPermGenGen.obj
 0001:000566f0       ?used_region@ContiguousSpace@@UBE?AVMemRegion@@XZ 080576f0 f i compactingPermGenGen.obj
 0001:00056710       ?used_region_at_save_marks@ContiguousSpace@@UBE?AVMemRegion@@XZ 08057710 f i compactingPermGenGen.obj
 0001:00056710       ?used_region_at_save_marks@Space@@UBE?AVMemRegion@@XZ 08057710 f i space.obj
 0001:00056730       ?obj_allocated_since_save_marks@ContiguousSpace@@UBE_NQAVoopDesc@@@Z 08057730 f i compactingPermGenGen.obj
 0001:00056750       ?block_is_obj@ContiguousSpace@@UBE_NPBVHeapWord@@@Z 08057750 f i compactingPermGenGen.obj
 0001:00056770       ?block_start@Space@@UAEPAVHeapWord@@PBX@Z 08057770 f i compactingPermGenGen.obj
 0001:00056770       ?par_allocate@ConcurrentMarkSweepGeneration@@UAEPAVHeapWord@@I_N@Z 08057770 f i generationSpec.obj
 0001:00056780       ?allocate@OffsetTableContigSpace@@UAEPAVHeapWord@@I@Z 08057780 f i compactingPermGenGen.obj
 0001:000567b0       ?par_allocate@OffsetTableContigSpace@@UAEPAVHeapWord@@I@Z 080577b0 f i compactingPermGenGen.obj
 0001:00056800       ?update_counters@CompactingPermGenGen@@UAEXXZ 08057800 f   compactingPermGenGen.obj
 0001:00056850       ?space_iterate@CompactingPermGenGen@@UAEXPAVSpaceClosure@@_N@Z 08057850 f   compactingPermGenGen.obj
 0001:000568a0       ?print_on@CompactingPermGenGen@@UBEXPAVoutputStream@@@Z 080578a0 f   compactingPermGenGen.obj
 0001:00056920       ?younger_refs_iterate@CompactingPermGenGen@@UAEXPAVOopsInGenClosure@@@Z 08057920 f   compactingPermGenGen.obj
 0001:00056980       ?adjust_pointers@CompactingPermGenGen@@UAEXXZ 08057980 f   compactingPermGenGen.obj
 0001:00056990       ?compact@CompactingPermGenGen@@UAEXXZ 08057990 f   compactingPermGenGen.obj
 0001:000569a0       ?clear_remembered_set@CompactingPermGenGen@@UAEXXZ 080579a0 f   compactingPermGenGen.obj
 0001:000569d0       ?verify@CompactingPermGenGen@@UAEX_N@Z 080579d0 f   compactingPermGenGen.obj
 0001:00056a30       ?reset_after_compaction@ContiguousSpace@@UAEXXZ 08057a30 f i compactingPermGenGen.obj
 0001:00056a40       ?block_start@G1OffsetTableContigSpace@@UAEPAVHeapWord@@PBX@Z 08057a40 f i heapRegion.obj
 0001:00056a40       ?block_start_const@OffsetTableContigSpace@@UBEPAVHeapWord@@PBX@Z 08057a40 f i compactingPermGenGen.obj
 0001:00056a70       ?pre_adjust_pointers@CompactingPermGenGen@@UAEXXZ 08057a70 f   compactingPermGenGen.obj
 0001:00056b00       ??0OneContigSpaceCardGeneration@@QAE@VReservedSpace@@IIHPAVGenRemSet@@PAVContiguousSpace@@@Z 08057b00 f i compactingPermGenGen.obj
 0001:00056b70       ?kind@PSScavengeMemoryManager@@UAE?AW4Name@MemoryManager@@XZ 08057b70 f i memoryManager.obj
 0001:00056b70       ?kind@Generation@@UAE?AW4Name@1@XZ 08057b70 f i compactingPermGenGen.obj
 0001:00056b70       ?type@runtime_call_Relocation@@EAE?AW4relocType@relocInfo@@XZ 08057b70 f i relocInfo.obj
 0001:00056b70       ?type@VM_ForceAsyncSafepoint@@UBE?AW4VMOp_Type@VM_Operation@@XZ 08057b70 f i synchronizer.obj
 0001:00056b80       ?is_maximal_no_gc@Generation@@UBE_NXZ 08057b80 f i compactingPermGenGen.obj
 0001:00056b90       ?save_used_region@Generation@@UAEXXZ 08057b90 f i compactingPermGenGen.obj
 0001:00056bc0       ?should_allocate@Generation@@UAE_NI_N@Z 08057bc0 f i compactingPermGenGen.obj
 0001:00056c00       ?allocation_limit_reached@Generation@@UAEPAVHeapWord@@PAVSpace@@PAV2@I@Z 08057c00 f i compactingPermGenGen.obj
 0001:00056c10       ?tlab_capacity@Generation@@UBEIXZ 08057c10 f i compactingPermGenGen.obj
 0001:00056c30       ?unsafe_max_tlab_alloc@Generation@@UBEIXZ 08057c30 f i compactingPermGenGen.obj
 0001:00056c50       ?should_collect@Generation@@UAE_N_NI0@Z 08057c50 f i compactingPermGenGen.obj
 0001:00056c50       ?should_collect@ConcurrentMarkSweepGeneration@@UAE_N_NI0@Z 08057c50 f i concurrentMarkSweepGeneration.obj
 0001:00056c80       ?collection_attempt_is_safe@Generation@@UAE_NXZ 08057c80 f i compactingPermGenGen.obj
 0001:00056ca0       ?time_of_last_gc@Generation@@UAE_J_J@Z 08057ca0 f i compactingPermGenGen.obj
 0001:00056cb0       ?update_time_of_last_gc@Generation@@UAEX_J@Z 08057cb0 f i compactingPermGenGen.obj
 0001:00056cd0       ?pre_adjust_pointers@Generation@@UAEXXZ 08057cd0 f i compactingPermGenGen.obj
 0001:00056cf0       ?post_compact@Generation@@UAEXXZ 08057cf0 f i compactingPermGenGen.obj
 0001:00056d10       ?counters@Generation@@UAEPAVCollectorCounters@@XZ 08057d10 f i compactingPermGenGen.obj
 0001:00056d20       ?is_in@OneContigSpaceCardGeneration@@UBE_NPBX@Z 08057d20 f i compactingPermGenGen.obj
 0001:00056d30       ?first_compaction_space@OneContigSpaceCardGeneration@@UBEPAVCompactibleSpace@@XZ 08057d30 f i compactingPermGenGen.obj
 0001:00056d40       ?allocate@OneContigSpaceCardGeneration@@UAEPAVHeapWord@@I_N@Z 08057d40 f i compactingPermGenGen.obj
 0001:00056d60       ?par_allocate@OneContigSpaceCardGeneration@@UAEPAVHeapWord@@I_N@Z 08057d60 f i compactingPermGenGen.obj
 0001:00056d80       ?block_is_obj@OneContigSpaceCardGeneration@@UBE_NPBVHeapWord@@@Z 08057d80 f i compactingPermGenGen.obj
 0001:00056da0       ?block_size@OneContigSpaceCardGeneration@@UBEIPBVHeapWord@@@Z 08057da0 f i compactingPermGenGen.obj
 0001:00056dd0       ?do_object@AdjustSharedObjectClosure@@UAEXPAVoopDesc@@@Z 08057dd0 f i compactingPermGenGen.obj
 0001:00056e10       ?adjust_pointers@oopDesc@@QAEHXZ 08057e10 f i compactingPermGenGen.obj
 0001:00056e20       ?prototype_for_object@markOopDesc@@SAPAV1@PAVoopDesc@@@Z 08057e20 f i compactingPermGenGen.obj
 0001:00056e30       ??0CompactingPermGenGen@@QAE@VReservedSpace@@0IHPAVGenRemSet@@PAVContiguousSpace@@PAVPermanentGenerationSpec@@@Z 08057e30 f   compactingPermGenGen.obj
 0001:00057590       ?name@CompactingPermGenGen@@UBEPBDXZ 08058590 f i compactingPermGenGen.obj
 0001:000575a0       ?short_name@CompactingPermGenGen@@UBEPBDXZ 080585a0 f i compactingPermGenGen.obj
 0001:000575b0       ?is_in@CompactingPermGenGen@@UBE_NPBX@Z 080585b0 f i compactingPermGenGen.obj
 0001:000575f0       ?block_is_obj@CompactingPermGenGen@@UBE_NPBVHeapWord@@@Z 080585f0 f i compactingPermGenGen.obj
 0001:00057640       ?block_size@CompactingPermGenGen@@UBEIPBVHeapWord@@@Z 08058640 f i compactingPermGenGen.obj
 0001:000576e0       ?do_oop@RecursiveAdjustSharedObjectClosure@@UAEXPAPAVoopDesc@@@Z 080586e0 f i compactingPermGenGen.obj
 0001:000576f0       ??$do_oop_work@PAVoopDesc@@@RecursiveAdjustSharedObjectClosure@@IAEXPAPAVoopDesc@@@Z 080586f0 f i compactingPermGenGen.obj
 0001:00057760       ?init_mark@oopDesc@@QAEXXZ 08058760 f i compactingPermGenGen.obj
 0001:00057780       ?do_oop@RecursiveAdjustSharedObjectClosure@@UAEXPAI@Z 08058780 f i compactingPermGenGen.obj
 0001:00057790       ??$do_oop_work@I@RecursiveAdjustSharedObjectClosure@@IAEXPAI@Z 08058790 f i compactingPermGenGen.obj
 0001:00057820       ?do_oop@TraversePlaceholdersClosure@@UAEXPAPAVoopDesc@@@Z 08058820 f i compactingPermGenGen.obj
 0001:00057830       ??$do_oop_work@PAVoopDesc@@@TraversePlaceholdersClosure@@IAEXPAPAVoopDesc@@@Z 08058830 f i compactingPermGenGen.obj
 0001:000578a0       ?do_oop@TraversePlaceholdersClosure@@UAEXPAI@Z 080588a0 f i compactingPermGenGen.obj
 0001:000578b0       ??$do_oop_work@I@TraversePlaceholdersClosure@@IAEXPAI@Z 080588b0 f i compactingPermGenGen.obj
 0001:00057930       ?do_void@EvacuateFollowersClosure@DefNewGeneration@@UAEXXZ 08058930 f   defNewGeneration.obj
 0001:00057960       ?expand_and_allocate@DefNewGeneration@@UAEPAVHeapWord@@I_N0@Z 08058960 f   defNewGeneration.obj
 0001:00057980       ?name@DefNewGeneration@@UBEPBDXZ 08058980 f   defNewGeneration.obj
 0001:00057990       ?unsafe_max_tlab_alloc@DefNewGeneration@@UBEIXZ 08058990 f   defNewGeneration.obj
 0001:000579a0       ?incr_age@markOopDesc@@QBEPAV1@XZ 080589a0 f i defNewGeneration.obj
 0001:000579d0       ?decode_pointer@markOopDesc@@QAEPAXXZ 080589d0 f i defNewGeneration.obj
 0001:000579f0       ?set_bottom@Space@@UAEXPAVHeapWord@@@Z 080589f0 f i defNewGeneration.obj
 0001:000579f0       ?set_bottom@MutableSpace@@UAEXPAVHeapWord@@@Z 080589f0 f i mutableNUMASpace.obj
 0001:00057a00       ?cross_threshold@CompactibleSpace@@MAEPAVHeapWord@@PAV2@0@Z 08058a00 f i defNewGeneration.obj
 0001:00057a10       ?set_end@EdenSpace@@UAEXPAVHeapWord@@@Z 08058a10 f i defNewGeneration.obj
 0001:00057a20       ?incr_age@oopDesc@@QAEXXZ  08058a20 f i defNewGeneration.obj
 0001:00057ab0       ??0IsAliveClosure@DefNewGeneration@@QAE@PAVGeneration@@@Z 08058ab0 f   defNewGeneration.obj
 0001:00057ad0       ?do_object_b@IsAliveClosure@DefNewGeneration@@UAE_NPAVoopDesc@@@Z 08058ad0 f   defNewGeneration.obj
 0001:00057b10       ??0KeepAliveClosure@DefNewGeneration@@QAE@PAVScanWeakRefClosure@@@Z 08058b10 f   defNewGeneration.obj
 0001:00057b40       ??0ScanWeakRefClosure@@QAE@PAVDefNewGeneration@@@Z 08058b40 f   defNewGeneration.obj
 0001:00057b70       ?do_oop@FilteringClosure@@UAEXPAPAVoopDesc@@@Z 08058b70 f   defNewGeneration.obj
 0001:00057b90       ?do_oop@FilteringClosure@@UAEXPAI@Z 08058b90 f   defNewGeneration.obj
 0001:00057bc0       ?compute_space_boundaries@DefNewGeneration@@IAEXI_N0@Z 08058bc0 f   defNewGeneration.obj
 0001:00057d00       ?swap_spaces@DefNewGeneration@@IAEXXZ 08058d00 f   defNewGeneration.obj
 0001:00057d50       ?expand@DefNewGeneration@@QAE_NI@Z 08058d50 f   defNewGeneration.obj
 0001:00057da0       ?compute_new_size@DefNewGeneration@@UAEXXZ 08058da0 f   defNewGeneration.obj
 0001:00057ec0       ?object_iterate_since_last_GC@DefNewGeneration@@UAEXPAVObjectClosure@@@Z 08058ec0 f   defNewGeneration.obj
 0001:00057ed0       ?capacity@DefNewGeneration@@UBEIXZ 08058ed0 f   defNewGeneration.obj
 0001:00057ef0       ?used@DefNewGeneration@@UBEIXZ 08058ef0 f   defNewGeneration.obj
 0001:00057f20       ?free@DefNewGeneration@@UBEIXZ 08058f20 f   defNewGeneration.obj
 0001:00057f50       ?max_capacity@DefNewGeneration@@UBEIXZ 08058f50 f   defNewGeneration.obj
 0001:00057f90       ?tlab_capacity@DefNewGeneration@@UBEIXZ 08058f90 f   defNewGeneration.obj
 0001:00057f90       ?capacity_before_gc@DefNewGeneration@@UBEIXZ 08058f90 f   defNewGeneration.obj
 0001:00057fa0       ?unsafe_max_alloc_nogc@DefNewGeneration@@UBEIXZ 08058fa0 f   defNewGeneration.obj
 0001:00057fa0       ?contiguous_available@DefNewGeneration@@UBEIXZ 08058fa0 f   defNewGeneration.obj
 0001:00057fb0       ?top_addr@DefNewGeneration@@UBEPAPAVHeapWord@@XZ 08058fb0 f   defNewGeneration.obj
 0001:00057fc0       ?end_addr@DefNewGeneration@@UBEPAPAVHeapWord@@XZ 08058fc0 f   defNewGeneration.obj
 0001:00057fd0       ?object_iterate@DefNewGeneration@@UAEXPAVObjectClosure@@@Z 08058fd0 f   defNewGeneration.obj
 0001:00058000       ?space_iterate@DefNewGeneration@@UAEXPAVSpaceClosure@@_N@Z 08059000 f   defNewGeneration.obj
 0001:00058040       ?init_assuming_no_promotion_failure@DefNewGeneration@@IAEXXZ 08059040 f   defNewGeneration.obj
 0001:00058060       ?save_marks@DefNewGeneration@@UAEXXZ 08059060 f   defNewGeneration.obj
 0001:00058090       ?reset_saved_marks@DefNewGeneration@@UAEXXZ 08059090 f   defNewGeneration.obj
 0001:000580c0       ?no_allocs_since_save_marks@DefNewGeneration@@UAE_NXZ 080590c0 f   defNewGeneration.obj
 0001:000580e0       ?oop_since_save_marks_iterate_v@DefNewGeneration@@UAEXPAVOopsInGenClosure@@@Z 080590e0 f   defNewGeneration.obj
 0001:00058140       ?oop_since_save_marks_iterate_nv@DefNewGeneration@@UAEXPAVScanClosure@@@Z 08059140 f   defNewGeneration.obj
 0001:000581a0       ?oop_since_save_marks_iterate_nv@DefNewGeneration@@UAEXPAVFastScanClosure@@@Z 080591a0 f   defNewGeneration.obj
 0001:00058200       ?oop_since_save_marks_iterate_nv@DefNewGeneration@@UAEXPAVParScanWithBarrierClosure@@@Z 08059200 f   defNewGeneration.obj
 0001:00058260       ?oop_since_save_marks_iterate_nv@DefNewGeneration@@UAEXPAVParScanWithoutBarrierClosure@@@Z 08059260 f   defNewGeneration.obj
 0001:000582c0       ?contribute_scratch@DefNewGeneration@@UAEXAAPAUScratchBlock@@PAVGeneration@@I@Z 080592c0 f   defNewGeneration.obj
 0001:00058300       ?collection_attempt_is_safe@DefNewGeneration@@UAE_NXZ 08059300 f   defNewGeneration.obj
 0001:00058360       ?gc_epilogue@DefNewGeneration@@UAEX_N@Z 08059360 f   defNewGeneration.obj
 0001:000583e0       ?update_counters@DefNewGeneration@@UAEXXZ 080593e0 f   defNewGeneration.obj
 0001:000584a0       ?verify@DefNewGeneration@@UAEX_N@Z 080594a0 f   defNewGeneration.obj
 0001:000584e0       ?print_on@DefNewGeneration@@UBEXPAVoutputStream@@@Z 080594e0 f   defNewGeneration.obj
 0001:00058550       ?first_compaction_space@DefNewGeneration@@UBEPAVCompactibleSpace@@XZ 08059550 f   defNewGeneration.obj
 0001:00058560       ?par_allocate@DefNewGeneration@@UAEPAVHeapWord@@I_N@Z 08059560 f   defNewGeneration.obj
 0001:00058580       ?gc_prologue@DefNewGeneration@@UAEX_N@Z 08059580 f   defNewGeneration.obj
 0001:00058590       ??$do_barrier@PAVoopDesc@@@OopsInGenClosure@@IAEXPAPAVoopDesc@@@Z 08059590 f i defNewGeneration.obj
 0001:000585c0       ??$do_barrier@I@OopsInGenClosure@@IAEXPAI@Z 080595c0 f i defNewGeneration.obj
 0001:00058600       ?do_void@FastEvacuateFollowersClosure@DefNewGeneration@@UAEXXZ 08059600 f   defNewGeneration.obj
 0001:00058650       ??0ScanClosure@@QAE@PAVDefNewGeneration@@_N@Z 08059650 f   defNewGeneration.obj
 0001:000586b0       ?allocate_from_space@DefNewGeneration@@QAEPAVHeapWord@@I@Z 080596b0 f   defNewGeneration.obj
 0001:00058730       ?allocate@DefNewGeneration@@UAEPAVHeapWord@@I_N@Z 08059730 f   defNewGeneration.obj
 0001:000587f0       ?push_segment@?$Stack@PAVKlass@@@@IAEXXZ 080597f0 f i markSweep.obj
 0001:000587f0       ?push_segment@?$Stack@I@@IAEXXZ 080597f0 f i psParallelCompact.obj
 0001:000587f0       ?push_segment@?$Stack@PAVmarkOopDesc@@@@IAEXXZ 080597f0 f i defNewGeneration.obj
 0001:000587f0       ?push_segment@?$Stack@VStarTask@@@@IAEXXZ 080597f0 f i constantPoolKlass.obj
 0001:000587f0       ?push_segment@?$Stack@PAVDataLayout@@@@IAEXXZ 080597f0 f i markSweep.obj
 0001:000587f0       ?push_segment@?$Stack@PAVoopDesc@@@@IAEXXZ 080597f0 f i defNewGeneration.obj
 0001:00058870       ?do_object@RemoveForwardPointerClosure@@UAEXPAVoopDesc@@@Z 08059870 f i defNewGeneration.obj
 0001:00058880       ?must_be_preserved_for_promotion_failure@markOopDesc@@QBE_NPAVoopDesc@@@Z 08059880 f i defNewGeneration.obj
 0001:000588e0       ?remove_forwarding_pointers@DefNewGeneration@@IAEXXZ 080598e0 f   defNewGeneration.obj
 0001:00058ac0       ?preserve_mark@DefNewGeneration@@IAEXPAVoopDesc@@PAVmarkOopDesc@@@Z 08059ac0 f   defNewGeneration.obj
 0001:00058b30       ?drain_promo_failure_scan_stack@DefNewGeneration@@IAEXXZ 08059b30 f   defNewGeneration.obj
 0001:00058c00       ??0DefNewGeneration@@QAE@VReservedSpace@@IHPBD@Z 08059c00 f   defNewGeneration.obj
 0001:00058fa0       ?used_region@Generation@@UBE?AVMemRegion@@XZ 08059fa0 f i defNewGeneration.obj
 0001:00058fc0       ?should_allocate@DefNewGeneration@@UAE_NI_N@Z 08059fc0 f i defNewGeneration.obj
 0001:00059010       ?short_name@DefNewGeneration@@UBEPBDXZ 0805a010 f i defNewGeneration.obj
 0001:00059020       ?collect@DefNewGeneration@@UAEX_N0I0@Z 0805a020 f   defNewGeneration.obj
 0001:000593c0       ?handle_promotion_failure@DefNewGeneration@@IAEXPAVoopDesc@@@Z 0805a3c0 f   defNewGeneration.obj
 0001:00059480       ?copy_to_survivor_space@DefNewGeneration@@QAEPAVoopDesc@@PAV2@@Z 0805a480 f   defNewGeneration.obj
 0001:00059550       ??$do_oop_work@PAVoopDesc@@@ScanClosure@@IAEXPAPAVoopDesc@@@Z 0805a550 f i defNewGeneration.obj
 0001:000595c0       ??$do_oop_work@I@ScanClosure@@IAEXPAI@Z 0805a5c0 f i defNewGeneration.obj
 0001:00059670       ??$do_oop_work@PAVoopDesc@@@FastScanClosure@@IAEXPAPAVoopDesc@@@Z 0805a670 f i defNewGeneration.obj
 0001:000596e0       ??$do_oop_work@I@FastScanClosure@@IAEXPAI@Z 0805a6e0 f i defNewGeneration.obj
 0001:00059760       ??$do_oop_work@PAVoopDesc@@@ScanWeakRefClosure@@IAEXPAPAVoopDesc@@@Z 0805a760 f i defNewGeneration.obj
 0001:000597d0       ??$do_oop_work@I@ScanWeakRefClosure@@IAEXPAI@Z 0805a7d0 f i defNewGeneration.obj
 0001:00059850       ?do_oop@ScanClosure@@UAEXPAPAVoopDesc@@@Z 0805a850 f   defNewGeneration.obj
 0001:00059860       ?do_oop@ScanClosure@@UAEXPAI@Z 0805a860 f   defNewGeneration.obj
 0001:00059870       ?do_oop@FastScanClosure@@UAEXPAPAVoopDesc@@@Z 0805a870 f   defNewGeneration.obj
 0001:00059880       ?do_oop@FastScanClosure@@UAEXPAI@Z 0805a880 f   defNewGeneration.obj
 0001:00059890       ?do_oop@ScanWeakRefClosure@@UAEXPAPAVoopDesc@@@Z 0805a890 f   defNewGeneration.obj
 0001:000598a0       ?do_oop@ScanWeakRefClosure@@UAEXPAI@Z 0805a8a0 f   defNewGeneration.obj
 0001:000598b0       ??$do_oop_work@I@FastKeepAliveClosure@DefNewGeneration@@IAEXPAI@Z 0805a8b0 f i defNewGeneration.obj
 0001:00059910       ?do_oop@KeepAliveClosure@DefNewGeneration@@UAEXPAPAVoopDesc@@@Z 0805a910 f   defNewGeneration.obj
 0001:00059950       ?do_oop@KeepAliveClosure@DefNewGeneration@@UAEXPAI@Z 0805a950 f   defNewGeneration.obj
 0001:00059990       ?do_oop@FastKeepAliveClosure@DefNewGeneration@@UAEXPAPAVoopDesc@@@Z 0805a990 f   defNewGeneration.obj
 0001:000599e0       ?do_oop@FastKeepAliveClosure@DefNewGeneration@@UAEXPAI@Z 0805a9e0 f   defNewGeneration.obj
 0001:00059a40       ?do_oop@StringHashCodeClosure@@UAEXPAI@Z 0805aa40 f i dump.obj
 0001:00059a60       ?sort_methods@@YAXPAVinstanceKlass@@PAVThread@@@Z 0805aa60 f   dump.obj
 0001:00059ac0       ?type@VM_PopulateDumpSharedSpace@@UBE?AW4VMOp_Type@VM_Operation@@XZ 0805aac0 f i dump.obj
 0001:00059ad0       ?dump_shared@CompactingPermGenGen@@SAHPAV?$GrowableArray@PAVoopDesc@@@@PAVThread@@@Z 0805aad0 f   dump.obj
 0001:00059b90       ?do_object@LinkClassesClosure@@UAEXPAVoopDesc@@@Z 0805ab90 f i dump.obj
 0001:00059c50       ?preload_and_dump@GenCollectedHeap@@UAEXPAVThread@@@Z 0805ac50 f   dump.obj
 0001:0005a210       ?do_oop@StringHashCodeClosure@@UAEXPAPAVoopDesc@@@Z 0805b210 f i dump.obj
 0001:0005a2a0       ?doit@VM_PopulateDumpSharedSpace@@UAEXXZ 0805b2a0 f i dump.obj
 0001:0005abe0       ?do_oop@MarkObjectsOopClosure@@UAEXPAI@Z 0805bbe0 f i dump.obj
 0001:0005ac00       ?do_oop@ResolveForwardingClosure@@UAEXPAI@Z 0805bc00 f i dump.obj
 0001:0005ac20       ?do_space@ClearSpaceClosure@@UAEXPAVSpace@@@Z 0805bc20 f i dump.obj
 0001:0005ac40       ?do_oop@WriteClosure@@UAEXPAI@Z 0805bc40 f i dump.obj
 0001:0005ac60       ?do_size_t@WriteClosure@@UAEXPAI@Z 0805bc60 f i dump.obj
 0001:0005ac60       ?do_ptr@WriteClosure@@UAEXPAPAX@Z 0805bc60 f i dump.obj
 0001:0005ac60       ?do_int@WriteClosure@@UAEXPAH@Z 0805bc60 f i dump.obj
 0001:0005ac60       ?do_oop@WriteClosure@@UAEXPAPAVoopDesc@@@Z 0805bc60 f i dump.obj
 0001:0005aca0       ?do_tag@WriteClosure@@UAEXH@Z 0805bca0 f i dump.obj
 0001:0005ace0       ?do_region@WriteClosure@@UAEXPAEI@Z 0805bce0 f i dump.obj
 0001:0005ada0       ?do_oop@MarkObjectsOopClosure@@UAEXPAPAVoopDesc@@@Z 0805bda0 f i dump.obj
 0001:0005ade0       ?do_oop@ResolveForwardingClosure@@UAEXPAPAVoopDesc@@@Z 0805bde0 f i dump.obj
 0001:0005ae50       ?patch@PatchKlassVtables@@QAEXPAPAXH@Z 0805be50 f i dump.obj
 0001:0005aee0       ??0MarkCommonReadOnly@@QAE@XZ 0805bee0 f i dump.obj
 0001:0005af00       ??0MarkCommonSymbols@@QAE@XZ 0805bf00 f i dump.obj
 0001:0005af20       ??0MarkStringValues@@QAE@XZ 0805bf20 f i dump.obj
 0001:0005af40       ??0MarkReadWriteObjects@@QAE@XZ 0805bf40 f i dump.obj
 0001:0005af60       ??0MarkStringObjects@@QAE@XZ 0805bf60 f i dump.obj
 0001:0005af80       ?do_object@RemoveUnshareableInfoClosure@@UAEXPAVoopDesc@@@Z 0805bf80 f i dump.obj
 0001:0005aff0       ?do_object@MarkCommonReadOnly@@UAEXPAVoopDesc@@@Z 0805bff0 f i dump.obj
 0001:0005b1e0       ?do_oop@MarkObjectsSkippingKlassesOopClosure@@UAEXPAI@Z 0805c1e0 f i dump.obj
 0001:0005b200       ?do_oop@MarkObjectsSkippingKlassesOopClosure@@UAEXPAPAVoopDesc@@@Z 0805c200 f i dump.obj
 0001:0005b230       ?do_object@MarkStringValues@@UAEXPAVoopDesc@@@Z 0805c230 f i dump.obj
 0001:0005b290       ?do_object@MarkReadWriteObjects@@UAEXPAVoopDesc@@@Z 0805c290 f i dump.obj
 0001:0005b3a0       ?do_object@MarkStringObjects@@UAEXPAVoopDesc@@@Z 0805c3a0 f i dump.obj
 0001:0005b3d0       ?do_object@SortMethodsClosure@@UAEXPAVoopDesc@@@Z 0805c3d0 f i dump.obj
 0001:0005b410       ??0PatchOopsClosure@@QAE@PAVThread@@@Z 0805c410 f i dump.obj
 0001:0005b440       ?do_object@PatchOopsClosure@@UAEXPAVoopDesc@@@Z 0805c440 f i dump.obj
 0001:0005b6d0       ??0ClassifyInstanceKlassClosure@@QAE@XZ 0805c6d0 f i dump.obj
 0001:0005b700       ?do_object@ClearAllocCountClosure@@UAEXPAVoopDesc@@@Z 0805c700 f i dump.obj
 0001:0005b730       ??0PatchKlassVtables@@QAE@PAXPAVVirtualSpace@@@Z 0805c730 f i dump.obj
 0001:0005b780       ?do_object@FingerprintMethodsClosure@@UAEXPAVoopDesc@@@Z 0805c780 f i dump.obj
 0001:0005b820       ?do_object@MoveMarkedObjects@@UAEXPAVoopDesc@@@Z 0805c820 f i dump.obj
 0001:0005b900       ?do_object@PatchKlassVtables@@UAEXPAVoopDesc@@@Z 0805c900 f i dump.obj
 0001:0005b950       ?do_object@MarkCommonSymbols@@UAEXPAVoopDesc@@@Z 0805c950 f i dump.obj
 0001:0005baf0       ?do_object@MarkAndMoveOrderedReadOnly@@UAEXPAVoopDesc@@@Z 0805caf0 f i dump.obj
 0001:0005bde0       ?do_object@MarkAndMoveOrderedReadWrite@@UAEXPAVoopDesc@@@Z 0805cde0 f i dump.obj
 0001:0005bfb0       ?error_stream@defaultStream@@SAPAU_iobuf@@XZ 0805cfb0 f i filemap.obj
 0001:0005c050       ?fail_stop@FileMapInfo@@SAXPBDZZ 0805d050 f   filemap.obj
 0001:0005c070       ?close@FileMapInfo@@QAEXXZ 0805d070 f   filemap.obj
 0001:0005c0b0       ?assert_mark@FileMapInfo@@SAX_N@Z 0805d0b0 f   filemap.obj
 0001:0005c0d0       ?is_in_shared_space@FileMapInfo@@QAE_NPBX@Z 0805d0d0 f   filemap.obj
 0001:0005c110       ?fail_continue@FileMapInfo@@QAAXPBDZZ 0805d110 f   filemap.obj
 0001:0005c170       ?populate_header@FileMapInfo@@QAEXI@Z 0805d170 f   filemap.obj
 0001:0005c2a0       ?init_from_file@FileMapInfo@@AAE_NH@Z 0805d2a0 f   filemap.obj
 0001:0005c310       ?open_for_read@FileMapInfo@@QAE_NXZ 0805d310 f   filemap.obj
 0001:0005c380       ?open_for_write@FileMapInfo@@QAEXXZ 0805d380 f   filemap.obj
 0001:0005c420       ?write_bytes@FileMapInfo@@QAEXPBXH@Z 0805d420 f   filemap.obj
 0001:0005c4b0       ?align_file_position@FileMapInfo@@AAEXXZ 0805d4b0 f   filemap.obj
 0001:0005c520       ?remap_shared_readonly_as_readwrite@FileMapInfo@@QAE_NXZ 0805d520 f   filemap.obj
 0001:0005c5f0       ?validate@FileMapInfo@@QAE_NXZ 0805d5f0 f   filemap.obj
 0001:0005c790       ?write_header@FileMapInfo@@QAEXXZ 0805d790 f   filemap.obj
 0001:0005c7b0       ?write_region@FileMapInfo@@QAEXHPADII_N1@Z 0805d7b0 f   filemap.obj
 0001:0005c860       ?map_region@FileMapInfo@@QAEPADHVReservedSpace@@@Z 0805d860 f   filemap.obj
 0001:0005c930       ?initialize@FileMapInfo@@QAE_NXZ 0805d930 f   filemap.obj
 0001:0005c9a0       ?write_space@FileMapInfo@@QAEXHPAVCompactibleSpace@@_N@Z 0805d9a0 f   filemap.obj
 0001:0005c9e0       ?map_space@FileMapInfo@@QAE_NHVReservedSpace@@PAVContiguousSpace@@@Z 0805d9e0 f   filemap.obj
 0001:0005ca80       ?jni_lock_slow@GC_locker@@CAXXZ 0805da80 f   gcLocker.obj
 0001:0005caf0       ?jni_unlock_slow@GC_locker@@CAXXZ 0805daf0 f   gcLocker.obj
 0001:0005cba0       ?stall_until_clear@GC_locker@@SAXXZ 0805dba0 f   gcLocker.obj
 0001:0005cc60       ??0GenCollectedHeap@@QAE@PAVGenCollectorPolicy@@@Z 0805dc60 f   genCollectedHeap.obj
 0001:0005cce0       ?ref_processing_init@GenCollectedHeap@@UAEXXZ 0805dce0 f   genCollectedHeap.obj
 0001:0005cd10       ?capacity@GenCollectedHeap@@UBEIXZ 0805dd10 f   genCollectedHeap.obj
 0001:0005cd60       ?used@GenCollectedHeap@@UBEIXZ 0805dd60 f   genCollectedHeap.obj
 0001:0005cdb0       ?max_capacity@GenCollectedHeap@@UBEIXZ 0805ddb0 f   genCollectedHeap.obj
 0001:0005ce00       ?attempt_allocation@GenCollectedHeap@@IAEPAVHeapWord@@I_N0@Z 0805de00 f   genCollectedHeap.obj
 0001:0005ce70       ?mem_allocate@GenCollectedHeap@@UAEPAVHeapWord@@I_N0PA_N@Z 0805de70 f   genCollectedHeap.obj
 0001:0005cea0       ?must_clear_all_soft_refs@GenCollectedHeap@@IAE_NXZ 0805dea0 f   genCollectedHeap.obj
 0001:0005ceb0       ?satisfy_failed_allocation@GenCollectedHeap@@IAEPAVHeapWord@@I_N@Z 0805deb0 f   genCollectedHeap.obj
 0001:0005ced0       ?set_par_threads@GenCollectedHeap@@UAEXH@Z 0805ded0 f   genCollectedHeap.obj
 0001:0005cf00       ?supports_inline_contig_alloc@GenCollectedHeap@@UBE_NXZ 0805df00 f   genCollectedHeap.obj
 0001:0005cf10       ?top_addr@GenCollectedHeap@@UBEPAPAVHeapWord@@XZ 0805df10 f   genCollectedHeap.obj
 0001:0005cf20       ?end_addr@GenCollectedHeap@@UBEPAPAVHeapWord@@XZ 0805df20 f   genCollectedHeap.obj
 0001:0005cf30       ?unsafe_max_alloc@GenCollectedHeap@@UAEIXZ 0805df30 f   genCollectedHeap.obj
 0001:0005cf40       ?oop_iterate@GenCollectedHeap@@UAEXPAVOopClosure@@@Z 0805df40 f   genCollectedHeap.obj
 0001:0005cf80       ?object_iterate_since_last_GC@GenCollectedHeap@@UAEXPAVObjectClosure@@@Z 0805df80 f   genCollectedHeap.obj
 0001:0005cfc0       ?supports_tlab_allocation@GenCollectedHeap@@UBE_NXZ 0805dfc0 f   genCollectedHeap.obj
 0001:0005d000       ?tlab_capacity@GenCollectedHeap@@UBEIPAVThread@@@Z 0805e000 f   genCollectedHeap.obj
 0001:0005d050       ?unsafe_max_tlab_alloc@GenCollectedHeap@@UBEIPAVThread@@@Z 0805e050 f   genCollectedHeap.obj
 0001:0005d0a0       ?allocate_new_tlab@GenCollectedHeap@@UAEPAVHeapWord@@I@Z 0805e0a0 f   genCollectedHeap.obj
 0001:0005d120       ?gather_scratch@GenCollectedHeap@@QAEPAUScratchBlock@@PAVGeneration@@I@Z 0805e120 f   genCollectedHeap.obj
 0001:0005d180       ?release_scratch@GenCollectedHeap@@QAEXXZ 0805e180 f   genCollectedHeap.obj
 0001:0005d1b0       ?generation_iterate@GenCollectedHeap@@QAEXPAVGenClosure@1@_N@Z 0805e1b0 f   genCollectedHeap.obj
 0001:0005d210       ?is_maximal_no_gc@GenCollectedHeap@@UBE_NXZ 0805e210 f   genCollectedHeap.obj
 0001:0005d250       ?heap@GenCollectedHeap@@SAPAV1@XZ 0805e250 f   genCollectedHeap.obj
 0001:0005d260       ?print@GenCollectedHeap@@UBEXXZ 0805e260 f   genCollectedHeap.obj
 0001:0005d260       ?print@ParallelScavengeHeap@@UBEXXZ 0805e260 f   parallelScavengeHeap.obj
 0001:0005d260       ?print@G1CollectedHeap@@UBEXXZ 0805e260 f   g1CollectedHeap.obj
 0001:0005d270       ?do_generation@GenGCPrologueClosure@@UAEXPAVGeneration@@@Z 0805e270 f i genCollectedHeap.obj
 0001:0005d290       ?do_generation@GenGCEpilogueClosure@@UAEXPAVGeneration@@@Z 0805e290 f i genCollectedHeap.obj
 0001:0005d2b0       ?do_generation@GenEnsureParsabilityClosure@@UAEXPAVGeneration@@@Z 0805e2b0 f i genCollectedHeap.obj
 0001:0005d2d0       ?collector_policy@SharedHeap@@UBEPAVCollectorPolicy@@XZ 0805e2d0 f i genCollectedHeap.obj
 0001:0005d2d0       ?collector_policy@ParallelScavengeHeap@@UBEPAVCollectorPolicy@@XZ 0805e2d0 f i universe.obj
 0001:0005d2e0       ?permanent_capacity@SharedHeap@@UBEIXZ 0805e2e0 f i genCollectedHeap.obj
 0001:0005d2f0       ?permanent_used@SharedHeap@@UBEIXZ 0805e2f0 f i genCollectedHeap.obj
 0001:0005d300       ?is_in_permanent@SharedHeap@@UBE_NPBX@Z 0805e300 f i genCollectedHeap.obj
 0001:0005d340       ?is_permanent@SharedHeap@@UBE_NPBX@Z 0805e340 f i genCollectedHeap.obj
 0001:0005d360       ?permanent_mem_allocate@SharedHeap@@UAEPAVHeapWord@@I@Z 0805e360 f i genCollectedHeap.obj
 0001:0005d370       ?permanent_oop_iterate@SharedHeap@@UAEXPAVOopClosure@@@Z 0805e370 f i genCollectedHeap.obj
 0001:0005d380       ?permanent_object_iterate@SharedHeap@@UAEXPAVObjectClosure@@@Z 0805e380 f i genCollectedHeap.obj
 0001:0005d390       ?print_test@AdaptiveSizePolicyOutput@@AAE_NI@Z 0805e390 f i genCollectedHeap.obj
 0001:0005d3e0       ?size_policy@GenCollectedHeap@@UAEPAVAdaptiveSizePolicy@@XZ 0805e3e0 f i genCollectedHeap.obj
 0001:0005d3f0       ?is_in_closed_subset@GenCollectedHeap@@UBE_NPBX@Z 0805e3f0 f i genCollectedHeap.obj
 0001:0005d410       ?card_mark_must_follow_store@GenCollectedHeap@@UBE_NXZ 0805e410 f i genCollectedHeap.obj
 0001:0005d420       ?can_elide_initializing_store_barrier@GenCollectedHeap@@UAE_NPAVoopDesc@@@Z 0805e420 f i genCollectedHeap.obj
 0001:0005d420       ?is_in_youngest@GenCollectedHeap@@QAE_NPAX@Z 0805e420 f i genCollectedHeap.obj
 0001:0005d430       ?can_elide_permanent_oop_store_barriers@GenCollectedHeap@@UBE_NXZ 0805e430 f i genCollectedHeap.obj
 0001:0005d440       ?type@VM_GenCollectFull@@UBE?AW4VMOp_Type@VM_Operation@@XZ 0805e440 f i genCollectedHeap.obj
 0001:0005d450       ?type@VM_GenCollectFullConcurrent@@UBE?AW4VMOp_Type@VM_Operation@@XZ 0805e450 f i genCollectedHeap.obj
 0001:0005d460       ?allocate@GenCollectedHeap@@QAEPADIPAVPermanentGenerationSpec@@PAIPAHPAVReservedSpace@@@Z 0805e460 f   genCollectedHeap.obj
 0001:0005d5c0       ?post_initialize@GenCollectedHeap@@UAEXXZ 0805e5c0 f   genCollectedHeap.obj
 0001:0005d660       ?save_used_regions@GenCollectedHeap@@QAEXH_N@Z 0805e660 f   genCollectedHeap.obj
 0001:0005d6a0       ?update_full_collections_completed@GenCollectedHeap@@QAEII@Z 0805e6a0 f   genCollectedHeap.obj
 0001:0005d700       ?do_oop@AssertIsPermClosure@@UAEXPAI@Z 0805e700 f i genCollectedHeap.obj
 0001:0005d720       ?gen_process_weak_roots@GenCollectedHeap@@QAEXPAVOopClosure@@PAVCodeBlobClosure@@0@Z 0805e720 f   genCollectedHeap.obj
 0001:0005d770       ?oop_since_save_marks_iterate@GenCollectedHeap@@QAEXHPAVOopsInGenClosure@@0@Z 0805e770 f   genCollectedHeap.obj
 0001:0005d7d0       ?oop_since_save_marks_iterate@GenCollectedHeap@@QAEXHPAVScanClosure@@0@Z 0805e7d0 f   genCollectedHeap.obj
 0001:0005d830       ?oop_since_save_marks_iterate@GenCollectedHeap@@QAEXHPAVFastScanClosure@@0@Z 0805e830 f   genCollectedHeap.obj
 0001:0005d890       ?no_allocs_since_save_marks@GenCollectedHeap@@QAE_NH@Z 0805e890 f   genCollectedHeap.obj
 0001:0005d8f0       ?collect_locked@GenCollectedHeap@@AAEXW4Cause@GCCause@@H@Z 0805e8f0 f   genCollectedHeap.obj
 0001:0005d9a0       ?collect_mostly_concurrent@GenCollectedHeap@@AAEXW4Cause@GCCause@@@Z 0805e9a0 f   genCollectedHeap.obj
 0001:0005da50       ?is_in@GenCollectedHeap@@UBE_NPBX@Z 0805ea50 f   genCollectedHeap.obj
 0001:0005db20       ?oop_iterate@GenCollectedHeap@@UAEXVMemRegion@@PAVOopClosure@@@Z 0805eb20 f   genCollectedHeap.obj
 0001:0005db70       ?object_iterate@GenCollectedHeap@@UAEXPAVObjectClosure@@@Z 0805eb70 f   genCollectedHeap.obj
 0001:0005dbc0       ?safe_object_iterate@GenCollectedHeap@@UAEXPAVObjectClosure@@@Z 0805ebc0 f   genCollectedHeap.obj
 0001:0005dc10       ?space_containing@GenCollectedHeap@@UBEPAVSpace@@PBX@Z 0805ec10 f   genCollectedHeap.obj
 0001:0005dc60       ?block_start@GenCollectedHeap@@UBEPAVHeapWord@@PBX@Z 0805ec60 f   genCollectedHeap.obj
 0001:0005dcf0       ?block_size@GenCollectedHeap@@UBEIPBVHeapWord@@@Z 0805ecf0 f   genCollectedHeap.obj
 0001:0005dd80       ?block_is_obj@GenCollectedHeap@@UBE_NPBVHeapWord@@@Z 0805ed80 f   genCollectedHeap.obj
 0001:0005de10       ?large_typearray_limit@GenCollectedHeap@@UAEIXZ 0805ee10 f   genCollectedHeap.obj
 0001:0005de20       ?do_generation@GenPrepareForVerifyClosure@@EAEXPAVGeneration@@@Z 0805ee20 f i genCollectedHeap.obj
 0001:0005de40       ?space_iterate@GenCollectedHeap@@UAEXPAVSpaceClosure@@@Z 0805ee40 f   genCollectedHeap.obj
 0001:0005de90       ?save_marks@GenCollectedHeap@@QAEXXZ 0805ee90 f   genCollectedHeap.obj
 0001:0005ded0       ?prepare_for_compaction@GenCollectedHeap@@AAEXXZ 0805eed0 f   genCollectedHeap.obj
 0001:0005df20       ?gc_stats@GenCollectedHeap@@QBEPAVGCStats@@H@Z 0805ef20 f   genCollectedHeap.obj
 0001:0005df40       ?verify@GenCollectedHeap@@UAEX_N00@Z 0805ef40 f   genCollectedHeap.obj
 0001:0005e020       ?print_on@GenCollectedHeap@@UBEXPAVoutputStream@@@Z 0805f020 f   genCollectedHeap.obj
 0001:0005e070       ?gc_threads_do@GenCollectedHeap@@UBEXPAVThreadClosure@@@Z 0805f070 f   genCollectedHeap.obj
 0001:0005e0a0       ?print_gc_threads_on@GenCollectedHeap@@UBEXPAVoutputStream@@@Z 0805f0a0 f   genCollectedHeap.obj
 0001:0005e0d0       ?print_tracing_info@GenCollectedHeap@@UBEXXZ 0805f0d0 f   genCollectedHeap.obj
 0001:0005e120       ?gc_prologue@GenCollectedHeap@@MAEX_N@Z 0805f120 f   genCollectedHeap.obj
 0001:0005e1a0       ?gc_epilogue@GenCollectedHeap@@MAEX_N@Z 0805f1a0 f   genCollectedHeap.obj
 0001:0005e220       ?ensure_parsability@GenCollectedHeap@@UAEX_N@Z 0805f220 f   genCollectedHeap.obj
 0001:0005e280       ?do_generation@GenTimeOfLastGCClosure@@UAEXPAVGeneration@@@Z 0805f280 f i genCollectedHeap.obj
 0001:0005e2d0       ?millis_since_last_gc@GenCollectedHeap@@UAE_JXZ 0805f2d0 f   genCollectedHeap.obj
 0001:0005e390       ??0TraceCollectorStats@@QAE@PAVCollectorCounters@@@Z 0805f390 f i genCollectedHeap.obj
 0001:0005e410       ??1TraceCollectorStats@@QAE@XZ 0805f410 f i genCollectedHeap.obj
 0001:0005e470       ?do_collection@GenCollectedHeap@@IAEX_N0I0H@Z 0805f470 f   genCollectedHeap.obj
 0001:0005ec30       ?do_full_collection@GenCollectedHeap@@IAEX_NH@Z 0805fc30 f   genCollectedHeap.obj
 0001:0005ecb0       ?prepare_for_verify@GenCollectedHeap@@UAEXXZ 0805fcb0 f   genCollectedHeap.obj
 0001:0005ed10       ?handle_failed_promotion@GenCollectedHeap@@QAEPAVoopDesc@@PAVGeneration@@PAV2@I@Z 0805fd10 f   genCollectedHeap.obj
 0001:0005eda0       ?gen_process_strong_roots@GenCollectedHeap@@QAEXH_N00W4ScanningOption@SharedHeap@@PAVOopsInGenClosure@@02@Z 0805fda0 f   genCollectedHeap.obj
 0001:0005eee0       ?collect@GenCollectedHeap@@UAEXW4Cause@GCCause@@@Z 0805fee0 f   genCollectedHeap.obj
 0001:0005ef50       ?collect_as_vm_thread@GenCollectedHeap@@UAEXW4Cause@GCCause@@@Z 0805ff50 f   genCollectedHeap.obj
 0001:0005efe0       ??1CMSCollector@@QAE@XZ    0805ffe0 f i genCollectedHeap.obj
 0001:0005f0b0       ?create_cms_collector@GenCollectedHeap@@AAE_NXZ 080600b0 f   genCollectedHeap.obj
 0001:0005f140       ?initialize@GenCollectedHeap@@UAEHXZ 08060140 f   genCollectedHeap.obj
 0001:0005f430       ?print_heap_change@Generation@@QBEXI@Z 08060430 f   generation.obj
 0001:0005f470       ?print@Generation@@UBEXXZ  08060470 f   generation.obj
 0001:0005f480       ?print_summary_info@Generation@@UAEXXZ 08060480 f   generation.obj
 0001:0005f490       ?do_space@GenerationIsInClosure@@UAEXPAVSpace@@@Z 08060490 f i generation.obj
 0001:0005f4c0       ?is_in@Generation@@UBE_NPBX@Z 080604c0 f   generation.obj
 0001:0005f500       ?promotion_attempt_is_safe@Generation@@UBE_NI@Z 08060500 f   generation.obj
 0001:0005f520       ?par_promote@Generation@@UAEPAVoopDesc@@HPAV2@PAVmarkOopDesc@@I@Z 08060520 f   generation.obj
 0001:0005f540       ?par_promote_alloc_undo@Generation@@UAEXHPAVHeapWord@@I@Z 08060540 f   generation.obj
 0001:0005f560       ?block_start@Generation@@UBEPAVHeapWord@@PBX@Z 08060560 f   generation.obj
 0001:0005f590       ?block_size@Generation@@UBEIPBVHeapWord@@@Z 08060590 f   generation.obj
 0001:0005f5c0       ?block_is_obj@Generation@@UBE_NPBVHeapWord@@@Z 080605c0 f   generation.obj
 0001:0005f5f0       ?do_space@GenerationObjIterateClosure@@UAEXPAVSpace@@@Z 080605f0 f i generation.obj
 0001:0005f610       ?object_iterate@Generation@@UAEXPAVObjectClosure@@@Z 08060610 f   generation.obj
 0001:0005f640       ?do_space@GenerationSafeObjIterateClosure@@UAEXPAVSpace@@@Z 08060640 f i generation.obj
 0001:0005f660       ?safe_object_iterate@Generation@@UAEXPAVObjectClosure@@@Z 08060660 f   generation.obj
 0001:0005f690       ?prepare_for_compaction@Generation@@UAEXPAVCompactPoint@@@Z 08060690 f   generation.obj
 0001:0005f6d0       ?do_space@AdjustPointersClosure@@UAEXPAVSpace@@@Z 080606d0 f i generation.obj
 0001:0005f6e0       ?compact@Generation@@UAEXXZ 080606e0 f   generation.obj
 0001:0005f710       ?expand@CardGeneration@@UAE_NII@Z 08060710 f   generation.obj
 0001:0005f780       ?used@OneContigSpaceCardGeneration@@UBEIXZ 08060780 f   generation.obj
 0001:0005f790       ?unsafe_max_alloc_nogc@OneContigSpaceCardGeneration@@UBEIXZ 08060790 f   generation.obj
 0001:0005f790       ?free@OneContigSpaceCardGeneration@@UBEIXZ 08060790 f   generation.obj
 0001:0005f7a0       ?contiguous_available@OneContigSpaceCardGeneration@@UBEIXZ 080607a0 f   generation.obj
 0001:0005f7c0       ?grow_to_reserved@OneContigSpaceCardGeneration@@MAE_NXZ 080607c0 f   generation.obj
 0001:0005f7c0       ?grow_to_reserved@ConcurrentMarkSweepGeneration@@UAE_NXZ 080607c0 f   concurrentMarkSweepGeneration.obj
 0001:0005f7f0       ?object_iterate@OneContigSpaceCardGeneration@@UAEXPAVObjectClosure@@@Z 080607f0 f   generation.obj
 0001:0005f800       ?space_iterate@OneContigSpaceCardGeneration@@UAEXPAVSpaceClosure@@_N@Z 08060800 f   generation.obj
 0001:0005f820       ?save_marks@OneContigSpaceCardGeneration@@UAEXXZ 08060820 f   generation.obj
 0001:0005f830       ?spec@Generation@@QAEPAVGenerationSpec@@XZ 08060830 f   generation.obj
 0001:0005f850       ?max_capacity@Generation@@UBEIXZ 08060850 f   generation.obj
 0001:0005f860       ?ref_processor_init@Generation@@UAEXXZ 08060860 f   generation.obj
 0001:0005f8c0       ?print_on@Generation@@UBEXPAVoutputStream@@@Z 080608c0 f   generation.obj
 0001:0005f930       ?print_summary_info_on@Generation@@UAEXPAVoutputStream@@@Z 08060930 f   generation.obj
 0001:0005f980       ?do_space@GenerationIsInReservedClosure@@UAEXPAVSpace@@@Z 08060980 f i generation.obj
 0001:0005f9b0       ?next_gen@Generation@@IBEPAV1@XZ 080609b0 f   generation.obj
 0001:0005f9d0       ?max_contiguous_available@Generation@@UBEIXZ 080609d0 f   generation.obj
 0001:0005fa10       ?space_containing@Generation@@UBEPAVSpace@@PBX@Z 08060a10 f   generation.obj
 0001:0005fa40       ?do_space@GenerationBlockStartClosure@@UAEXPAVSpace@@@Z 08060a40 f i generation.obj
 0001:0005fa70       ?do_space@GenerationBlockSizeClosure@@UAEXPAVSpace@@@Z 08060a70 f i generation.obj
 0001:0005faa0       ?do_space@GenerationBlockIsObjClosure@@UAEXPAVSpace@@@Z 08060aa0 f i generation.obj
 0001:0005fad0       ?do_space@GenerationOopIterateClosure@@UAEXPAVSpace@@@Z 08060ad0 f i generation.obj
 0001:0005fb00       ?oop_iterate@Generation@@UAEXPAVOopClosure@@@Z 08060b00 f   generation.obj
 0001:0005fb40       ?oop_iterate@Generation@@UAEXVMemRegion@@PAVOopClosure@@@Z 08060b40 f   generation.obj
 0001:0005fb70       ?younger_refs_in_space_iterate@Generation@@IAEXPAVSpace@@PAVOopsInGenClosure@@@Z 08060b70 f   generation.obj
 0001:0005fb90       ?adjust_pointers@Generation@@UAEXXZ 08060b90 f   generation.obj
 0001:0005fbb0       ?clear_remembered_set@CardGeneration@@UAEXXZ 08060bb0 f   generation.obj
 0001:0005fbd0       ?collect@OneContigSpaceCardGeneration@@UAEX_N0I0@Z 08060bd0 f   generation.obj
 0001:0005fc20       ?expand@OneContigSpaceCardGeneration@@MAE_NII@Z 08060c20 f   generation.obj
 0001:0005fc70       ?capacity@OneContigSpaceCardGeneration@@UBEIXZ 08060c70 f   generation.obj
 0001:0005fc80       ?used_region@OneContigSpaceCardGeneration@@UBE?AVMemRegion@@XZ 08060c80 f   generation.obj
 0001:0005fca0       ?grow_by@OneContigSpaceCardGeneration@@MAE_NI@Z 08060ca0 f   generation.obj
 0001:0005fd20       ?shrink_by@OneContigSpaceCardGeneration@@IAEXI@Z 08060d20 f   generation.obj
 0001:0005fd90       ?object_iterate_since_last_GC@OneContigSpaceCardGeneration@@UAEXPAVObjectClosure@@@Z 08060d90 f   generation.obj
 0001:0005fde0       ?younger_refs_iterate@OneContigSpaceCardGeneration@@UAEXPAVOopsInGenClosure@@@Z 08060de0 f   generation.obj
 0001:0005fe30       ?reset_saved_marks@OneContigSpaceCardGeneration@@UAEXXZ 08060e30 f   generation.obj
 0001:0005fe40       ?no_allocs_since_save_marks@OneContigSpaceCardGeneration@@UAE_NXZ 08060e40 f   generation.obj
 0001:0005fe60       ?oop_since_save_marks_iterate_v@OneContigSpaceCardGeneration@@UAEXPAVOopsInGenClosure@@@Z 08060e60 f   generation.obj
 0001:0005feb0       ?oop_since_save_marks_iterate_nv@OneContigSpaceCardGeneration@@UAEXPAVScanClosure@@@Z 08060eb0 f   generation.obj
 0001:0005ff00       ?oop_since_save_marks_iterate_nv@OneContigSpaceCardGeneration@@UAEXPAVFastScanClosure@@@Z 08060f00 f   generation.obj
 0001:0005ff50       ?oop_since_save_marks_iterate_nv@OneContigSpaceCardGeneration@@UAEXPAVParScanWithBarrierClosure@@@Z 08060f50 f   generation.obj
 0001:0005ffa0       ?oop_since_save_marks_iterate_nv@OneContigSpaceCardGeneration@@UAEXPAVParScanWithoutBarrierClosure@@@Z 08060fa0 f   generation.obj
 0001:0005fff0       ?gc_epilogue@OneContigSpaceCardGeneration@@UAEX_N@Z 08060ff0 f   generation.obj
 0001:00060010       ?verify@OneContigSpaceCardGeneration@@UAEX_N@Z 08061010 f   generation.obj
 0001:00060030       ?print_on@OneContigSpaceCardGeneration@@UBEXPAVoutputStream@@@Z 08061030 f   generation.obj
 0001:00060070       ??0Generation@@IAE@VReservedSpace@@IH@Z 08061070 f   generation.obj
 0001:00060110       ?oop_since_save_marks_iterate_nv@Generation@@UAEXPAVParScanWithBarrierClosure@@@Z 08061110 f i generation.obj
 0001:00060110       ?oop_since_save_marks_iterate_nv@Generation@@UAEXPAVParScanWithoutBarrierClosure@@@Z 08061110 f i generation.obj
 0001:00060110       ?oop_since_save_marks_iterate_nv@Generation@@UAEXPAVScanClosure@@@Z 08061110 f i generation.obj
 0001:00060110       ?oop_since_save_marks_iterate_nv@Generation@@UAEXPAVFastScanClosure@@@Z 08061110 f i generation.obj
 0001:00060120       ?promote@Generation@@UAEPAVoopDesc@@PAV2@I@Z 08061120 f   generation.obj
 0001:00060160       ??0CardGeneration@@IAE@VReservedSpace@@IHPAVGenRemSet@@@Z 08061160 f   generation.obj
 0001:00060290       ?expand_and_allocate@OneContigSpaceCardGeneration@@UAEPAVHeapWord@@I_N0@Z 08061290 f   generation.obj
 0001:00060340       ?shrink@OneContigSpaceCardGeneration@@IAEXI@Z 08061340 f   generation.obj
 0001:00060370       ??0PermanentGenerationSpec@@QAE@W4Name@PermGen@@IIIIII@Z 08061370 f   generationSpec.obj
 0001:00060410       ?init@PermanentGenerationSpec@@QAEPAVPermGen@@VReservedSpace@@IPAVGenRemSet@@@Z 08061410 f   generationSpec.obj
 0001:000605d0       ?align@PermanentGenerationSpec@@QAEXI@Z 080615d0 f   generationSpec.obj
 0001:00060630       ??0ASConcurrentMarkSweepGeneration@@QAE@VReservedSpace@@IHPAVCardTableRS@@_NW4DictionaryChoice@FreeBlockDictionary@@@Z 08061630 f i generationSpec.obj
 0001:00060680       ?full_collects_younger_generations@ConcurrentMarkSweepGeneration@@UBE_NXZ 08061680 f i generationSpec.obj
 0001:000606a0       ?time_of_last_gc@ConcurrentMarkSweepGeneration@@UAE_J_J@Z 080616a0 f i generationSpec.obj
 0001:000606d0       ?update_time_of_last_gc@ConcurrentMarkSweepGeneration@@UAEX_J@Z 080616d0 f i generationSpec.obj
 0001:000606f0       ?counters@ConcurrentMarkSweepGeneration@@UAEPAVCollectorCounters@@XZ 080616f0 f i generationSpec.obj
 0001:00060700       ?get_data_recorder@ConcurrentMarkSweepGeneration@@UAEPAXH@Z 08061700 f i generationSpec.obj
 0001:00060710       ?short_name@ASConcurrentMarkSweepGeneration@@UBEPBDXZ 08061710 f i generationSpec.obj
 0001:00060720       ?init@GenerationSpec@@QAEPAVGeneration@@VReservedSpace@@HPAVGenRemSet@@@Z 08061720 f   generationSpec.obj
 0001:000609b0       ?allocate_stacks@GenMarkSweep@@CAXXZ 080619b0 f   genMarkSweep.obj
 0001:00060a10       ?do_generation@GenCompactClosure@@UAEXPAVGeneration@@@Z 08061a10 f i genMarkSweep.obj
 0001:00060a30       ?update_time_of_last_gc@GenCollectedHeap@@QAEX_J@Z 08061a30 f i genMarkSweep.obj
 0001:00060a90       ?mark_sweep_phase2@GenMarkSweep@@CAXXZ 08061a90 f   genMarkSweep.obj
 0001:00060b00       ?do_generation@GenAdjustPointersClosure@@UAEXPAVGeneration@@@Z 08061b00 f i genMarkSweep.obj
 0001:00060b20       ?mark_sweep_phase4@GenMarkSweep@@CAXXZ 08061b20 f   genMarkSweep.obj
 0001:00060b90       ?mark_sweep_phase1@GenMarkSweep@@CAXH_N@Z 08061b90 f   genMarkSweep.obj
 0001:00060cb0       ?free_segments@?$Stack@VObjArrayTask@@@@IAEXPAVObjArrayTask@@@Z 08061cb0 f i genMarkSweep.obj
 0001:00060d00       ?mark_sweep_phase3@GenMarkSweep@@CAXH@Z 08061d00 f   genMarkSweep.obj
 0001:00060e30       ?free_segments@?$Stack@PAVmarkOopDesc@@@@IAEXPAPAVmarkOopDesc@@@Z 08061e30 f i defNewGeneration.obj
 0001:00060e30       ?free_segments@?$Stack@PAVoopDesc@@@@IAEXPAPAVoopDesc@@@Z 08061e30 f i defNewGeneration.obj
 0001:00060e30       ?free_segments@?$Stack@PAVKlass@@@@IAEXPAPAVKlass@@@Z 08061e30 f i genMarkSweep.obj
 0001:00060e30       ?free_segments@?$Stack@PAVDataLayout@@@@IAEXPAPAVDataLayout@@@Z 08061e30 f i genMarkSweep.obj
 0001:00060e80       ?deallocate_stacks@GenMarkSweep@@CAXXZ 08061e80 f   genMarkSweep.obj
 0001:00061020       ?invoke_at_safepoint@GenMarkSweep@@SAXHPAVReferenceProcessor@@_N@Z 08062020 f   genMarkSweep.obj
 0001:000611d0       ?max_alignment_constraint@GenRemSet@@SAIW4Name@1@@Z 080621d0 f   genRemSet.obj
 0001:00061200       ??0CodeHeap@@QAE@XZ        08062200 f   heap.obj
 0001:00061240       ?capacity@CodeHeap@@QBEIXZ 08062240 f   heap.obj
 0001:00061250       ?max_capacity@CodeHeap@@QBEIXZ 08062250 f   heap.obj
 0001:00061260       ?exact_log2@@YAHH@Z        08062260 f i heap.obj
 0001:00061260       ?log2_intptr@@YAHH@Z       08062260 f i heap.obj
 0001:00061280       ?mark_segmap_as_used@CodeHeap@@AAEXII@Z 08062280 f   heap.obj
 0001:000612b0       ?expand_by@CodeHeap@@QAE_NI@Z 080622b0 f   heap.obj
 0001:00061380       ?find_start@CodeHeap@@QBEPAXPAX@Z 08062380 f   heap.obj
 0001:000613f0       ?first_block@CodeHeap@@ABEPAVHeapBlock@@XZ 080623f0 f   heap.obj
 0001:00061410       ?block_start@CodeHeap@@ABEPAVHeapBlock@@PAX@Z 08062410 f   heap.obj
 0001:00061430       ?next_block@CodeHeap@@ABEPAVHeapBlock@@PAV2@@Z 08062430 f   heap.obj
 0001:00061480       ?allocated_capacity@CodeHeap@@QBEIXZ 08062480 f   heap.obj
 0001:000614b0       ?largest_free_block@CodeHeap@@QBEIXZ 080624b0 f   heap.obj
 0001:000614e0       ?merge_right@CodeHeap@@AAEXPAVFreeBlock@@@Z 080624e0 f   heap.obj
 0001:00061540       ?search_freelist@CodeHeap@@AAEPAVFreeBlock@@I@Z 08062540 f   heap.obj
 0001:00061600       ?verify@CodeHeap@@QAEXXZ   08062600 f   heap.obj
 0001:00061670       ?reserve@CodeHeap@@QAE_NIII@Z 08062670 f   heap.obj
 0001:00061800       ?allocate@CodeHeap@@QAEPAXI@Z 08062800 f   heap.obj
 0001:00061880       ?next_free@CodeHeap@@ABEPAXPAVHeapBlock@@@Z 08062880 f   heap.obj
 0001:000618b0       ?add_to_freelist@CodeHeap@@AAEXPAVHeapBlock@@@Z 080628b0 f   heap.obj
 0001:00061940       ?deallocate@CodeHeap@@QAEXPAX@Z 08062940 f   heap.obj
 0001:00061960       ?lookup@KlassInfoBucket@@QAEPAVKlassInfoEntry@@QAVklassOopDesc@@@Z 08062960 f   heapInspection.obj
 0001:000619b0       ?iterate@KlassInfoTable@@QAEXPAVKlassInfoClosure@@@Z 080629b0 f   heapInspection.obj
 0001:000619f0       ?sort_helper@KlassInfoHisto@@CAHPAPAVKlassInfoEntry@@0@Z 080629f0 f   heapInspection.obj
 0001:00061a20       ??0KlassInfoTable@@QAE@HPAVHeapWord@@@Z 08062a20 f   heapInspection.obj
 0001:00061aa0       ??1KlassInfoTable@@QAE@XZ  08062aa0 f   heapInspection.obj
 0001:00061b00       ?find_instances_at_safepoint@HeapInspection@@SAXPAVklassOopDesc@@PAV?$GrowableArray@PAVoopDesc@@@@@Z 08062b00 f   heapInspection.obj
 0001:00061b40       ?print_on@KlassInfoEntry@@QBEXPAVoutputStream@@@Z 08062b40 f   heapInspection.obj
 0001:00061d20       ?record_instance@KlassInfoTable@@QAE_NQAVoopDesc@@@Z 08062d20 f   heapInspection.obj
 0001:00061d80       ??0KlassInfoHisto@@QAE@PBDH@Z 08062d80 f   heapInspection.obj
 0001:00061e00       ?print_elements@KlassInfoHisto@@ABEXPAVoutputStream@@@Z 08062e00 f   heapInspection.obj
 0001:00061ed0       ?do_object@RecordInstanceClosure@@UAEXPAVoopDesc@@@Z 08062ed0 f i heapInspection.obj
 0001:00061ef0       ?do_cinfo@HistoClosure@@UAEXPAVKlassInfoEntry@@@Z 08062ef0 f i heapInspection.obj
 0001:00061f20       ?do_object@FindInstanceClosure@@UAEXPAVoopDesc@@@Z 08062f20 f i heapInspection.obj
 0001:00061f60       ?heap_inspection@HeapInspection@@SAXPAVoutputStream@@_N@Z 08062f60 f   heapInspection.obj
 0001:00062150       ?do_void@VoidClosure@@UAEXXZ 08063150 f   iterator.obj
 0001:00062170       ??0MarkScope@MarkingCodeBlobClosure@@QAE@_N@Z 08063170 f   iterator.obj
 0001:00062190       ??1MarkScope@MarkingCodeBlobClosure@@QAE@XZ 08063190 f   iterator.obj
 0001:000621a0       ?do_newly_marked_nmethod@CodeBlobToOopClosure@@UAEXPAVnmethod@@@Z 080631a0 f   iterator.obj
 0001:000621c0       ?do_code_blob@MarkingCodeBlobClosure@@UAEXPAVCodeBlob@@@Z 080631c0 f   iterator.obj
 0001:00062200       ?do_code_blob@CodeBlobToOopClosure@@UAEXPAVCodeBlob@@@Z 08063200 f   iterator.obj
 0001:00062260       ?do_object@ObjectToOopClosure@@UAEXPAVoopDesc@@@Z 08063260 f   iterator.obj
 0001:00062290       ?intersection@MemRegion@@QBE?AV1@V1@@Z 08063290 f   memRegion.obj
 0001:000622f0       ?_union@MemRegion@@QBE?AV1@V1@@Z 080632f0 f   memRegion.obj
 0001:00062360       ?minus@MemRegion@@QBE?AV1@V1@@Z 08063360 f   memRegion.obj
 0001:00062440       ?common_permanent_mem_allocate_noinit@CollectedHeap@@KAPAVHeapWord@@IPAVThread@@@Z 08063440 f i oopFactory.obj
 0001:000624b0       ?new_permanent_charArray@oopFactory@@SAPAVtypeArrayOopDesc@@HPAVThread@@@Z 080634b0 f   oopFactory.obj
 0001:000624d0       ?new_permanent_byteArray@oopFactory@@SAPAVtypeArrayOopDesc@@HPAVThread@@@Z 080634d0 f   oopFactory.obj
 0001:000624f0       ?new_permanent_shortArray@oopFactory@@SAPAVtypeArrayOopDesc@@HPAVThread@@@Z 080634f0 f   oopFactory.obj
 0001:00062510       ?new_permanent_intArray@oopFactory@@SAPAVtypeArrayOopDesc@@HPAVThread@@@Z 08063510 f   oopFactory.obj
 0001:00062530       ?new_typeArray@oopFactory@@SAPAVtypeArrayOopDesc@@W4BasicType@@HPAVThread@@@Z 08063530 f   oopFactory.obj
 0001:00062550       ?new_objArray@oopFactory@@SAPAVobjArrayOopDesc@@PAVklassOopDesc@@HPAVThread@@@Z 08063550 f   oopFactory.obj
 0001:00062590       ?new_constantPool@oopFactory@@SAPAVconstantPoolOopDesc@@H_NPAVThread@@@Z 08063590 f   oopFactory.obj
 0001:000625b0       ?new_constantPoolCache@oopFactory@@SAPAVconstantPoolCacheOopDesc@@H_NPAVThread@@@Z 080635b0 f   oopFactory.obj
 0001:000625d0       ?new_instanceKlass@oopFactory@@SAPAVklassOopDesc@@HHHIW4ReferenceType@@PAVThread@@@Z 080635d0 f   oopFactory.obj
 0001:00062600       ?new_methodData@oopFactory@@SAPAVmethodDataOopDesc@@VmethodHandle@@PAVThread@@@Z 08063600 f   oopFactory.obj
 0001:00062620       ?detect_low_memory_for_collected_pools@LowMemoryDetector@@SAXXZ 08063620 f i oopFactory.obj
 0001:000626a0       ?new_method@oopFactory@@SAPAVmethodOopDesc@@HVAccessFlags@@HHH_NPAVThread@@@Z 080636a0 f   oopFactory.obj
 0001:00062700       ?new_charArray@oopFactory@@SAPAVtypeArrayOopDesc@@PBDPAVThread@@@Z 08063700 f   oopFactory.obj
 0001:00062760       ?new_compiledICHolder@oopFactory@@SAPAVcompiledICHolderOopDesc@@VmethodHandle@@VKlassHandle@@PAVThread@@@Z 08063760 f   oopFactory.obj
 0001:000627e0       ?post_allocation_setup_array@CollectedHeap@@KAXVKlassHandle@@PAVHeapWord@@IH@Z 080637e0 f i oopFactory.obj
 0001:00062840       ?permanent_array_allocate@CollectedHeap@@SAPAVoopDesc@@VKlassHandle@@HHPAVThread@@@Z 08063840 f i oopFactory.obj
 0001:000628a0       ?new_system_objArray@oopFactory@@SAPAVobjArrayOopDesc@@HPAVThread@@@Z 080638a0 f   oopFactory.obj
 0001:00062910       ?request_expand_and_allocate@PermGen@@MAEPAVHeapWord@@PAVGeneration@@IW4Cause@GCCause@@@Z 08063910 f   permGen.obj
 0001:00062960       ?oop_iterate@PermGen@@UAEXPAVOopClosure@@@Z 08063960 f i permGen.obj
 0001:00062980       ?object_iterate@PermGen@@UAEXPAVObjectClosure@@@Z 08063980 f i permGen.obj
 0001:000629a0       ?update_counters@PermGen@@UAEXXZ 080639a0 f i permGen.obj
 0001:000629b0       ?type@VM_GenCollectForPermanentAllocation@@UBE?AW4VMOp_Type@VM_Operation@@XZ 080639b0 f i permGen.obj
 0001:000629c0       ??0CompactingPermGen@@QAE@VReservedSpace@@0IPAVGenRemSet@@PAVPermanentGenerationSpec@@@Z 080639c0 f   permGen.obj
 0001:00062a80       ?bootstrap_method_index_in_cache@ConstantPoolCacheEntry@@QAEHXZ 08063a80 f i cpCacheOop.obj
 0001:00062a80       ?name@ClassPathDirEntry@@UAEPBDXZ 08063a80 f i classLoader.obj
 0001:00062a80       ?totalChunkSize@BinaryTreeDictionary@@UBEIXZ 08063a80 f i binaryTreeDictionary.obj
 0001:00062a80       ?as_gen@CMSPermGen@@UBEPAVGeneration@@XZ 08063a80 f i cmsPermGen.obj
 0001:00062a80       ?type@LIR_Const@@UBE?AW4BasicType@@XZ 08063a80 f i c1_LinearScan_x86.obj
 0001:00062a80       ?initialize_threshold@CompactibleSpace@@UAEPAVHeapWord@@XZ 08063a80 f i defNewGeneration.obj
 0001:00062a80       ?as_gen@CompactingPermGen@@UBEPAVGeneration@@XZ 08063a80 f i permGen.obj
 0001:00062a80       ?name@LazyClassPathEntry@@UAEPBDXZ 08063a80 f i classLoader.obj
 0001:00062a90       ?compute_new_size@CompactingPermGen@@UAEXXZ 08063a90 f   permGen.obj
 0001:00062af0       ?mem_allocate_in_gen@PermGen@@IAEPAVHeapWord@@IPAVGeneration@@@Z 08063af0 f   permGen.obj
 0001:00062ce0       ?mem_allocate@CompactingPermGen@@UAEPAVHeapWord@@I@Z 08063ce0 f   permGen.obj
 0001:00062d00       ?should_clear_reference@LRUCurrentHeapPolicy@@UAE_NPAVoopDesc@@@Z 08063d00 f   referencePolicy.obj
 0001:00062d00       ?should_clear_reference@LRUMaxHeapPolicy@@UAE_NPAVoopDesc@@@Z 08063d00 f   referencePolicy.obj
 0001:00062d50       ?should_clear_reference@ReferencePolicy@@UAE_NPAVoopDesc@@@Z 08063d50 f i referencePolicy.obj
 0001:00062d70       ?setup@LRUCurrentHeapPolicy@@UAEXXZ 08063d70 f   referencePolicy.obj
 0001:00062d90       ?setup@LRUMaxHeapPolicy@@UAEXXZ 08063d90 f   referencePolicy.obj
 0001:00062db0       ??0LRUCurrentHeapPolicy@@QAE@XZ 08063db0 f   referencePolicy.obj
 0001:00062de0       ?weak_oops_do@ReferenceProcessor@@QAEXPAVOopClosure@@@Z 08063de0 f   referenceProcessor.obj
 0001:00062e20       ??0ReferenceProcessor@@QAE@VMemRegion@@_N1H11@Z 08063e20 f   referenceProcessor.obj
 0001:00062f20       ?oops_do@ReferenceProcessor@@SAXPAVOopClosure@@@Z 08063f20 f   referenceProcessor.obj
 0001:00062f40       ?init_statics@ReferenceProcessor@@SAXXZ 08063f40 f   referenceProcessor.obj
 0001:00063030       ?create_ref_processor@ReferenceProcessor@@SAPAV1@VMemRegion@@_N1PAVBoolObjectClosure@@H11@Z 08064030 f   referenceProcessor.obj
 0001:000630c0       ?pp2_work@ReferenceProcessor@@QAEXAAVDiscoveredList@@PAVBoolObjectClosure@@PAVOopClosure@@@Z 080640c0 f   referenceProcessor.obj
 0001:00063140       ?pp2_work_concurrent_discovery@ReferenceProcessor@@QAEXAAVDiscoveredList@@PAVBoolObjectClosure@@PAVOopClosure@@PAVVoidClosure@@@Z 08064140 f   referenceProcessor.obj
 0001:000631f0       ?process_phase3@ReferenceProcessor@@QAEXAAVDiscoveredList@@_NPAVBoolObjectClosure@@PAVOopClosure@@PAVVoidClosure@@@Z 080641f0 f   referenceProcessor.obj
 0001:000632b0       ?abandon_partial_discovered_list@ReferenceProcessor@@IAEXAAVDiscoveredList@@@Z 080642b0 f   referenceProcessor.obj
 0001:00063310       ?abandon_partial_discovery@ReferenceProcessor@@QAEXXZ 08064310 f   referenceProcessor.obj
 0001:00063350       ?work@RefProcPhase3Task@@UAEXIAAVBoolObjectClosure@@AAVOopClosure@@AAVVoidClosure@@@Z 08064350 f i referenceProcessor.obj
 0001:00063380       ?clean_up_discovered_reflist@ReferenceProcessor@@QAEXAAVDiscoveredList@@@Z 08064380 f   referenceProcessor.obj
 0001:000633f0       ?get_discovered_list@ReferenceProcessor@@IAEPAVDiscoveredList@@W4ReferenceType@@@Z 080643f0 f i referenceProcessor.obj
 0001:000634c0       ?add_to_discovered_list_mt@ReferenceProcessor@@IAEXAAVDiscoveredList@@PAVoopDesc@@PAVHeapWord@@@Z 080644c0 f i referenceProcessor.obj
 0001:00063580       ?discover_reference@ReferenceProcessor@@QAE_NPAVoopDesc@@W4ReferenceType@@@Z 08064580 f   referenceProcessor.obj
 0001:000636f0       ?preclean_discovered_reflist@ReferenceProcessor@@IAEXAAVDiscoveredList@@PAVBoolObjectClosure@@PAVOopClosure@@PAVVoidClosure@@PAVYieldClosure@@@Z 080646f0 f   referenceProcessor.obj
 0001:000637a0       ?verify@ReferenceProcessor@@SAXXZ 080647a0 f   referenceProcessor.obj
 0001:000637e0       ?referenceProcessor_init@@YAXXZ 080647e0 f   referenceProcessor.obj
 0001:000637f0       ?work@RefProcPhase2Task@@UAEXIAAVBoolObjectClosure@@AAVOopClosure@@AAVVoidClosure@@@Z 080647f0 f i referenceProcessor.obj
 0001:00063840       ?clean_up_discovered_references@ReferenceProcessor@@QAEXXZ 08064840 f   referenceProcessor.obj
 0001:00063880       ?preclean_discovered_references@ReferenceProcessor@@QAEXPAVBoolObjectClosure@@PAVOopClosure@@PAVVoidClosure@@PAVYieldClosure@@_N@Z 08064880 f   referenceProcessor.obj
 0001:00063ab0       ?enqueue_discovered_reflist@ReferenceProcessor@@QAEXAAVDiscoveredList@@PAVHeapWord@@@Z 08064ab0 f   referenceProcessor.obj
 0001:00063cc0       ?work@RefProcEnqueueTask@@UAEXI@Z 08064cc0 f i referenceProcessor.obj
 0001:00063d20       ?enqueue_discovered_reflists@ReferenceProcessor@@QAEXPAVHeapWord@@PAVAbstractRefProcTaskExecutor@@@Z 08064d20 f   referenceProcessor.obj
 0001:00063dc0       ?process_phase1@ReferenceProcessor@@QAEXAAVDiscoveredList@@PAVReferencePolicy@@PAVBoolObjectClosure@@PAVOopClosure@@PAVVoidClosure@@@Z 08064dc0 f   referenceProcessor.obj
 0001:00063ec0       ?work@RefProcPhase1Task@@UAEXIAAVBoolObjectClosure@@AAVOopClosure@@AAVVoidClosure@@@Z 08064ec0 f i referenceProcessor.obj
 0001:00063f00       ?balance_queues@ReferenceProcessor@@IAEXQAVDiscoveredList@@@Z 08064f00 f   referenceProcessor.obj
 0001:000640b0       ?balance_all_queues@ReferenceProcessor@@QAEXXZ 080650b0 f   referenceProcessor.obj
 0001:000640e0       ?process_discovered_reflist@ReferenceProcessor@@QAEXQAVDiscoveredList@@PAVReferencePolicy@@_NPAVBoolObjectClosure@@PAVOopClosure@@PAVVoidClosure@@PAVAbstractRefProcTaskExecutor@@@Z 080650e0 f   referenceProcessor.obj
 0001:00064290       ??$enqueue_discovered_ref_helper@PAVoopDesc@@@@YA_NPAVReferenceProcessor@@PAVAbstractRefProcTaskExecutor@@@Z 08065290 f i referenceProcessor.obj
 0001:00064340       ?process_discovered_references@ReferenceProcessor@@QAEXPAVBoolObjectClosure@@PAVOopClosure@@PAVVoidClosure@@PAVAbstractRefProcTaskExecutor@@@Z 08065340 f   referenceProcessor.obj
 0001:000644e0       ?enqueue_discovered_references@ReferenceProcessor@@QAE_NPAVAbstractRefProcTaskExecutor@@@Z 080654e0 f   referenceProcessor.obj
 0001:00064500       ?resource_allocate_bytes@@YAPADPAVThread@@I@Z 08065500 f   resourceArea.obj
 0001:00064550       ?resource_allocate_bytes@@YAPADI@Z 08065550 f   resourceArea.obj
 0001:000645b0       ?resource_reallocate_bytes@@YAPADPADII@Z 080655b0 f   resourceArea.obj
 0001:000645e0       ?resource_free_bytes@@YAXPADI@Z 080655e0 f   resourceArea.obj
 0001:00064610       ?do_oop@ReadClosure@@UAEXPAI@Z 08065610 f i restore.obj
 0001:00064630       ?do_ptr@WriteClosure@@UAEXPAPAVHeapWord@@@Z 08065630 f i dump.obj
 0001:00064630       ?do_ptr@ReadClosure@@UAEXPAPAVHeapWord@@@Z 08065630 f i restore.obj
 0001:00064640       ?do_size_t@ReadClosure@@UAEXPAI@Z 08065640 f i restore.obj
 0001:00064640       ?do_ptr@ReadClosure@@UAEXPAPAX@Z 08065640 f i restore.obj
 0001:00064640       ?do_oop@ReadClosure@@UAEXPAPAVoopDesc@@@Z 08065640 f i restore.obj
 0001:00064640       ?do_int@ReadClosure@@UAEXPAH@Z 08065640 f i restore.obj
 0001:00064660       ?do_tag@ReadClosure@@UAEXH@Z 08065660 f i restore.obj
 0001:00064690       ?do_region@ReadClosure@@UAEXPAEI@Z 08065690 f i restore.obj
 0001:000646d0       ?initialize_oops@CompactingPermGenGen@@SAXXZ 080656d0 f   restore.obj
 0001:00064800       ?serialize_oops@CompactingPermGenGen@@SAXPAVSerializeOopClosure@@@Z 08065800 f   serialize.obj
 0001:00064980       ?set_par_threads@SharedHeap@@UAEXH@Z 08065980 f   sharedHeap.obj
 0001:000649a0       ??0StrongRootsScope@SharedHeap@@QAE@PAV1@_N@Z 080659a0 f   sharedHeap.obj
 0001:000649e0       ?post_initialize@SharedHeap@@UAEXXZ 080659e0 f   sharedHeap.obj
 0001:000649f0       ?process_strong_roots@SharedHeap@@QAEX_N0W4ScanningOption@1@PAVOopClosure@@PAVCodeBlobClosure@@PAVOopsInGenClosure@@@Z 080659f0 f   sharedHeap.obj
 0001:00064bf0       ?do_object@AlwaysTrueClosure@@UAEXPAVoopDesc@@@Z 08065bf0 f i sharedHeap.obj
 0001:00064c10       ?do_oop@SkipAdjustingSharedStrings@@UAEXPAI@Z 08065c10 f i sharedHeap.obj
 0001:00064c30       ?do_oop@SkipAdjustingSharedStrings@@UAEXPAPAVoopDesc@@@Z 08065c30 f i sharedHeap.obj
 0001:00064c60       ?process_weak_roots@SharedHeap@@QAEXPAVOopClosure@@PAVCodeBlobClosure@@0@Z 08065c60 f   sharedHeap.obj
 0001:00064ce0       ?set_barrier_set@SharedHeap@@QAEXPAVBarrierSet@@@Z 08065ce0 f   sharedHeap.obj
 0001:00064d00       ?ref_processing_init@SharedHeap@@UAEXXZ 08065d00 f   sharedHeap.obj
 0001:00064d10       ?print_size_transition@SharedHeap@@QAEXPAVoutputStream@@III@Z 08065d10 f   sharedHeap.obj
 0001:00064df0       ?active_workers@FlexibleWorkGang@@UBEHXZ 08065df0 f i sharedHeap.obj
 0001:00064e00       ??0SharedHeap@@IAE@PAVCollectorPolicy@@@Z 08065e00 f   sharedHeap.obj
 0001:00064f00       ?is_in@Space@@UBE_NPBX@Z   08065f00 f   space.obj
 0001:00064f40       ?is_in@ContiguousSpace@@UBE_NPBX@Z 08065f40 f   space.obj
 0001:00064f60       ?is_free_block@ContiguousSpace@@UBE_NPBVHeapWord@@@Z 08065f60 f   space.obj
 0001:00064f70       ?print_short@Space@@UBEXXZ 08065f70 f   space.obj
 0001:00064f80       ?safe_object_iterate@ContiguousSpace@@UAEXPAVObjectClosure@@@Z 08065f80 f   space.obj
 0001:00064f90       ?initialize_threshold@OffsetTableContigSpace@@UAEPAVHeapWord@@XZ 08065f90 f   space.obj
 0001:00064fa0       ?serialize_block_offset_array_offsets@OffsetTableContigSpace@@QAEXPAVSerializeOopClosure@@@Z 08065fa0 f   space.obj
 0001:00064fb0       ?allowed_dead_ratio@TenuredSpace@@MBEIXZ 08065fb0 f   space.obj
 0001:00064fc0       ?allowed_dead_ratio@ContigPermSpace@@MBEIXZ 08065fc0 f   space.obj
 0001:00064fd0       ?alloc_block@BlockOffsetArrayContigSpace@@UAEXPAVHeapWord@@0@Z 08065fd0 f i space.obj
 0001:00064ff0       ?used_region@Space@@UBE?AVMemRegion@@XZ 08065ff0 f i space.obj
 0001:00065010       ?top@GenSpaceMangler@@EBEPAVHeapWord@@XZ 08066010 f i space.obj
 0001:00065020       ?do_MemRegion@DirtyCardToOopClosure@@UAEXVMemRegion@@@Z 08066020 f   space.obj
 0001:000650d0       ?walk_mem_region@Filtering_DCTOC@@MAEXVMemRegion@@PAVHeapWord@@1@Z 080660d0 f   space.obj
 0001:00065150       ?initialize@Space@@UAEXVMemRegion@@_N1@Z 08066150 f   space.obj
 0001:00065190       ??1ContiguousSpace@@QAE@XZ 08066190 f   space.obj
 0001:000651b0       ?set_bottom@G1OffsetTableContigSpace@@UAEXPAVHeapWord@@@Z 080661b0 f   heapRegion.obj
 0001:000651b0       ?set_bottom@OffsetTableContigSpace@@UAEXPAVHeapWord@@@Z 080661b0 f   space.obj
 0001:000651d0       ?set_end@OffsetTableContigSpace@@UAEXPAVHeapWord@@@Z 080661d0 f   space.obj
 0001:00065200       ?initialize@CompactibleSpace@@UAEXVMemRegion@@_N1@Z 08066200 f   space.obj
 0001:00065250       ?clear@CompactibleSpace@@UAEX_N@Z 08066250 f   space.obj
 0001:00065260       ?insert_deadspace@CompactibleSpace@@IAE_NAAIPAVHeapWord@@I@Z 08066260 f   space.obj
 0001:000652b0       ?prepare_for_compaction@CompactibleSpace@@UAEXPAVCompactPoint@@@Z 080662b0 f   space.obj
 0001:000654b0       ?print_short_on@Space@@UBEXPAVoutputStream@@@Z 080664b0 f   space.obj
 0001:00065520       ?print_on@Space@@UBEXPAVoutputStream@@@Z 08066520 f   space.obj
 0001:00065550       ?print_on@ContiguousSpace@@UBEXPAVoutputStream@@@Z 08066550 f   space.obj
 0001:00065590       ?print_on@OffsetTableContigSpace@@UBEXPAVoutputStream@@@Z 08066590 f   space.obj
 0001:000655d0       ?object_iterate_careful@Space@@UAEPAVHeapWord@@PAVObjectClosureCareful@@@Z 080665d0 f   space.obj
 0001:00065600       ?object_iterate_careful_m@Space@@UAEPAVHeapWord@@VMemRegion@@PAVObjectClosureCareful@@@Z 08066600 f   space.obj
 0001:00065630       ?object_iterate_mem@Space@@UAEXVMemRegion@@PAVUpwardsObjectClosure@@@Z 08066630 f   space.obj
 0001:000656d0       ?object_iterate@ContiguousSpace@@UAEXPAVObjectClosure@@@Z 080666d0 f   space.obj
 0001:00065700       ?object_iterate_careful@ContiguousSpace@@UAEPAVHeapWord@@PAVObjectClosureCareful@@@Z 08066700 f   space.obj
 0001:00065740       ?par_allocate_impl@ContiguousSpace@@IAEPAVHeapWord@@IPAV2@@Z 08066740 f i space.obj
 0001:000657b0       ?allocate@ContiguousSpace@@UAEPAVHeapWord@@I@Z 080667b0 f   space.obj
 0001:000657e0       ?par_allocate@ContiguousSpace@@UAEPAVHeapWord@@I@Z 080667e0 f   space.obj
 0001:00065800       ?allocate@EdenSpace@@UAEPAVHeapWord@@I@Z 08066800 f   space.obj
 0001:00065830       ?par_allocate@EdenSpace@@UAEPAVHeapWord@@I@Z 08066830 f   space.obj
 0001:00065850       ?cross_threshold@OffsetTableContigSpace@@UAEPAVHeapWord@@PAV2@0@Z 08066850 f   space.obj
 0001:00065870       ?do_oop@VerifyOldOopClosure@@UAEXPAPAVoopDesc@@@Z 08066870 f i space.obj
 0001:00065890       ?do_oop@VerifyOldOopClosure@@UAEXPAI@Z 08066890 f i space.obj
 0001:000658b0       ?oop_iterate@oopDesc@@QAEHPAVMarkRefsIntoAndScanClosure@@@Z 080668b0 f i space.obj
 0001:000658d0       ?do_oop@SpaceMemRegionOopsIterClosure@@UAEXPAPAVoopDesc@@@Z 080668d0 f   space.obj
 0001:00065900       ?do_oop@SpaceMemRegionOopsIterClosure@@UAEXPAI@Z 08066900 f   space.obj
 0001:00065930       ?get_actual_top@DirtyCardToOopClosure@@MAEPAVHeapWord@@PAV2@0@Z 08066930 f   space.obj
 0001:00065990       ?walk_mem_region@DirtyCardToOopClosure@@MAEXVMemRegion@@PAVHeapWord@@1@Z 08066990 f   space.obj
 0001:00065a00       ?get_actual_top@ContiguousSpaceDCTOC@@MAEPAVHeapWord@@PAV2@0@Z 08066a00 f   space.obj
 0001:00065a70       ?walk_mem_region_with_cl@ContiguousSpaceDCTOC@@MAEXVMemRegion@@PAVHeapWord@@1PAVOopClosure@@@Z 08066a70 f   space.obj
 0001:00065b50       ?walk_mem_region_with_cl@ContiguousSpaceDCTOC@@MAEXVMemRegion@@PAVHeapWord@@1PAVFilteringClosure@@@Z 08066b50 f   space.obj
 0001:00065c30       ??0ContiguousSpace@@QAE@XZ 08066c30 f   space.obj
 0001:00065c90       ?initialize@ContiguousSpace@@UAEXVMemRegion@@_N1@Z 08066c90 f   space.obj
 0001:00065ce0       ?clear@ContiguousSpace@@UAEX_N@Z 08066ce0 f   space.obj
 0001:00065d00       ?clear@OffsetTableContigSpace@@UAEX_N@Z 08066d00 f   space.obj
 0001:00065d30       ?prepare_for_compaction@ContiguousSpace@@UAEXPAVCompactPoint@@@Z 08066d30 f   space.obj
 0001:00065f80       ?adjust_pointers@Space@@UAEXXZ 08066f80 f   space.obj
 0001:00065fd0       ?adjust_pointers@CompactibleSpace@@UAEXXZ 08066fd0 f   space.obj
 0001:00066090       ?verify@ContiguousSpace@@UBEX_N@Z 08067090 f   space.obj
 0001:00066170       ?oop_iterate@Space@@UAEXPAVOopClosure@@@Z 08067170 f   space.obj
 0001:000661a0       ?object_iterate_mem@ContiguousSpace@@UAEXVMemRegion@@PAVUpwardsObjectClosure@@@Z 080671a0 f   space.obj
 0001:00066270       ?par_oop_iterate@ContiguousSpace@@QAEXVMemRegion@@PAVPar_MarkRefsIntoAndScanClosure@@@Z 08067270 f   space.obj
 0001:000662b0       ?oop_iterate@ContiguousSpace@@UAEXPAVOopClosure@@@Z 080672b0 f   space.obj
 0001:000662f0       ?oop_iterate@ContiguousSpace@@UAEXVMemRegion@@PAVOopClosure@@@Z 080672f0 f   space.obj
 0001:00066450       ?object_iterate_from@ContiguousSpace@@UAEXVWaterMark@@PAVObjectClosure@@@Z 08067450 f   space.obj
 0001:000664d0       ?oop_since_save_marks_iterate_v@ContiguousSpace@@QAEXPAVOopsInGenClosure@@@Z 080674d0 f   space.obj
 0001:00066530       ?oop_since_save_marks_iterate_nv@ContiguousSpace@@QAEXPAVScanClosure@@@Z 08067530 f   space.obj
 0001:00066590       ?oop_since_save_marks_iterate_nv@ContiguousSpace@@QAEXPAVFastScanClosure@@@Z 08067590 f   space.obj
 0001:000665f0       ?oop_since_save_marks_iterate_nv@ContiguousSpace@@QAEXPAVParScanWithBarrierClosure@@@Z 080675f0 f   space.obj
 0001:00066650       ?oop_since_save_marks_iterate_nv@ContiguousSpace@@QAEXPAVParScanWithoutBarrierClosure@@@Z 08067650 f   space.obj
 0001:000666b0       ?block_start_const@ContiguousSpace@@UBEPAVHeapWord@@PBX@Z 080676b0 f   space.obj
 0001:00066730       ?block_size@ContiguousSpace@@UBEIPBVHeapWord@@@Z 08067730 f   space.obj
 0001:00066760       ?clear@EdenSpace@@UAEX_N@Z 08067760 f   space.obj
 0001:00066790       ?par_allocate@ConcEdenSpace@@UAEPAVHeapWord@@I@Z 08067790 f   space.obj
 0001:00066810       ??0OffsetTableContigSpace@@QAE@PAVBlockOffsetSharedArray@@VMemRegion@@@Z 08067810 f   space.obj
 0001:000668a0       ?verify@OffsetTableContigSpace@@UBEX_N@Z 080678a0 f   space.obj
 0001:000669e0       ?new_dcto_cl@Space@@UAEPAVDirtyCardToOopClosure@@PAVOopClosure@@W4PrecisionStyle@CardTableModRefBS@@PAVHeapWord@@@Z 080679e0 f   space.obj
 0001:00066a30       ?new_dcto_cl@ContiguousSpace@@UAEPAVDirtyCardToOopClosure@@PAVOopClosure@@W4PrecisionStyle@CardTableModRefBS@@PAVHeapWord@@@Z 08067a30 f   space.obj
 0001:00066a80       ?forward@CompactibleSpace@@UAEPAVHeapWord@@PAVoopDesc@@IPAVCompactPoint@@PAV2@@Z 08067a80 f   space.obj
 0001:00066b50       ?compact@CompactibleSpace@@UAEXXZ 08067b50 f   space.obj
 0001:00066ca0       ?name@TenuredGeneration@@UBEPBDXZ 08067ca0 f   tenuredGeneration.obj
 0001:00066cb0       ?should_collect@TenuredGeneration@@UAE_N_NI0@Z 08067cb0 f   tenuredGeneration.obj
 0001:00066d10       ?par_promote_alloc_done@TenuredGeneration@@UAEXH@Z 08067d10 f   tenuredGeneration.obj
 0001:00066d40       ?retire_alloc_buffers_before_full_gc@TenuredGeneration@@IAEXXZ 08067d40 f   tenuredGeneration.obj
 0001:00066d80       ?allocate@ParGCAllocBufferWithBOT@@QAEPAVHeapWord@@I@Z 08067d80 f i tenuredGeneration.obj
 0001:00066dc0       ?set_buf@ParGCAllocBufferWithBOT@@QAEXPAVHeapWord@@@Z 08067dc0 f i tenuredGeneration.obj
 0001:00066e10       ?compute_new_size@TenuredGeneration@@UAEXXZ 08067e10 f   tenuredGeneration.obj
 0001:00066fc0       ?collect@TenuredGeneration@@UAEX_N0I0@Z 08067fc0 f   tenuredGeneration.obj
 0001:00066ff0       ?update_gc_stats@TenuredGeneration@@UAEXH_N@Z 08067ff0 f   tenuredGeneration.obj
 0001:00067040       ?update_counters@TenuredGeneration@@UAEXXZ 08068040 f   tenuredGeneration.obj
 0001:00067090       ?par_promote_alloc_undo@TenuredGeneration@@UAEXHPAVHeapWord@@I@Z 08068090 f   tenuredGeneration.obj
 0001:00067110       ?verify_alloc_buffers_clean@TenuredGeneration@@QAEXXZ 08068110 f   tenuredGeneration.obj
 0001:00067170       ?promotion_attempt_is_safe@TenuredGeneration@@UBE_NI@Z 08068170 f   tenuredGeneration.obj
 0001:000671b0       ?gc_prologue@TenuredGeneration@@UAEX_N@Z 080681b0 f   tenuredGeneration.obj
 0001:000671e0       ?gc_epilogue@TenuredGeneration@@UAEX_N@Z 080681e0 f   tenuredGeneration.obj
 0001:00067210       ?par_promote@TenuredGeneration@@UAEPAVoopDesc@@HPAV2@PAVmarkOopDesc@@I@Z 08068210 f   tenuredGeneration.obj
 0001:00067310       ??0TenuredGeneration@@QAE@VReservedSpace@@IHPAVGenRemSet@@@Z 08068310 f   tenuredGeneration.obj
 0001:00067550       ?short_name@TenuredGeneration@@UBEPBDXZ 08068550 f i tenuredGeneration.obj
 0001:00067560       ?full_collects_younger_generations@TenuredGeneration@@UBE_NXZ 08068560 f i tenuredGeneration.obj
 0001:00067570       ?print@GlobalTLABStats@@QAEXXZ 08068570 f   threadLocalAllocBuffer.obj
 0001:00067610       ?create_variable@PerfDataManager@@SAPAVPerfLongVariable@@W4CounterNS@@PBDW4Units@PerfData@@PAVThread@@@Z 08068610 f i threadLocalAllocBuffer.obj
 0001:00067640       ?myThread@ThreadLocalAllocBuffer@@AAEPAVThread@@XZ 08068640 f   threadLocalAllocBuffer.obj
 0001:00067650       ?publish@GlobalTLABStats@@QAEXXZ 08068650 f   threadLocalAllocBuffer.obj
 0001:00067730       ?print_stats@ThreadLocalAllocBuffer@@AAEXPBD@Z 08068730 f   threadLocalAllocBuffer.obj
 0001:00067830       ??0GlobalTLABStats@@QAE@XZ 08068830 f   threadLocalAllocBuffer.obj
 0001:00067b80       ?fill@ThreadLocalAllocBuffer@@QAEXPAVHeapWord@@0I@Z 08068b80 f   threadLocalAllocBuffer.obj
 0001:00067c00       ?max_size@ThreadLocalAllocBuffer@@SA?BIXZ 08068c00 f   threadLocalAllocBuffer.obj
 0001:00067c10       ?hard_end@ThreadLocalAllocBuffer@@QBEPAVHeapWord@@XZ 08068c10 f i threadLocalAllocBuffer.obj
 0001:00067c60       ?make_parsable@ThreadLocalAllocBuffer@@QAEX_N@Z 08068c60 f   threadLocalAllocBuffer.obj
 0001:00067cd0       ?resize@ThreadLocalAllocBuffer@@AAEXXZ 08068cd0 f   threadLocalAllocBuffer.obj
 0001:00067d70       ?initial_desired_size@ThreadLocalAllocBuffer@@AAEIXZ 08068d70 f   threadLocalAllocBuffer.obj
 0001:00067e30       ?clear_before_allocation@ThreadLocalAllocBuffer@@QAEXXZ 08068e30 f   threadLocalAllocBuffer.obj
 0001:00067ea0       ?accumulate_statistics@ThreadLocalAllocBuffer@@AAEXXZ 08068ea0 f   threadLocalAllocBuffer.obj
 0001:00068030       ?resize_all_tlabs@ThreadLocalAllocBuffer@@SAXXZ 08069030 f   threadLocalAllocBuffer.obj
 0001:00068060       ?initialize@ThreadLocalAllocBuffer@@QAEXXZ 08069060 f   threadLocalAllocBuffer.obj
 0001:000680f0       ?startup_initialization@ThreadLocalAllocBuffer@@SAXXZ 080690f0 f   threadLocalAllocBuffer.obj
 0001:00068190       ?accumulate_statistics_before_gc@ThreadLocalAllocBuffer@@SAXXZ 08069190 f   threadLocalAllocBuffer.obj
 0001:00068220       ??0G1CollectorPolicy_BestRegionsFirst@@QAE@XZ 08069220 f i universe.obj
 0001:00068260       ?default_init_heap_size@G1CollectorPolicy@@MAEIXZ 08069260 f i universe.obj
 0001:00068270       ?initialize_basic_type_mirrors@Universe@@CAXPAVThread@@@Z 08069270 f   universe.obj
 0001:00068410       ?non_oop_word@Universe@@SAPAXXZ 08069410 f   universe.obj
 0001:00068430       ??0ASConcurrentMarkSweepPolicy@@QAE@XZ 08069430 f i universe.obj
 0001:00068450       ?type@opt_virtual_call_Relocation@@EAE?AW4relocType@relocInfo@@XZ 08069450 f i compiledIC.obj
 0001:00068450       ?cell_count@BranchData@@UAEHXZ 08069450 f i ciMethodData.obj
 0001:00068450       ?kind@ParallelScavengeHeap@@UBE?AW4Name@CollectedHeap@@XZ 08069450 f i universe.obj
 0001:00068450       ?kind@MSCMemoryManager@@UAE?AW4Name@MemoryManager@@XZ 08069450 f i memoryManager.obj
 0001:00068450       ?evaluation_mode@VM_ThreadStop@@UBE?AW4Mode@VM_Operation@@XZ 08069450 f i thread.obj
 0001:00068450       ?kind@ParNewGeneration@@UAE?AW4Name@Generation@@XZ 08069450 f i asParNewGeneration.obj
 0001:00068450       ?legal_state@VM_CMS_Initial_Mark@@UBE?BW4CollectorState@CMSCollector@@XZ 08069450 f i concurrentMarkSweepGeneration.obj
 0001:00068450       ?kind@ASConcurrentMarkSweepPolicy@@UAE?AW4Name@CollectorPolicy@@XZ 08069450 f i universe.obj
 0001:00068450       ?evaluation_mode@VM_ForceAsyncSafepoint@@UBE?AW4Mode@VM_Operation@@XZ 08069450 f i synchronizer.obj
 0001:00068450       ?type@VM_PrintThreads@@UBE?AW4VMOp_Type@VM_Operation@@XZ 08069450 f i jvm.obj
 0001:00068450       ?kind@PSGCAdaptivePolicyCounters@@UBE?AW4Name@GCPolicyCounters@@XZ 08069450 f i psGCAdaptivePolicyCounters.obj
 0001:00068460       ?create_klass@typeArrayKlass@@SAPAVklassOopDesc@@W4BasicType@@HPAVThread@@@Z 08069460 f i universe.obj
 0001:00068490       ?unlock@GC_locker@@SAXXZ   08069490 f i universe.obj
 0001:000684c0       ?basic_type_classes_do@Universe@@SAXP6AXPAVklassOopDesc@@@Z@Z 080694c0 f   universe.obj
 0001:00068520       ?oops_do@Universe@@SAXPAVOopClosure@@_N@Z 08069520 f   universe.obj
 0001:00068810       ?fixup_mirrors@Universe@@CAXPAVThread@@@Z 08069810 f   universe.obj
 0001:00068840       ?initialize_itable_for_klass@@YAXPAVklassOopDesc@@PAVThread@@@Z 08069840 f   universe.obj
 0001:00068860       ?should_fill_in_stack_trace@Universe@@SA_NVHandle@@@Z 08069860 f   universe.obj
 0001:000688c0       ?update_heap_info_at_gc@Universe@@SAXXZ 080698c0 f   universe.obj
 0001:000688f0       ?flush_dependents_on@Universe@@SAXVinstanceKlassHandle@@@Z 080698f0 f   universe.obj
 0001:00068950       ?print_on@Universe@@SAXPAVoutputStream@@@Z 08069950 f   universe.obj
 0001:00068980       ?print_heap_at_SIGBREAK@Universe@@SAXXZ 08069980 f   universe.obj
 0001:000689e0       ?print_heap_before_gc@Universe@@SAXPAVoutputStream@@@Z 080699e0 f   universe.obj
 0001:00068a20       ?print_heap_after_gc@Universe@@SAXPAVoutputStream@@@Z 08069a20 f   universe.obj
 0001:00068a70       ?init@CommonMethodOopCache@@QAEXPAVklassOopDesc@@PAVmethodOopDesc@@PAVThread@@@Z 08069a70 f   universe.obj
 0001:00068aa0       ?is_same_method@ActiveMethodOopsCache@@QBE_NQAVmethodOopDesc@@@Z 08069aa0 f   universe.obj
 0001:00068b00       ?get_methodOop@LatestMethodOopCache@@QAEPAVmethodOopDesc@@XZ 08069b00 f   universe.obj
 0001:00068b10       ??0?$GrowableArray@PAVoopDesc@@@@QAE@H_N@Z 08069b10 f i methodOop.obj
 0001:00068b10       ??0?$GrowableArray@PAV_jobject@@@@QAE@H_N@Z 08069b10 f i universe.obj
 0001:00068b10       ??0?$GrowableArray@PAVScopeValue@@@@QAE@H_N@Z 08069b10 f i scopeDesc.obj
 0001:00068b10       ??0?$GrowableArray@PAVmarkOopDesc@@@@QAE@H_N@Z 08069b10 f i jvmtiTagMap.obj
 0001:00068b10       ??0?$GrowableArray@VmethodHandle@@@@QAE@H_N@Z 08069b10 f i instanceKlass.obj
 0001:00068b10       ??0?$GrowableArray@H@@QAE@H_N@Z 08069b10 f i generateOopMap.obj
 0001:00068b10       ??0?$GrowableArray@PAVProfilerNode@@@@QAE@H_N@Z 08069b10 f i fprofiler.obj
 0001:00068b10       ??0?$GrowableArray@PAU_jmethodID@@@@QAE@H_N@Z 08069b10 f i jvmtiExport.obj
 0001:00068b10       ??0?$GrowableArray@PAVPreviousVersionNode@@@@QAE@H_N@Z 08069b10 f i instanceKlass.obj
 0001:00068b10       ??0?$GrowableArray@PAVinstanceKlass@@@@QAE@H_N@Z 08069b10 f i jvmtiTagMap.obj
 0001:00068b10       ??0?$GrowableArray@VinstanceHandle@@@@QAE@H_N@Z 08069b10 f i jvm.obj
 0001:00068b10       ??0?$GrowableArray@VHandle@@@@QAE@H_N@Z 08069b10 f i biasedLocking.obj
 0001:00068b10       ??0?$GrowableArray@PBX@@QAE@H_N@Z 08069b10 f i jvmtiExport.obj
 0001:00068b10       ??0?$GrowableArray@PAVCodeBlob@@@@QAE@H_N@Z 08069b10 f i fprofiler.obj
 0001:00068b10       ??0?$GrowableArray@PAVjvmtiDeferredLocalVariableSet@@@@QAE@H_N@Z 08069b10 f i vframe_hp.obj
 0001:00068b10       ??0?$GrowableArray@PAE@@QAE@H_N@Z 08069b10 f i interpreterRuntime.obj
 0001:00068b10       ??0?$GrowableArray@PAVMonitor@@@@QAE@H_N@Z 08069b10 f i gcTaskManager.obj
 0001:00068b10       ??0?$GrowableArray@PAVMonitorValue@@@@QAE@H_N@Z 08069b10 f i scopeDesc.obj
 0001:00068b10       ??0?$GrowableArray@PAVJvmtiCodeBlobDesc@@@@QAE@H_N@Z 08069b10 f i jvmtiCodeBlobEvents.obj
 0001:00068b10       ??0?$GrowableArray@PAVMonitorInfo@@@@QAE@H_N@Z 08069b10 f i vframe.obj
 0001:00068b70       ?is_leaf_class@Klass@@UBE_NXZ 08069b70 f i universe.obj
 0001:00068b90       ?oop_oop_iterate_nv@Klass@@UAEHPAVoopDesc@@PAVG1ParPushHeapRSClosure@@@Z 08069b90 f i universe.obj
 0001:00068b90       ?oop_oop_iterate_nv@Klass@@UAEHPAVoopDesc@@PAVPar_PushOrMarkClosure@@@Z 08069b90 f i universe.obj
 0001:00068b90       ?oop_oop_iterate_nv@Klass@@UAEHPAVoopDesc@@PAVParScanWithoutBarrierClosure@@@Z 08069b90 f i universe.obj
 0001:00068b90       ?oop_oop_iterate_nv@Klass@@UAEHPAVoopDesc@@PAVG1ParScanClosure@@@Z 08069b90 f i universe.obj
 0001:00068b90       ?oop_oop_iterate_nv@Klass@@UAEHPAVoopDesc@@PAVCMSInnerParMarkAndPushClosure@@@Z 08069b90 f i universe.obj
 0001:00068b90       ?oop_oop_iterate_nv@Klass@@UAEHPAVoopDesc@@PAVPushOrMarkClosure@@@Z 08069b90 f i universe.obj
 0001:00068b90       ?oop_oop_iterate_nv@Klass@@UAEHPAVoopDesc@@PAVParScanWithBarrierClosure@@@Z 08069b90 f i universe.obj
 0001:00068b90       ?oop_oop_iterate_nv@Klass@@UAEHPAVoopDesc@@PAV?$G1ParCopyClosure@$0A@$01$0A@@@@Z 08069b90 f i universe.obj
 0001:00068b90       ?oop_oop_iterate_nv@Klass@@UAEHPAVoopDesc@@PAVFilterAndMarkInHeapRegionAndIntoCSClosure@@@Z 08069b90 f i universe.obj
 0001:00068b90       ?oop_oop_iterate_nv@Klass@@UAEHPAVoopDesc@@PAVFilterInHeapRegionAndIntoCSClosure@@@Z 08069b90 f i universe.obj
 0001:00068b90       ?oop_oop_iterate_nv@Klass@@UAEHPAVoopDesc@@PAVFilteringClosure@@@Z 08069b90 f i universe.obj
 0001:00068b90       ?oop_oop_iterate_nv@Klass@@UAEHPAVoopDesc@@PAVMarkRefsIntoAndScanClosure@@@Z 08069b90 f i universe.obj
 0001:00068b90       ?oop_oop_iterate_v@Klass@@UAEHPAVoopDesc@@PAVOopClosure@@@Z 08069b90 f i universe.obj
 0001:00068b90       ?oop_oop_iterate_nv@Klass@@UAEHPAVoopDesc@@PAVScanClosure@@@Z 08069b90 f i universe.obj
 0001:00068b90       ?oop_oop_iterate_nv@Klass@@UAEHPAVoopDesc@@PAVCMSKeepAliveClosure@@@Z 08069b90 f i universe.obj
 0001:00068b90       ?oop_oop_iterate_nv@Klass@@UAEHPAVoopDesc@@PAVFilterOutOfRegionClosure@@@Z 08069b90 f i universe.obj
 0001:00068b90       ?oop_oop_iterate_nv@Klass@@UAEHPAVoopDesc@@PAVPar_MarkRefsIntoAndScanClosure@@@Z 08069b90 f i universe.obj
 0001:00068b90       ?oop_oop_iterate_nv@Klass@@UAEHPAVoopDesc@@PAVFilterIntoCSClosure@@@Z 08069b90 f i universe.obj
 0001:00068b90       ?oop_oop_iterate_nv@Klass@@UAEHPAVoopDesc@@PAVPar_PushAndMarkClosure@@@Z 08069b90 f i universe.obj
 0001:00068b90       ?oop_oop_iterate_nv@Klass@@UAEHPAVoopDesc@@PAVFastScanClosure@@@Z 08069b90 f i universe.obj
 0001:00068b90       ?oop_oop_iterate_nv@Klass@@UAEHPAVoopDesc@@PAVPushAndMarkClosure@@@Z 08069b90 f i universe.obj
 0001:00068ba0       ?oop_oop_iterate_nv_m@Klass@@UAEHPAVoopDesc@@PAVPar_PushOrMarkClosure@@VMemRegion@@@Z 08069ba0 f i universe.obj
 0001:00068ba0       ?oop_oop_iterate_nv_m@Klass@@UAEHPAVoopDesc@@PAVPar_PushAndMarkClosure@@VMemRegion@@@Z 08069ba0 f i universe.obj
 0001:00068ba0       ?oop_oop_iterate_nv_m@Klass@@UAEHPAVoopDesc@@PAVCMSKeepAliveClosure@@VMemRegion@@@Z 08069ba0 f i universe.obj
 0001:00068ba0       ?oop_oop_iterate_nv_m@Klass@@UAEHPAVoopDesc@@PAVFilterAndMarkInHeapRegionAndIntoCSClosure@@VMemRegion@@@Z 08069ba0 f i universe.obj
 0001:00068ba0       ?oop_oop_iterate_nv_m@Klass@@UAEHPAVoopDesc@@PAVPushOrMarkClosure@@VMemRegion@@@Z 08069ba0 f i universe.obj
 0001:00068ba0       ?oop_oop_iterate_nv_m@Klass@@UAEHPAVoopDesc@@PAV?$G1ParCopyClosure@$0A@$01$0A@@@VMemRegion@@@Z 08069ba0 f i universe.obj
 0001:00068ba0       ?oop_oop_iterate_nv_m@Klass@@UAEHPAVoopDesc@@PAVCMSInnerParMarkAndPushClosure@@VMemRegion@@@Z 08069ba0 f i universe.obj
 0001:00068ba0       ?oop_oop_iterate_nv_m@Klass@@UAEHPAVoopDesc@@PAVG1ParPushHeapRSClosure@@VMemRegion@@@Z 08069ba0 f i universe.obj
 0001:00068ba0       ?oop_oop_iterate_nv_m@Klass@@UAEHPAVoopDesc@@PAVPushAndMarkClosure@@VMemRegion@@@Z 08069ba0 f i universe.obj
 0001:00068ba0       ?oop_oop_iterate_nv_m@Klass@@UAEHPAVoopDesc@@PAVMarkRefsIntoAndScanClosure@@VMemRegion@@@Z 08069ba0 f i universe.obj
 0001:00068ba0       ?oop_oop_iterate_nv_m@Klass@@UAEHPAVoopDesc@@PAVG1ParScanClosure@@VMemRegion@@@Z 08069ba0 f i universe.obj
 0001:00068ba0       ?oop_oop_iterate_nv_m@Klass@@UAEHPAVoopDesc@@PAVScanClosure@@VMemRegion@@@Z 08069ba0 f i universe.obj
 0001:00068ba0       ?oop_oop_iterate_nv_m@Klass@@UAEHPAVoopDesc@@PAVFilterIntoCSClosure@@VMemRegion@@@Z 08069ba0 f i universe.obj
 0001:00068ba0       ?oop_oop_iterate_nv_m@Klass@@UAEHPAVoopDesc@@PAVFilterOutOfRegionClosure@@VMemRegion@@@Z 08069ba0 f i universe.obj
 0001:00068ba0       ?oop_oop_iterate_nv_m@Klass@@UAEHPAVoopDesc@@PAVFilterInHeapRegionAndIntoCSClosure@@VMemRegion@@@Z 08069ba0 f i universe.obj
 0001:00068ba0       ?oop_oop_iterate_v_m@Klass@@UAEHPAVoopDesc@@PAVOopClosure@@VMemRegion@@@Z 08069ba0 f i universe.obj
 0001:00068ba0       ?oop_oop_iterate_nv_m@Klass@@UAEHPAVoopDesc@@PAVFastScanClosure@@VMemRegion@@@Z 08069ba0 f i universe.obj
 0001:00068ba0       ?oop_oop_iterate_nv_m@Klass@@UAEHPAVoopDesc@@PAVPar_MarkRefsIntoAndScanClosure@@VMemRegion@@@Z 08069ba0 f i universe.obj
 0001:00068ba0       ?oop_oop_iterate_nv_m@Klass@@UAEHPAVoopDesc@@PAVParScanWithoutBarrierClosure@@VMemRegion@@@Z 08069ba0 f i universe.obj
 0001:00068ba0       ?oop_oop_iterate_nv_m@Klass@@UAEHPAVoopDesc@@PAVParScanWithBarrierClosure@@VMemRegion@@@Z 08069ba0 f i universe.obj
 0001:00068ba0       ?oop_oop_iterate_nv_m@Klass@@UAEHPAVoopDesc@@PAVFilteringClosure@@VMemRegion@@@Z 08069ba0 f i universe.obj
 0001:00068bd0       ?oop_oop_iterate_backwards_nv@Klass@@UAEHPAVoopDesc@@PAVFilterInHeapRegionAndIntoCSClosure@@@Z 08069bd0 f i universe.obj
 0001:00068bd0       ?oop_oop_iterate_backwards_nv@Klass@@UAEHPAVoopDesc@@PAVCMSInnerParMarkAndPushClosure@@@Z 08069bd0 f i universe.obj
 0001:00068bd0       ?oop_oop_iterate_backwards_nv@Klass@@UAEHPAVoopDesc@@PAVParScanWithoutBarrierClosure@@@Z 08069bd0 f i universe.obj
 0001:00068bd0       ?oop_oop_iterate_backwards_nv@Klass@@UAEHPAVoopDesc@@PAVScanClosure@@@Z 08069bd0 f i universe.obj
 0001:00068bd0       ?oop_oop_iterate_backwards_nv@Klass@@UAEHPAVoopDesc@@PAVPushAndMarkClosure@@@Z 08069bd0 f i universe.obj
 0001:00068bd0       ?oop_oop_iterate_backwards_nv@Klass@@UAEHPAVoopDesc@@PAVFilterAndMarkInHeapRegionAndIntoCSClosure@@@Z 08069bd0 f i universe.obj
 0001:00068bd0       ?oop_oop_iterate_backwards_nv@Klass@@UAEHPAVoopDesc@@PAVFilterIntoCSClosure@@@Z 08069bd0 f i universe.obj
 0001:00068bd0       ?oop_oop_iterate_backwards_nv@Klass@@UAEHPAVoopDesc@@PAVPar_MarkRefsIntoAndScanClosure@@@Z 08069bd0 f i universe.obj
 0001:00068bd0       ?oop_oop_iterate_backwards_nv@Klass@@UAEHPAVoopDesc@@PAVFilteringClosure@@@Z 08069bd0 f i universe.obj
 0001:00068bd0       ?oop_oop_iterate_backwards_nv@Klass@@UAEHPAVoopDesc@@PAVG1ParScanClosure@@@Z 08069bd0 f i universe.obj
 0001:00068bd0       ?oop_oop_iterate_backwards_nv@Klass@@UAEHPAVoopDesc@@PAV?$G1ParCopyClosure@$0A@$01$0A@@@@Z 08069bd0 f i universe.obj
 0001:00068bd0       ?oop_oop_iterate_backwards_nv@Klass@@UAEHPAVoopDesc@@PAVPushOrMarkClosure@@@Z 08069bd0 f i universe.obj
 0001:00068bd0       ?oop_oop_iterate_backwards_nv@Klass@@UAEHPAVoopDesc@@PAVG1ParPushHeapRSClosure@@@Z 08069bd0 f i universe.obj
 0001:00068bd0       ?oop_oop_iterate_backwards_nv@Klass@@UAEHPAVoopDesc@@PAVCMSKeepAliveClosure@@@Z 08069bd0 f i universe.obj
 0001:00068bd0       ?oop_oop_iterate_backwards_nv@Klass@@UAEHPAVoopDesc@@PAVFilterOutOfRegionClosure@@@Z 08069bd0 f i universe.obj
 0001:00068bd0       ?oop_oop_iterate_backwards_nv@Klass@@UAEHPAVoopDesc@@PAVMarkRefsIntoAndScanClosure@@@Z 08069bd0 f i universe.obj
 0001:00068bd0       ?oop_oop_iterate_backwards_nv@Klass@@UAEHPAVoopDesc@@PAVPar_PushAndMarkClosure@@@Z 08069bd0 f i universe.obj
 0001:00068bd0       ?oop_oop_iterate_backwards_nv@Klass@@UAEHPAVoopDesc@@PAVFastScanClosure@@@Z 08069bd0 f i universe.obj
 0001:00068bd0       ?oop_oop_iterate_backwards_nv@Klass@@UAEHPAVoopDesc@@PAVPar_PushOrMarkClosure@@@Z 08069bd0 f i universe.obj
 0001:00068bd0       ?oop_oop_iterate_backwards_nv@Klass@@UAEHPAVoopDesc@@PAVParScanWithBarrierClosure@@@Z 08069bd0 f i universe.obj
 0001:00068be0       ?class_loader@instanceKlass@@UBEPAVoopDesc@@XZ 08069be0 f i universe.obj
 0001:00068bf0       ?protection_domain@instanceKlass@@UAEPAVoopDesc@@XZ 08069bf0 f i universe.obj
 0001:00068bf0       ?size_policy@GCAdaptivePolicyCounters@@MAEPAVAdaptiveSizePolicy@@XZ 08069bf0 f i gcAdaptivePolicyCounters.obj
 0001:00068c00       ?is_leaf_class@instanceKlass@@UBE_NXZ 08069c00 f i universe.obj
 0001:00068c10       ?java_super@instanceKlass@@UBEPAVklassOopDesc@@XZ 08069c10 f i universe.obj
 0001:00068c10       ?top_vframe@CompiledRFrame@@UBEPAVjavaVFrame@@XZ 08069c10 f i rframe.obj
 0001:00068c20       ?oop_size@instanceKlass@@UBEHPAVoopDesc@@@Z 08069c20 f i universe.obj
 0001:00068c30       ?alloc_size@instanceKlass@@UBEIXZ 08069c30 f i universe.obj
 0001:00068c40       ?oop_oop_iterate@instanceKlass@@UAEHPAVoopDesc@@PAVOopClosure@@@Z 08069c40 f i universe.obj
 0001:00068c40       ?oop_oop_iterate_backwards_v@Klass@@UAEHPAVoopDesc@@PAVOopClosure@@@Z 08069c40 f i universe.obj
 0001:00068c40       ?oop_oop_iterate@objArrayKlass@@UAEHPAVoopDesc@@PAVOopClosure@@@Z 08069c40 f i universe.obj
 0001:00068c40       ?oop_oop_iterate@instanceRefKlass@@UAEHPAVoopDesc@@PAVOopClosure@@@Z 08069c40 f i universe.obj
 0001:00068c50       ?size_policy@ParallelScavengeHeap@@UAEPAVPSAdaptiveSizePolicy@@XZ 08069c50 f i universe.obj
 0001:00068c60       ?is_in_permanent@ParallelScavengeHeap@@UBE_NPBX@Z 08069c60 f i universe.obj
 0001:00068c90       ?is_permanent@ParallelScavengeHeap@@UBE_NPBX@Z 08069c90 f i universe.obj
 0001:00068cb0       ?supports_inline_contig_alloc@ParallelScavengeHeap@@UBE_NXZ 08069cb0 f i universe.obj
 0001:00068cc0       ?top_addr@ParallelScavengeHeap@@UBEPAPAVHeapWord@@XZ 08069cc0 f i universe.obj
 0001:00068ce0       ?end_addr@ParallelScavengeHeap@@UBEPAPAVHeapWord@@XZ 08069ce0 f i universe.obj
 0001:00068d00       ?safe_object_iterate@ParallelScavengeHeap@@UAEXPAVObjectClosure@@@Z 08069d00 f i universe.obj
 0001:00068d10       ?set_alloc_size@klassKlass@@UAEXI@Z 08069d10 f i universe.obj
 0001:00068d10       ?set_alloc_size@constantPoolCacheKlass@@UAEXI@Z 08069d10 f i universe.obj
 0001:00068d10       ?set_alloc_size@symbolKlass@@UAEXI@Z 08069d10 f i universe.obj
 0001:00068d10       ?set_alloc_size@methodKlass@@UAEXI@Z 08069d10 f i universe.obj
 0001:00068d10       ?set_alloc_size@constantPoolKlass@@UAEXI@Z 08069d10 f i universe.obj
 0001:00068d10       ?set_alloc_size@compiledICHolderKlass@@UAEXI@Z 08069d10 f i universe.obj
 0001:00068d10       ?set_alloc_size@methodDataKlass@@UAEXI@Z 08069d10 f i universe.obj
 0001:00068d10       ?set_alloc_size@constMethodKlass@@UAEXI@Z 08069d10 f i universe.obj
 0001:00068d20       ?klass_oop_size@constantPoolKlass@@UBEHXZ 08069d20 f i universe.obj
 0001:00068d20       ?klass_oop_size@objArrayKlassKlass@@UBEHXZ 08069d20 f i universe.obj
 0001:00068d20       ?klass_oop_size@symbolKlass@@UBEHXZ 08069d20 f i universe.obj
 0001:00068d20       ?klass_oop_size@klassKlass@@UBEHXZ 08069d20 f i universe.obj
 0001:00068d20       ?klass_oop_size@compiledICHolderKlass@@UBEHXZ 08069d20 f i universe.obj
 0001:00068d20       ?klass_oop_size@methodKlass@@UBEHXZ 08069d20 f i universe.obj
 0001:00068d20       ?klass_oop_size@methodDataKlass@@UBEHXZ 08069d20 f i universe.obj
 0001:00068d20       ?klass_oop_size@typeArrayKlassKlass@@UBEHXZ 08069d20 f i universe.obj
 0001:00068d20       ?klass_oop_size@constantPoolCacheKlass@@UBEHXZ 08069d20 f i universe.obj
 0001:00068d20       ?klass_oop_size@constMethodKlass@@UBEHXZ 08069d20 f i universe.obj
 0001:00068d20       ?klass_oop_size@instanceKlassKlass@@UBEHXZ 08069d20 f i universe.obj
 0001:00068d40       ?oop_size@typeArrayKlassKlass@@UBEHPAVoopDesc@@@Z 08069d40 f i universe.obj
 0001:00068d40       ?oop_size@objArrayKlassKlass@@UBEHPAVoopDesc@@@Z 08069d40 f i universe.obj
 0001:00068d60       ?check_alignment@Universe@@SAXIIPBD@Z 08069d60 f   universe.obj
 0001:00068e10       ?do_object@FixupMirrorClosure@@UAEXPAVoopDesc@@@Z 08069e10 f i universe.obj
 0001:00068e90       ?run_finalizers_on_exit@Universe@@SAXXZ 08069e90 f   universe.obj
 0001:00068f00       ?initialize_heap@Universe@@CAHXZ 08069f00 f   universe.obj
 0001:00069030       ?flush_evol_dependents_on@Universe@@SAXVinstanceKlassHandle@@@Z 0806a030 f   universe.obj
 0001:000690b0       ?flush_dependents_on_method@Universe@@SAXVmethodHandle@@@Z 0806a0b0 f   universe.obj
 0001:00069130       ?print@Universe@@SAXXZ     0806a130 f   universe.obj
 0001:00069160       ?verify@Universe@@SAX_N00@Z 0806a160 f   universe.obj
 0001:00069330       ?alloc_size@arrayKlass@@UBEIXZ 0806a330 f i universe.obj
 0001:00069340       ?set_alloc_size@arrayKlass@@UAEXI@Z 0806a340 f i universe.obj
 0001:00069350       ?allocate_permanent@instanceKlass@@UBEPAXAAVKlassHandle@@HPAVThread@@@Z 0806a350 f i universe.obj
 0001:000693c0       ?klass_oop_size@instanceKlass@@UBEHXZ 0806a3c0 f i universe.obj
 0001:000693d0       ?object_size@instanceKlass@@QBEHXZ 0806a3d0 f i universe.obj
 0001:00069410       ?allocate_permanent@instanceRefKlass@@UBEPAXAAVKlassHandle@@HPAVThread@@@Z 0806a410 f i universe.obj
 0001:00069480       ?protection_domain@objArrayKlass@@UAEPAVoopDesc@@XZ 0806a480 f i universe.obj
 0001:00069490       ?class_loader@objArrayKlass@@UBEPAVoopDesc@@XZ 0806a490 f i universe.obj
 0001:000694a0       ?oop_oop_iterate_m@instanceKlass@@UAEHPAVoopDesc@@PAVOopClosure@@VMemRegion@@@Z 0806a4a0 f i universe.obj
 0001:000694a0       ?oop_oop_iterate_m@instanceRefKlass@@UAEHPAVoopDesc@@PAVOopClosure@@VMemRegion@@@Z 0806a4a0 f i universe.obj
 0001:000694a0       ?oop_oop_iterate_m@objArrayKlass@@UAEHPAVoopDesc@@PAVOopClosure@@VMemRegion@@@Z 0806a4a0 f i universe.obj
 0001:000694d0       ?klass_oop_size@typeArrayKlass@@UBEHXZ 0806a4d0 f i universe.obj
 0001:000694d0       ?klass_oop_size@objArrayKlass@@UBEHXZ 0806a4d0 f i universe.obj
 0001:000694e0       ?allocate_permanent@klassKlass@@UBEPAXAAVKlassHandle@@HPAVThread@@@Z 0806a4e0 f i universe.obj
 0001:00069550       ?allocate_permanent@arrayKlassKlass@@UBEPAXAAVKlassHandle@@HPAVThread@@@Z 0806a550 f i universe.obj
 0001:000695c0       ?allocate_permanent@compiledICHolderKlass@@UBEPAXAAVKlassHandle@@HPAVThread@@@Z 0806a5c0 f i universe.obj
 0001:00069630       ?allocate_permanent@constMethodKlass@@UBEPAXAAVKlassHandle@@HPAVThread@@@Z 0806a630 f i universe.obj
 0001:000696a0       ?allocate_permanent@constantPoolKlass@@UBEPAXAAVKlassHandle@@HPAVThread@@@Z 0806a6a0 f i universe.obj
 0001:00069710       ?allocate_permanent@constantPoolCacheKlass@@UBEPAXAAVKlassHandle@@HPAVThread@@@Z 0806a710 f i universe.obj
 0001:00069780       ?allocate_permanent@instanceKlassKlass@@UBEPAXAAVKlassHandle@@HPAVThread@@@Z 0806a780 f i universe.obj
 0001:000697f0       ?allocate_permanent@methodDataKlass@@UBEPAXAAVKlassHandle@@HPAVThread@@@Z 0806a7f0 f i universe.obj
 0001:00069860       ?allocate_permanent@methodKlass@@UBEPAXAAVKlassHandle@@HPAVThread@@@Z 0806a860 f i universe.obj
 0001:000698d0       ?allocate_permanent@objArrayKlassKlass@@UBEPAXAAVKlassHandle@@HPAVThread@@@Z 0806a8d0 f i universe.obj
 0001:00069940       ?allocate_permanent@symbolKlass@@UBEPAXAAVKlassHandle@@HPAVThread@@@Z 0806a940 f i universe.obj
 0001:000699b0       ?allocate_permanent@typeArrayKlassKlass@@UBEPAXAAVKlassHandle@@HPAVThread@@@Z 0806a9b0 f i universe.obj
 0001:00069a20       ?reinitialize_vtable_of@Universe@@CAXVKlassHandle@@PAVThread@@@Z 0806aa20 f   universe.obj
 0001:00069ac0       ?universe_init@@YAHXZ      0806aac0 f   universe.obj
 0001:00069c80       ?add_previous_version@ActiveMethodOopsCache@@QAEXQAVmethodOopDesc@@@Z 0806ac80 f   universe.obj
 0001:00069ef0       ?allocate_permanent@objArrayKlass@@UBEPAXAAVKlassHandle@@HPAVThread@@@Z 0806aef0 f i universe.obj
 0001:00069f60       ?init_self_patching_vtbl_list@Universe@@SAXPAPAXH@Z 0806af60 f   universe.obj
 0001:0006a200       ?allocate_permanent@typeArrayKlass@@UBEPAXAAVKlassHandle@@HPAVThread@@@Z 0806b200 f i universe.obj
 0001:0006a270       ?set_super@Klass@@QAEXPAVklassOopDesc@@@Z 0806b270 f i universe.obj
 0001:0006a2a0       ?gen_out_of_memory_error@Universe@@CAPAVoopDesc@@PAV2@@Z 0806b2a0 f   universe.obj
 0001:0006a330       ?universe_post_init@@YA_NXZ 0806b330 f   universe.obj
 0001:0006aa60       ?set_constants@instanceKlass@@QAEXPAVconstantPoolOopDesc@@@Z 0806ba60 f i classFileParser.obj
 0001:0006aa60       ?set_element_klass@objArrayKlass@@QAEXPAVklassOopDesc@@@Z 0806ba60 f i universe.obj
 0001:0006aa90       ?set_bottom_klass@objArrayKlass@@QAEXPAVklassOopDesc@@@Z 0806ba90 f i universe.obj
 0001:0006aac0       ?genesis@Universe@@CAXPAVThread@@@Z 0806bac0 f   universe.obj
 0001:0006b340       ?universe2_init@@YAXXZ     0806c340 f   universe.obj
 0001:0006b3d0       ?multi_allocate@arrayKlass@@UAEPAVoopDesc@@HPAHPAVThread@@@Z 0806c3d0 f   arrayKlass.obj
 0001:0006b3f0       ?with_array_klasses_do@arrayKlass@@UAEXP6AXPAVklassOopDesc@@@Z@Z 0806c3f0 f   arrayKlass.obj
 0001:0006b400       ?compute_modifier_flags@arrayKlass@@UBEHPAVThread@@@Z 0806c400 f   arrayKlass.obj
 0001:0006b410       ?type@VM_GC_HeapInspection@@UBE?AW4VMOp_Type@VM_Operation@@XZ 0806c410 f   collectedHeap.obj
 0001:0006b410       ?jvmti_class_status@arrayKlass@@UBEHXZ 0806c410 f   arrayKlass.obj
 0001:0006b420       ?object_size@arrayKlass@@QBEHH@Z 0806c420 f   arrayKlass.obj
 0001:0006b440       ?java_super@arrayKlass@@UBEPAVklassOopDesc@@XZ 0806c440 f   arrayKlass.obj
 0001:0006b450       ?uncached_lookup_method@arrayKlass@@UBEPAVmethodOopDesc@@PAVsymbolOopDesc@@0@Z 0806c450 f   arrayKlass.obj
 0001:0006b460       ?compute_secondary_supers@arrayKlass@@UAEPAVobjArrayOopDesc@@HPAVThread@@@Z 0806c460 f   arrayKlass.obj
 0001:0006b470       ?compute_is_subtype_of@arrayKlass@@UAE_NPAVklassOopDesc@@@Z 0806c470 f   arrayKlass.obj
 0001:0006b4a0       ?array_klasses_do@arrayKlass@@UAEXP6AXPAVklassOopDesc@@@Z@Z 0806c4a0 f   arrayKlass.obj
 0001:0006b4d0       ?common_mem_allocate_noinit@CollectedHeap@@KAPAVHeapWord@@I_NPAVThread@@@Z 0806c4d0 f i arrayKlass.obj
 0001:0006b600       ?complete_create_array_klass@arrayKlass@@SAXVarrayKlassHandle@@VKlassHandle@@PAVThread@@@Z 0806c600 f   arrayKlass.obj
 0001:0006b6c0       ?vtable@arrayKlass@@UBEPAVklassVtable@@XZ 0806c6c0 f   arrayKlass.obj
 0001:0006b730       ?oop_print_on@arrayKlass@@UAEXPAVoopDesc@@PAVoutputStream@@@Z 0806c730 f   arrayKlass.obj
 0001:0006b760       ?oop_verify_on@arrayKlass@@UAEXPAVoopDesc@@PAVoutputStream@@@Z 0806c760 f   arrayKlass.obj
 0001:0006b7c0       ?base_create_array_klass@arrayKlass@@SA?AVarrayKlassHandle@@ABVKlass_vtbl@@HVKlassHandle@@PAVThread@@@Z 0806c7c0 f   arrayKlass.obj
 0001:0006b910       ?array_allocate@CollectedHeap@@SAPAVoopDesc@@VKlassHandle@@HHPAVThread@@@Z 0806c910 f i arrayKlass.obj
 0001:0006b970       ?allocate_arrayArray@arrayKlass@@QAEPAVobjArrayOopDesc@@HHPAVThread@@@Z 0806c970 f   arrayKlass.obj
 0001:0006ba80       ?oop_print_on@arrayKlassKlass@@UAEXPAVoopDesc@@PAVoutputStream@@@Z 0806ca80 f   arrayKlassKlass.obj
 0001:0006ba90       ?internal_name@arrayKlassKlass@@UBEPBDXZ 0806ca90 f   arrayKlassKlass.obj
 0001:0006baa0       ?oop_is_parsable@arrayKlassKlass@@UBE_NPAVoopDesc@@@Z 0806caa0 f   arrayKlassKlass.obj
 0001:0006bad0       ?oop_oop_iterate@arrayKlassKlass@@UAEHPAVoopDesc@@PAVOopClosure@@@Z 0806cad0 f   arrayKlassKlass.obj
 0001:0006bb30       ?oop_oop_iterate_m@arrayKlassKlass@@UAEHPAVoopDesc@@PAVOopClosure@@VMemRegion@@@Z 0806cb30 f   arrayKlassKlass.obj
 0001:0006bbb0       ?oop_print_value_on@arrayKlassKlass@@UAEXPAVoopDesc@@PAVoutputStream@@@Z 0806cbb0 f   arrayKlassKlass.obj
 0001:0006bbf0       ?create_klass@arrayKlassKlass@@SAPAVklassOopDesc@@PAVThread@@@Z 0806cbf0 f   arrayKlassKlass.obj
 0001:0006bc60       ?oop_adjust_pointers@arrayKlassKlass@@UAEHPAVoopDesc@@@Z 0806cc60 f   arrayKlassKlass.obj
 0001:0006bd20       ?oop_update_pointers@arrayKlassKlass@@UAEHPAVParCompactionManager@@PAVoopDesc@@@Z 0806cd20 f   arrayKlassKlass.obj
 0001:0006bdd0       ?oop_verify_on@arrayKlassKlass@@UAEXPAVoopDesc@@PAVoutputStream@@@Z 0806cdd0 f   arrayKlassKlass.obj
 0001:0006be80       ?push@?$GenericTaskQueue@PAVoopDesc@@$0EAAA@@@QAE_NPAVoopDesc@@@Z 0806ce80 f i arrayKlassKlass.obj
 0001:0006bf00       ?mark_obj@PSParallelCompact@@SA_NPAVoopDesc@@@Z 0806cf00 f i arrayKlassKlass.obj
 0001:0006bf40       ?oop_update_pointers@arrayKlassKlass@@UAEHPAVParCompactionManager@@PAVoopDesc@@PAVHeapWord@@2@Z 0806cf40 f   arrayKlassKlass.obj
 0001:0006c010       ?must_be_preserved_with_bias@markOopDesc@@QBE_NPAVoopDesc@@@Z 0806d010 f i arrayKlassKlass.obj
 0001:0006c060       ?mark_object@MarkSweep@@SAXPAVoopDesc@@@Z 0806d060 f i arrayKlassKlass.obj
 0001:0006c0b0       ??$mark_and_push@PAVoopDesc@@@MarkSweep@@SAXPAPAVoopDesc@@@Z 0806d0b0 f i arrayKlassKlass.obj
 0001:0006c100       ?oop_follow_contents@arrayKlassKlass@@UAEXPAVoopDesc@@@Z 0806d100 f   arrayKlassKlass.obj
 0001:0006c170       ?push@ParCompactionManager@@QAEXPAVoopDesc@@@Z 0806d170 f i arrayKlassKlass.obj
 0001:0006c1b0       ??$mark_and_push@PAVoopDesc@@@PSParallelCompact@@SAXPAVParCompactionManager@@PAPAVoopDesc@@@Z 0806d1b0 f i arrayKlassKlass.obj
 0001:0006c210       ?oop_follow_contents@arrayKlassKlass@@UAEXPAVParCompactionManager@@PAVoopDesc@@@Z 0806d210 f   arrayKlassKlass.obj
 0001:0006c290       ?oop_print_on@compiledICHolderKlass@@UAEXPAVoopDesc@@PAVoutputStream@@@Z 0806d290 f   compiledICHolderKlass.obj
 0001:0006c2f0       ?oop_print_value_on@klassKlass@@UAEXPAVoopDesc@@PAVoutputStream@@@Z 0806d2f0 f   klassKlass.obj
 0001:0006c2f0       ?oop_print_value_on@compiledICHolderKlass@@UAEXPAVoopDesc@@PAVoutputStream@@@Z 0806d2f0 f   compiledICHolderKlass.obj
 0001:0006c300       ?internal_name@compiledICHolderKlass@@UBEPBDXZ 0806d300 f   compiledICHolderKlass.obj
 0001:0006c310       ?oop_size@compiledICHolderKlass@@UBEHPAVoopDesc@@@Z 0806d310 f   compiledICHolderKlass.obj
 0001:0006c330       ?oop_oop_iterate@compiledICHolderKlass@@UAEHPAVoopDesc@@PAVOopClosure@@@Z 0806d330 f   compiledICHolderKlass.obj
 0001:0006c380       ?oop_oop_iterate_m@compiledICHolderKlass@@UAEHPAVoopDesc@@PAVOopClosure@@VMemRegion@@@Z 0806d380 f   compiledICHolderKlass.obj
 0001:0006c400       ?create_klass@compiledICHolderKlass@@SAPAVklassOopDesc@@PAVThread@@@Z 0806d400 f   compiledICHolderKlass.obj
 0001:0006c470       ?oop_adjust_pointers@compiledICHolderKlass@@UAEHPAVoopDesc@@@Z 0806d470 f   compiledICHolderKlass.obj
 0001:0006c500       ?oop_update_pointers@compiledICHolderKlass@@UAEHPAVParCompactionManager@@PAVoopDesc@@@Z 0806d500 f   compiledICHolderKlass.obj
 0001:0006c550       ?oop_verify_on@compiledICHolderKlass@@UAEXPAVoopDesc@@PAVoutputStream@@@Z 0806d550 f   compiledICHolderKlass.obj
 0001:0006c690       ?permanent_obj_allocate_no_klass_install@CollectedHeap@@SAPAVoopDesc@@VKlassHandle@@HPAVThread@@@Z 0806d690 f i compiledICHolderKlass.obj
 0001:0006c710       ?oop_update_pointers@compiledICHolderKlass@@UAEHPAVParCompactionManager@@PAVoopDesc@@PAVHeapWord@@2@Z 0806d710 f   compiledICHolderKlass.obj
 0001:0006c780       ??$mark_and_push@I@MarkSweep@@SAXPAI@Z 0806d780 f i compiledICHolderKlass.obj
 0001:0006c7e0       ?oop_follow_contents@compiledICHolderKlass@@UAEXPAVoopDesc@@@Z 0806d7e0 f   compiledICHolderKlass.obj
 0001:0006c810       ??$mark_and_push@I@PSParallelCompact@@SAXPAVParCompactionManager@@PAI@Z 0806d810 f i compiledICHolderKlass.obj
 0001:0006c880       ?permanent_obj_allocate@CollectedHeap@@SAPAVoopDesc@@VKlassHandle@@HPAVThread@@@Z 0806d880 f i compiledICHolderKlass.obj
 0001:0006c8e0       ?allocate@compiledICHolderKlass@@QAEPAVcompiledICHolderOopDesc@@PAVThread@@@Z 0806d8e0 f   compiledICHolderKlass.obj
 0001:0006c980       ?oop_follow_contents@compiledICHolderKlass@@UAEXPAVParCompactionManager@@PAVoopDesc@@@Z 0806d980 f   compiledICHolderKlass.obj
 0001:0006c9c0       ?internal_name@constantPoolKlass@@UBEPBDXZ 0806d9c0 f   constantPoolKlass.obj
 0001:0006c9d0       ?uncached_klass_ref_index_at@constantPoolOopDesc@@QAEHH@Z 0806d9d0 f i constantPoolKlass.obj
 0001:0006c9f0       ?uncached_name_and_type_ref_index_at@constantPoolOopDesc@@QAEHH@Z 0806d9f0 f i constantPoolKlass.obj
 0001:0006ca10       ?oop_size@constantPoolKlass@@UBEHPAVoopDesc@@@Z 0806da10 f   constantPoolKlass.obj
 0001:0006ca30       ?oop_is_conc_safe@constantPoolKlass@@UBE_NPAVoopDesc@@@Z 0806da30 f   constantPoolKlass.obj
 0001:0006ca40       ?oop_partially_loaded@constantPoolKlass@@UBE_NPAVoopDesc@@@Z 0806da40 f   constantPoolKlass.obj
 0001:0006ca70       ?create_klass@constantPoolKlass@@SAPAVklassOopDesc@@PAVThread@@@Z 0806da70 f   constantPoolKlass.obj
 0001:0006cae0       ?oop_print_value_on@constantPoolKlass@@UAEXPAVoopDesc@@PAVoutputStream@@@Z 0806dae0 f   constantPoolKlass.obj
 0001:0006cb90       ?push@?$GenericTaskQueue@VStarTask@@$0EAAA@@@QAE_NVStarTask@@@Z 0806db90 f i constantPoolKlass.obj
 0001:0006cc00       ?oop_adjust_pointers@constantPoolKlass@@UAEHPAVoopDesc@@@Z 0806dc00 f   constantPoolKlass.obj
 0001:0006cd30       ?oop_oop_iterate@constantPoolKlass@@UAEHPAVoopDesc@@PAVOopClosure@@@Z 0806dd30 f   constantPoolKlass.obj
 0001:0006cde0       ?oop_oop_iterate_m@constantPoolKlass@@UAEHPAVoopDesc@@PAVOopClosure@@VMemRegion@@@Z 0806dde0 f   constantPoolKlass.obj
 0001:0006cea0       ?oop_update_pointers@constantPoolKlass@@UAEHPAVParCompactionManager@@PAVoopDesc@@@Z 0806dea0 f   constantPoolKlass.obj
 0001:0006cf90       ?oop_update_pointers@constantPoolKlass@@UAEHPAVParCompactionManager@@PAVoopDesc@@PAVHeapWord@@2@Z 0806df90 f   constantPoolKlass.obj
 0001:0006d0d0       ?oop_verify_on@constantPoolKlass@@UAEXPAVoopDesc@@PAVoutputStream@@@Z 0806e0d0 f   constantPoolKlass.obj
 0001:0006d540       ?oop_follow_contents@constantPoolKlass@@UAEXPAVoopDesc@@@Z 0806e540 f   constantPoolKlass.obj
 0001:0006d6c0       ?oop_print_on@constantPoolKlass@@UAEXPAVoopDesc@@PAVoutputStream@@@Z 0806e6c0 f   constantPoolKlass.obj
 0001:0006db80       ??$push_depth@PAVoopDesc@@@PSPromotionManager@@AAEXPAPAVoopDesc@@@Z 0806eb80 f i constantPoolKlass.obj
 0001:0006dbc0       ?oop_follow_contents@constantPoolKlass@@UAEXPAVParCompactionManager@@PAVoopDesc@@@Z 0806ebc0 f   constantPoolKlass.obj
 0001:0006de80       ?oop_set_partially_loaded@constantPoolKlass@@UAEXPAVoopDesc@@@Z 0806ee80 f   constantPoolKlass.obj
 0001:0006deb0       ??$claim_or_forward_internal_depth@PAVoopDesc@@@PSPromotionManager@@AAEXPAPAVoopDesc@@@Z 0806eeb0 f i constantPoolKlass.obj
 0001:0006df20       ?allocate@constantPoolKlass@@QAEPAVconstantPoolOopDesc@@H_NPAVThread@@@Z 0806ef20 f   constantPoolKlass.obj
 0001:0006e070       ?oop_push_contents@constantPoolKlass@@UAEXPAVPSPromotionManager@@PAVoopDesc@@@Z 0806f070 f   constantPoolKlass.obj
 0001:0006e0e0       ?set_flag_at@constantPoolOopDesc@@AAEXW4FlagBit@1@@Z 0806f0e0 f   constantPoolOop.obj
 0001:0006e150       ?name_ref_index_at@constantPoolOopDesc@@QAEHH@Z 0806f150 f   constantPoolOop.obj
 0001:0006e170       ?signature_ref_index_at@constantPoolOopDesc@@QAEHH@Z 0806f170 f   constantPoolOop.obj
 0001:0006e180       ?basic_type_for_signature_at@constantPoolOopDesc@@QAE?AW4BasicType@@H@Z 0806f180 f   constantPoolOop.obj
 0001:0006e1a0       ?shared_tags_iterate@constantPoolOopDesc@@QAEXPAVOopClosure@@@Z 0806f1a0 f   constantPoolOop.obj
 0001:0006e1d0       ?add_entry@SymbolHashMap@@QAEXPAVsymbolOopDesc@@G@Z 0806f1d0 f   constantPoolOop.obj
 0001:0006e260       ?find_entry@SymbolHashMap@@QAEPAVSymbolHashMapEntry@@PAVsymbolOopDesc@@@Z 0806f260 f   constantPoolOop.obj
 0001:0006e2c0       ?verify_constant_pool_resolve@constantPoolOopDesc@@CAXVconstantPoolHandle@@VKlassHandle@@PAVThread@@@Z 0806f2c0 f   constantPoolOop.obj
 0001:0006e330       ?klass_name_at@constantPoolOopDesc@@QAEPAVsymbolOopDesc@@H@Z 0806f330 f   constantPoolOop.obj
 0001:0006e360       ?string_at_noresolve@constantPoolOopDesc@@QAEPADH@Z 0806f360 f   constantPoolOop.obj
 0001:0006e3b0       ?is_pseudo_string_at@constantPoolOopDesc@@QAE_NH@Z 0806f3b0 f   constantPoolOop.obj
 0001:0006e3f0       ?klass_name_at_matches@constantPoolOopDesc@@QAE_NVinstanceKlassHandle@@H@Z 0806f3f0 f   constantPoolOop.obj
 0001:0006e440       ?klass_at_if_loaded@constantPoolOopDesc@@SAPAVklassOopDesc@@VconstantPoolHandle@@H@Z 0806f440 f   constantPoolOop.obj
 0001:0006e550       ?impl_klass_ref_index_at@constantPoolOopDesc@@AAEHH_N@Z 0806f550 f   constantPoolOop.obj
 0001:0006e5b0       ?set_f1@ConstantPoolCacheEntry@@AAEXPAVoopDesc@@@Z 0806f5b0 f i constantPoolOop.obj
 0001:0006e600       ?operand_array_length@constantPoolOopDesc@@SAHPAVtypeArrayOopDesc@@@Z 0806f600 f i constantPoolOop.obj
 0001:0006e630       ?klass_ref_at_if_loaded_check@constantPoolOopDesc@@SAPAVklassOopDesc@@VconstantPoolHandle@@HPAVThread@@@Z 0806f630 f   constantPoolOop.obj
 0001:0006e700       ?impl_name_and_type_ref_index_at@constantPoolOopDesc@@AAEHH_N@Z 0806f700 f   constantPoolOop.obj
 0001:0006e7b0       ?klass_ref_at_noresolve@constantPoolOopDesc@@QAEPAVsymbolOopDesc@@H@Z 0806f7b0 f   constantPoolOop.obj
 0001:0006e7f0       ?uncached_klass_ref_at_noresolve@constantPoolOopDesc@@QAEPAVsymbolOopDesc@@H@Z 0806f7f0 f   constantPoolOop.obj
 0001:0006e850       ?string_at_impl@constantPoolOopDesc@@CAPAVoopDesc@@VconstantPoolHandle@@HPAVThread@@@Z 0806f850 f   constantPoolOop.obj
 0001:0006e900       ?shared_symbols_iterate@constantPoolOopDesc@@QAEXPAVOopClosure@@@Z 0806f900 f   constantPoolOop.obj
 0001:0006ea30       ?shared_strings_iterate@constantPoolOopDesc@@QAEXPAVOopClosure@@@Z 0806fa30 f   constantPoolOop.obj
 0001:0006eb20       ?cpool_entry_size@constantPoolOopDesc@@AAEHH@Z 0806fb20 f   constantPoolOop.obj
 0001:0006ec10       ?hash_entries_to@constantPoolOopDesc@@AAEHPAVSymbolHashMap@@0@Z 0806fc10 f   constantPoolOop.obj
 0001:0006ed40       ?klass_at_impl@constantPoolOopDesc@@CAPAVklassOopDesc@@VconstantPoolHandle@@HPAVThread@@@Z 0806fd40 f   constantPoolOop.obj
 0001:0006f1a0       ?impl_name_ref_at@constantPoolOopDesc@@AAEPAVsymbolOopDesc@@H_N@Z 080701a0 f   constantPoolOop.obj
 0001:0006f1d0       ?impl_signature_ref_at@constantPoolOopDesc@@AAEPAVsymbolOopDesc@@H_N@Z 080701d0 f   constantPoolOop.obj
 0001:0006f1f0       ?resolve_string_constants_impl@constantPoolOopDesc@@CAXVconstantPoolHandle@@PAVThread@@@Z 080701f0 f   constantPoolOop.obj
 0001:0006f250       ?copy_cpool_bytes@constantPoolOopDesc@@AAEHHPAVSymbolHashMap@@PAE@Z 08070250 f   constantPoolOop.obj
 0001:0006f670       ?klass_ref_at@constantPoolOopDesc@@QAEPAVklassOopDesc@@HPAVThread@@@Z 08070670 f   constantPoolOop.obj
 0001:0006f6b0       ?resolve_constant_at_impl@constantPoolOopDesc@@CAPAVoopDesc@@VconstantPoolHandle@@HHPAVThread@@@Z 080706b0 f   constantPoolOop.obj
 0001:0006fb30       ?compare_entry_to@constantPoolOopDesc@@QAE_NHVconstantPoolHandle@@HPAVThread@@@Z 08070b30 f   constantPoolOop.obj
 0001:0006ffe0       ?copy_entry_to@constantPoolOopDesc@@SAXVconstantPoolHandle@@H0HPAVThread@@@Z 08070fe0 f   constantPoolOop.obj
 0001:000703b0       ?find_matching_entry@constantPoolOopDesc@@QAEHHVconstantPoolHandle@@PAVThread@@@Z 080713b0 f   constantPoolOop.obj
 0001:00070410       ?copy_cp_to_impl@constantPoolOopDesc@@SAXVconstantPoolHandle@@HH0HPAVThread@@@Z 08071410 f   constantPoolOop.obj
 0001:00070630       ?internal_name@constMethodKlass@@UBEPBDXZ 08071630 f   constMethodKlass.obj
 0001:00070640       ?oop_size@constMethodKlass@@UBEHPAVoopDesc@@@Z 08071640 f   constMethodKlass.obj
 0001:00070650       ?oop_is_parsable@constMethodKlass@@UBE_NPAVoopDesc@@@Z 08071650 f   constMethodKlass.obj
 0001:00070670       ?oop_is_conc_safe@constMethodKlass@@UBE_NPAVoopDesc@@@Z 08071670 f   constMethodKlass.obj
 0001:00070670       ?oop_is_conc_safe@constantPoolCacheKlass@@UBE_NPAVoopDesc@@@Z 08071670 f   cpCacheKlass.obj
 0001:00070680       ?oop_oop_iterate@constMethodKlass@@UAEHPAVoopDesc@@PAVOopClosure@@@Z 08071680 f   constMethodKlass.obj
 0001:000706c0       ?oop_oop_iterate_m@constMethodKlass@@UAEHPAVoopDesc@@PAVOopClosure@@VMemRegion@@@Z 080716c0 f   constMethodKlass.obj
 0001:00070730       ?oop_print_value_on@constMethodKlass@@UAEXPAVoopDesc@@PAVoutputStream@@@Z 08071730 f   constMethodKlass.obj
 0001:00070760       ?oop_partially_loaded@constMethodKlass@@UBE_NPAVoopDesc@@@Z 08071760 f   constMethodKlass.obj
 0001:00070780       ?create_klass@constMethodKlass@@SAPAVklassOopDesc@@PAVThread@@@Z 08071780 f   constMethodKlass.obj
 0001:000707e0       ?oop_adjust_pointers@constMethodKlass@@UAEHPAVoopDesc@@@Z 080717e0 f   constMethodKlass.obj
 0001:00070860       ?oop_update_pointers@constMethodKlass@@UAEHPAVParCompactionManager@@PAVoopDesc@@@Z 08071860 f   constMethodKlass.obj
 0001:000708a0       ?oop_update_pointers@constMethodKlass@@UAEHPAVParCompactionManager@@PAVoopDesc@@PAVHeapWord@@2@Z 080718a0 f   constMethodKlass.obj
 0001:00070900       ?oop_print_on@constMethodKlass@@UAEXPAVoopDesc@@PAVoutputStream@@@Z 08071900 f   constMethodKlass.obj
 0001:000709c0       ?oop_verify_on@constMethodKlass@@UAEXPAVoopDesc@@PAVoutputStream@@@Z 080719c0 f   constMethodKlass.obj
 0001:00070ce0       ?oop_follow_contents@constMethodKlass@@UAEXPAVoopDesc@@@Z 08071ce0 f   constMethodKlass.obj
 0001:00070d10       ?oop_set_partially_loaded@constMethodKlass@@UAEXPAVoopDesc@@@Z 08071d10 f   constMethodKlass.obj
 0001:00070d40       ?allocate@constMethodKlass@@QAEPAVconstMethodOopDesc@@HHHH_NPAVThread@@@Z 08071d40 f   constMethodKlass.obj
 0001:00070e40       ?oop_follow_contents@constMethodKlass@@UAEXPAVParCompactionManager@@PAVoopDesc@@@Z 08071e40 f   constMethodKlass.obj
 0001:00070e80       ?object_size@constMethodOopDesc@@SAHHHHH@Z 08071e80 f   constMethodOop.obj
 0001:00070ed0       ?compressed_linenumber_table@constMethodOopDesc@@QBEPAEXZ 08071ed0 f   constMethodOop.obj
 0001:00070ee0       ?checked_exceptions_length_addr@constMethodOopDesc@@QBEPAGXZ 08071ee0 f   constMethodOop.obj
 0001:00070ef0       ?checked_exceptions_length@constMethodOopDesc@@QBEHXZ 08071ef0 f   constMethodOop.obj
 0001:00070f10       ?checked_exceptions_start@constMethodOopDesc@@QBEPAVCheckedExceptionElement@@XZ 08071f10 f   constMethodOop.obj
 0001:00070f30       ?localvariable_table_length_addr@constMethodOopDesc@@QBEPAGXZ 08071f30 f   constMethodOop.obj
 0001:00070f60       ?set_inlined_tables_length@constMethodOopDesc@@QAEXHHH@Z 08071f60 f   constMethodOop.obj
 0001:00070fc0       ?localvariable_table_length@constMethodOopDesc@@QBEHXZ 08071fc0 f   constMethodOop.obj
 0001:00070ff0       ?localvariable_table_start@constMethodOopDesc@@QBEPAVLocalVariableTableElement@@XZ 08071ff0 f   constMethodOop.obj
 0001:00071040       ?internal_name@constantPoolCacheKlass@@UBEPBDXZ 08072040 f   cpCacheKlass.obj
 0001:00071050       ?oop_size@constantPoolCacheKlass@@UBEHPAVoopDesc@@@Z 08072050 f   cpCacheKlass.obj
 0001:00071070       ?oop_print_value_on@constantPoolCacheKlass@@UAEXPAVoopDesc@@PAVoutputStream@@@Z 08072070 f   cpCacheKlass.obj
 0001:000710c0       ?create_klass@constantPoolCacheKlass@@SAPAVklassOopDesc@@PAVThread@@@Z 080720c0 f   cpCacheKlass.obj
 0001:00071130       ?oop_oop_iterate@constantPoolCacheKlass@@UAEHPAVoopDesc@@PAVOopClosure@@@Z 08072130 f   cpCacheKlass.obj
 0001:00071190       ?oop_oop_iterate_m@constantPoolCacheKlass@@UAEHPAVoopDesc@@PAVOopClosure@@VMemRegion@@@Z 08072190 f   cpCacheKlass.obj
 0001:00071210       ?oop_adjust_pointers@constantPoolCacheKlass@@UAEHPAVoopDesc@@@Z 08072210 f   cpCacheKlass.obj
 0001:00071280       ?oop_update_pointers@constantPoolCacheKlass@@UAEHPAVParCompactionManager@@PAVoopDesc@@@Z 08072280 f   cpCacheKlass.obj
 0001:000712e0       ?oop_print_on@constantPoolCacheKlass@@UAEXPAVoopDesc@@PAVoutputStream@@@Z 080722e0 f   cpCacheKlass.obj
 0001:00071320       ?oop_verify_on@constantPoolCacheKlass@@UAEXPAVoopDesc@@PAVoutputStream@@@Z 08072320 f   cpCacheKlass.obj
 0001:00071390       ?oop_update_pointers@constantPoolCacheKlass@@UAEHPAVParCompactionManager@@PAVoopDesc@@PAVHeapWord@@2@Z 08072390 f   cpCacheKlass.obj
 0001:00071410       ?oop_follow_contents@constantPoolCacheKlass@@UAEXPAVoopDesc@@@Z 08072410 f   cpCacheKlass.obj
 0001:00071450       ?oop_follow_contents@constantPoolCacheKlass@@UAEXPAVParCompactionManager@@PAVoopDesc@@@Z 08072450 f   cpCacheKlass.obj
 0001:000714a0       ?allocate@constantPoolCacheKlass@@QAEPAVconstantPoolCacheOopDesc@@H_NPAVThread@@@Z 080724a0 f   cpCacheKlass.obj
 0001:00071550       ?oop_push_contents@constantPoolCacheKlass@@UAEXPAVPSPromotionManager@@PAVoopDesc@@@Z 08072550 f   cpCacheKlass.obj
 0001:000715c0       ?field_index@ConstantPoolCacheEntry@@QBEHXZ 080725c0 f   cpCacheOop.obj
 0001:000715d0       ?do_oop@LocalOopClosure@@UAEXPAPAVoopDesc@@@Z 080725d0 f i cpCacheOop.obj
 0001:000715f0       ?do_oop@LocalOopClosure@@UAEXPAI@Z 080725f0 f i cpCacheOop.obj
 0001:00071610       ?oop_iterate@ConstantPoolCacheEntry@@QAEXPAVOopClosure@@@Z 08072610 f   cpCacheOop.obj
 0001:00071640       ?oop_iterate_m@ConstantPoolCacheEntry@@QAEXPAVOopClosure@@VMemRegion@@@Z 08072640 f   cpCacheOop.obj
 0001:00071690       ?print@ConstantPoolCacheEntry@@QBEXPAVoutputStream@@H@Z 08072690 f   cpCacheOop.obj
 0001:00071780       ?adjust_pointers@ConstantPoolCacheEntry@@QAEXXZ 08072780 f   cpCacheOop.obj
 0001:000717e0       ?update_pointers@ConstantPoolCacheEntry@@QAEXXZ 080727e0 f   cpCacheOop.obj
 0001:00071820       ?adjust_method_entry@ConstantPoolCacheEntry@@QAE_NPAVmethodOopDesc@@0PA_N@Z 08072820 f   cpCacheOop.obj
 0001:00071a10       ?is_interesting_method_entry@ConstantPoolCacheEntry@@QAE_NPAVklassOopDesc@@@Z 08072a10 f   cpCacheOop.obj
 0001:00071a80       ?initialize@constantPoolCacheOopDesc@@QAEXAAVintArray@@@Z 08072a80 f   cpCacheOop.obj
 0001:00071ac0       ?adjust_method_entries@constantPoolCacheOopDesc@@QAEXPAPAVmethodOopDesc@@0HPA_N@Z 08072ac0 f   cpCacheOop.obj
 0001:00071b70       ?set_f1_if_null_atomic@ConstantPoolCacheEntry@@AAEXPAVoopDesc@@@Z 08072b70 f   cpCacheOop.obj
 0001:00071bf0       ?update_pointers@ConstantPoolCacheEntry@@QAEXPAVHeapWord@@0@Z 08072bf0 f   cpCacheOop.obj
 0001:00071c60       ?set_field@ConstantPoolCacheEntry@@QAEXW4Code@Bytecodes@@0VKlassHandle@@HHW4TosState@@_N3@Z 08072c60 f   cpCacheOop.obj
 0001:00071d20       ?set_method@ConstantPoolCacheEntry@@QAEXW4Code@Bytecodes@@VmethodHandle@@H@Z 08072d20 f   cpCacheOop.obj
 0001:00071f00       ?set_interface_call@ConstantPoolCacheEntry@@QAEXVmethodHandle@@H@Z 08072f00 f   cpCacheOop.obj
 0001:00071fb0       ?set_dynamic_call@ConstantPoolCacheEntry@@QAEXVHandle@@VmethodHandle@@@Z 08072fb0 f   cpCacheOop.obj
 0001:00072050       ?follow_contents@ConstantPoolCacheEntry@@QAEXXZ 08073050 f   cpCacheOop.obj
 0001:00072080       ?follow_contents@ConstantPoolCacheEntry@@QAEXPAVParCompactionManager@@@Z 08073080 f   cpCacheOop.obj
 0001:000720c0       ?do_object@ComputeCallStack@@EAEXHH@Z 080730c0 f i generateOopMap.obj
 0001:000720c0       ?do_array@ComputeCallStack@@EAEXHH@Z 080730c0 f i generateOopMap.obj
 0001:000720e0       ?do_float@ComputeCallStack@@EAEXXZ 080730e0 f i generateOopMap.obj
 0001:000720e0       ?do_short@ComputeCallStack@@EAEXXZ 080730e0 f i generateOopMap.obj
 0001:000720e0       ?do_bool@ComputeCallStack@@EAEXXZ 080730e0 f i generateOopMap.obj
 0001:000720e0       ?do_byte@ComputeCallStack@@EAEXXZ 080730e0 f i generateOopMap.obj
 0001:000720e0       ?do_char@ComputeCallStack@@EAEXXZ 080730e0 f i generateOopMap.obj
 0001:000720e0       ?do_int@ComputeEntryStack@@EAEXXZ 080730e0 f i generateOopMap.obj
 0001:000720e0       ?do_bool@ComputeEntryStack@@EAEXXZ 080730e0 f i generateOopMap.obj
 0001:000720e0       ?do_char@ComputeEntryStack@@EAEXXZ 080730e0 f i generateOopMap.obj
 0001:000720e0       ?do_short@ComputeEntryStack@@EAEXXZ 080730e0 f i generateOopMap.obj
 0001:000720e0       ?do_byte@ComputeEntryStack@@EAEXXZ 080730e0 f i generateOopMap.obj
 0001:000720e0       ?do_float@ComputeEntryStack@@EAEXXZ 080730e0 f i generateOopMap.obj
 0001:000720e0       ?do_int@ComputeCallStack@@EAEXXZ 080730e0 f i generateOopMap.obj
 0001:00072100       ?do_void@ComputeCallStack@@EAEXXZ 08073100 f i generateOopMap.obj
 0001:00072100       ?do_void@ComputeEntryStack@@EAEXXZ 08073100 f i generateOopMap.obj
 0001:00072120       ?do_array@ComputeEntryStack@@EAEXHH@Z 08073120 f i generateOopMap.obj
 0001:00072120       ?do_object@ComputeEntryStack@@EAEXHH@Z 08073120 f i generateOopMap.obj
 0001:00072140       ?do_long@ComputeCallStack@@EAEXXZ 08073140 f i generateOopMap.obj
 0001:00072140       ?do_double@ComputeCallStack@@EAEXXZ 08073140 f i generateOopMap.obj
 0001:00072140       ?do_long@ComputeEntryStack@@EAEXXZ 08073140 f i generateOopMap.obj
 0001:00072140       ?do_double@ComputeEntryStack@@EAEXXZ 08073140 f i generateOopMap.obj
 0001:00072170       ?to_char@CellTypeState@@QBEDXZ 08073170 f   generateOopMap.obj
 0001:000721c0       ?get_basic_block_containing@GenerateOopMap@@IBEPAVBasicBlock@@H@Z 080731c0 f   generateOopMap.obj
 0001:00072250       ?merge_local_state_vectors@GenerateOopMap@@IAE_NPAVCellTypeState@@0@Z 08073250 f   generateOopMap.obj
 0001:000722f0       ?merge_monitor_state_vectors@GenerateOopMap@@IAE_NPAVCellTypeState@@0@Z 080732f0 f   generateOopMap.obj
 0001:000723b0       ?copy_state@GenerateOopMap@@IAEXPAVCellTypeState@@0@Z 080733b0 f   generateOopMap.obj
 0001:00072450       ?replace_all_CTS_matches@GenerateOopMap@@IAEXVCellTypeState@@0@Z 08073450 f   generateOopMap.obj
 0001:000724b0       ?sigchar_to_effect@GenerateOopMap@@IAEPAVCellTypeState@@DHPAV2@@Z 080734b0 f   generateOopMap.obj
 0001:00072510       ?next@BytecodeStream@@QAE?AW4Code@Bytecodes@@XZ 08073510 f i generateOopMap.obj
 0001:000725c0       ?update_ret_table@RetTable@@QAEXHH@Z 080735c0 f   generateOopMap.obj
 0001:00072620       ?initialize_bb@GenerateOopMap@@IAEXXZ 08073620 f   generateOopMap.obj
 0001:00072680       ?bb_mark_fct@GenerateOopMap@@KAXPAV1@HPAH@Z 08073680 f   generateOopMap.obj
 0001:000726c0       ?monitor_push@GenerateOopMap@@IAEXVCellTypeState@@@Z 080736c0 f   generateOopMap.obj
 0001:00072700       ?update_basic_blocks@GenerateOopMap@@IAEXHHH@Z 08073700 f   generateOopMap.obj
 0001:000727a0       ?initialize_vars@GenerateOopMap@@IAEXXZ 080737a0 f   generateOopMap.obj
 0001:000727e0       ??0GenerateOopMap@@QAE@VmethodHandle@@@Z 080737e0 f   generateOopMap.obj
 0001:00072810       ?possible_gc_point@GenerateOopMap@@UAE_NPAVBytecodeStream@@@Z 08073810 f i generateOopMap.obj
 0001:00072830       ?fill_stackmap_prolog@GenerateOopMap@@UAEXH@Z 08073830 f i generateOopMap.obj
 0001:00072850       ?fill_stackmap_epilog@GenerateOopMap@@UAEXXZ 08073850 f i generateOopMap.obj
 0001:00072870       ?fill_stackmap_for_opcodes@GenerateOopMap@@UAEXPAVBytecodeStream@@PAVCellTypeState@@1H@Z 08073870 f i generateOopMap.obj
 0001:00072890       ?fill_init_vars@GenerateOopMap@@UAEXPAV?$GrowableArray@H@@@Z 08073890 f i generateOopMap.obj
 0001:000728b0       ?stack_top_holds_ret_addr@GenerateOopMap@@IAE_NH@Z 080738b0 f   generateOopMap.obj
 0001:000728e0       ?update_ret_adr_at_TOS@GenerateOopMap@@IAEXHH@Z 080738e0 f   generateOopMap.obj
 0001:00072920       ?get_index_u2_cpcache@BytecodeStream@@QBEHXZ 08073920 f i generateOopMap.obj
 0001:00072950       ?get_index_u4@BytecodeStream@@QBEHXZ 08073950 f i generateOopMap.obj
 0001:00072980       ??0RetTableEntry@@QAE@HPAV0@@Z 08073980 f i generateOopMap.obj
 0001:00072a10       ?add_jsr@RetTable@@AAEXHH@Z 08073a10 f   generateOopMap.obj
 0001:00072a80       ?reachable_basicblock@GenerateOopMap@@KAXPAV1@HPAH@Z 08073a80 f   generateOopMap.obj
 0001:00072ab0       ?jump_targets_do@GenerateOopMap@@IAE_NPAVBytecodeStream@@P6AXPAV1@HPAH@Z2@Z 08073ab0 f   generateOopMap.obj
 0001:00072cc0       ?init_state@GenerateOopMap@@IAEXXZ 08073cc0 f   generateOopMap.obj
 0001:00072d30       ?add_to_ref_init_set@GenerateOopMap@@IAEXH@Z 08073d30 f   generateOopMap.obj
 0001:00072d80       ?error_work@GenerateOopMap@@IAEXPBDPAD@Z 08073d80 f   generateOopMap.obj
 0001:00072e30       ?report_error@GenerateOopMap@@IAAXPBDZZ 08073e30 f   generateOopMap.obj
 0001:00072e50       ?verify_error@GenerateOopMap@@IAAXPBDZZ 08073e50 f   generateOopMap.obj
 0001:00072ed0       ?record_refval_conflict@GenerateOopMap@@IAEXH@Z 08073ed0 f   generateOopMap.obj
 0001:00072f50       ?relocated@RelocCallback@@UAEXHHH@Z 08073f50 f i generateOopMap.obj
 0001:00072f90       ?expand_current_instr@GenerateOopMap@@IAEXHHHQAE@Z 08073f90 f   generateOopMap.obj
 0001:00073010       ?get_index@BytecodeStream@@QBEHXZ 08074010 f i generateOopMap.obj
 0001:00073070       ?compute_ret_table@RetTable@@QAEXVmethodHandle@@@Z 08074070 f   generateOopMap.obj
 0001:00073150       ?merge_state_into_bb@GenerateOopMap@@IAEXPAVBasicBlock@@@Z 08074150 f   generateOopMap.obj
 0001:000731f0       ?merge_state@GenerateOopMap@@KAXPAV1@HPAH@Z 080741f0 f   generateOopMap.obj
 0001:00073210       ?setup_method_entry_state@GenerateOopMap@@IAEXXZ 08074210 f   generateOopMap.obj
 0001:000732d0       ?check_type@GenerateOopMap@@IAEXVCellTypeState@@0@Z 080742d0 f   generateOopMap.obj
 0001:00073310       ?ppstore@GenerateOopMap@@IAEXPAVCellTypeState@@H@Z 08074310 f   generateOopMap.obj
 0001:00073460       ?ppload@GenerateOopMap@@IAEXPAVCellTypeState@@H@Z 08074460 f   generateOopMap.obj
 0001:00073540       ?ppdupswap@GenerateOopMap@@IAEXHPBD@Z 08074540 f   generateOopMap.obj
 0001:000735e0       ?ppop1@GenerateOopMap@@IAEXVCellTypeState@@@Z 080745e0 f   generateOopMap.obj
 0001:00073660       ?ppop@GenerateOopMap@@IAEXPAVCellTypeState@@@Z 08074660 f   generateOopMap.obj
 0001:00073690       ?ppush1@GenerateOopMap@@IAEXVCellTypeState@@@Z 08074690 f   generateOopMap.obj
 0001:000736d0       ?ppush@GenerateOopMap@@IAEXPAVCellTypeState@@@Z 080746d0 f   generateOopMap.obj
 0001:00073720       ?pp@GenerateOopMap@@IAEXPAVCellTypeState@@0@Z 08074720 f   generateOopMap.obj
 0001:00073760       ?pp_new_ref@GenerateOopMap@@IAEXPAVCellTypeState@@H@Z 08074760 f   generateOopMap.obj
 0001:000737d0       ?ppop_any@GenerateOopMap@@IAEXH@Z 080747d0 f   generateOopMap.obj
 0001:00073800       ?do_checkcast@GenerateOopMap@@IAEXXZ 08074800 f   generateOopMap.obj
 0001:000738b0       ?do_monitorenter@GenerateOopMap@@IAEXH@Z 080748b0 f   generateOopMap.obj
 0001:00073950       ?do_monitorexit@GenerateOopMap@@IAEXH@Z 08074950 f   generateOopMap.obj
 0001:00073a50       ?do_jsr@GenerateOopMap@@IAEXH@Z 08074a50 f   generateOopMap.obj
 0001:00073aa0       ?do_ldc@GenerateOopMap@@IAEXH@Z 08074aa0 f   generateOopMap.obj
 0001:00073b60       ?do_multianewarray@GenerateOopMap@@IAEXHH@Z 08074b60 f   generateOopMap.obj
 0001:00073bc0       ?do_astore@GenerateOopMap@@IAEXH@Z 08074bc0 f   generateOopMap.obj
 0001:00073c60       ?do_field@GenerateOopMap@@IAEXHHHH@Z 08074c60 f   generateOopMap.obj
 0001:00073d30       ?do_method@GenerateOopMap@@IAEXHHHH@Z 08074d30 f   generateOopMap.obj
 0001:00073e30       ?ret_jump_targets_do@GenerateOopMap@@IAEXPAVBytecodeStream@@P6AXPAV1@HPAH@ZH2@Z 08074e30 f   generateOopMap.obj
 0001:00073ef0       ?rewrite_load_or_store@GenerateOopMap@@IAE_NPAVBytecodeStream@@W4Code@Bytecodes@@1I@Z 08074ef0 f   generateOopMap.obj
 0001:00073ff0       ?mark_bbheaders_and_count_gc_points@GenerateOopMap@@IAEXXZ 08074ff0 f   generateOopMap.obj
 0001:00074180       ?mark_reachable_code@GenerateOopMap@@IAEXXZ 08075180 f   generateOopMap.obj
 0001:000742f0       ?init_basic_blocks@GenerateOopMap@@IAEXXZ 080752f0 f   generateOopMap.obj
 0001:00074490       ?do_exception_edge@GenerateOopMap@@IAEXPAVBytecodeStream@@@Z 08075490 f   generateOopMap.obj
 0001:00074650       ?interp1@GenerateOopMap@@IAEXPAVBytecodeStream@@@Z 08075650 f   generateOopMap.obj
 0001:00074fd0       ?rewrite_refval_conflict_inst@GenerateOopMap@@IAE_NPAVBytecodeStream@@HH@Z 08075fd0 f   generateOopMap.obj
 0001:00075070       ?compute_ret_adr_at_TOS@GenerateOopMap@@IAEXXZ 08076070 f   generateOopMap.obj
 0001:000751c0       ?interp_bb@GenerateOopMap@@IAEXPAVBasicBlock@@@Z 080761c0 f   generateOopMap.obj
 0001:00075340       ?report_result@GenerateOopMap@@IAEXXZ 08076340 f   generateOopMap.obj
 0001:000753b0       ?result_for_basicblock@GenerateOopMap@@QAEXH@Z 080763b0 f   generateOopMap.obj
 0001:000753e0       ?rewrite_refval_conflict@GenerateOopMap@@IAEXHH@Z 080763e0 f   generateOopMap.obj
 0001:00075460       ?interp_all@GenerateOopMap@@IAEXXZ 08076460 f   generateOopMap.obj
 0001:000754d0       ?rewrite_refval_conflicts@GenerateOopMap@@IAEXXZ 080764d0 f   generateOopMap.obj
 0001:00075580       ?do_interpretation@GenerateOopMap@@IAEXXZ 08076580 f   generateOopMap.obj
 0001:000755e0       ?compute_map@GenerateOopMap@@QAEXPAVThread@@@Z 080765e0 f   generateOopMap.obj
 0001:000757c0       ?do_potential_rewrite@ResolveOopMapConflicts@@QAE?AVmethodHandle@@PAVThread@@@Z 080767c0 f   generateOopMap.obj
 0001:00075820       ?unlink_class@instanceKlass@@QAEXXZ 08076820 f   instanceKlass.obj
 0001:00075830       ?can_be_primary_super_slow@instanceKlass@@UBE_NXZ 08076830 f   instanceKlass.obj
 0001:00075850       ?array_klass_impl@instanceKlass@@EAEPAVklassOopDesc@@_NPAVThread@@@Z 08076850 f   instanceKlass.obj
 0001:00075870       ?with_array_klasses_do@instanceKlass@@UAEXP6AXPAVklassOopDesc@@@Z@Z 08076870 f   instanceKlass.obj
 0001:000758a0       ?get_jmethod_id_length_value@instanceKlass@@SAXPAPAU_jmethodID@@IPAI0@Z 080768a0 f   instanceKlass.obj
 0001:000758d0       ?add_dependent_nmethod@instanceKlass@@QAEXPAVnmethod@@@Z 080768d0 f   instanceKlass.obj
 0001:00075940       ?remove_dependent_nmethod@instanceKlass@@QAEXPAVnmethod@@@Z 08076940 f   instanceKlass.obj
 0001:000759c0       ?signature_name@instanceKlass@@UBEPBDXZ 080769c0 f   instanceKlass.obj
 0001:00075a20       ?print@java_lang_boxing_object@@SAXPAVoopDesc@@PAVoutputStream@@@Z 08076a20 f i instanceKlass.obj
 0001:00075a50       ?addr_to_region@HeapRegionSeq@@QAEPAVHeapRegion@@PBX@Z 08076a50 f i instanceKlass.obj
 0001:00075a80       ?heap_region_containing@G1CollectedHeap@@QBEPAVHeapRegion@@PBX@Z 08076a80 f i instanceKlass.obj
 0001:00075ad0       ?obj_in_cs@G1CollectedHeap@@QAE_NPAVoopDesc@@@Z 08076ad0 f i instanceKlass.obj
 0001:00075b20       ?should_be_initialized@instanceKlass@@UBE_NXZ 08076b20 f   instanceKlass.obj
 0001:00075b30       ?verify_code@instanceKlass@@CA_NVinstanceKlassHandle@@_NPAVThread@@@Z 08076b30 f   instanceKlass.obj
 0001:00075b70       ?rewrite_class@instanceKlass@@QAEXPAVThread@@@Z 08076b70 f   instanceKlass.obj
 0001:00075bd0       ?mask_for@instanceKlass@@QAEXVmethodHandle@@HPAVInterpreterOopMap@@@Z 08076bd0 f   instanceKlass.obj
 0001:00075c40       ?array_klasses_do@instanceKlass@@UAEXP6AXPAVklassOopDesc@@@Z@Z 08076c40 f   instanceKlass.obj
 0001:00075c60       ?get_jmethod_id_fetch_or_update@instanceKlass@@SAPAU_jmethodID@@VinstanceKlassHandle@@IPAU2@PAPAU2@2PAPAPAU2@@Z 08076c60 f   instanceKlass.obj
 0001:00075d10       ?jmethod_id_or_null@instanceKlass@@QAEPAU_jmethodID@@PAVmethodOopDesc@@@Z 08076d10 f   instanceKlass.obj
 0001:00075d40       ?set_cached_itable_index@instanceKlass@@QAEXIH@Z 08076d40 f   instanceKlass.obj
 0001:00075e80       ?cached_itable_index@instanceKlass@@QAEHI@Z 08076e80 f   instanceKlass.obj
 0001:00075eb0       ?oop_oop_iterate_v@instanceKlass@@UAEHPAVoopDesc@@PAVOopClosure@@@Z 08076eb0 f   instanceKlass.obj
 0001:00075f60       ?oop_oop_iterate_nv@instanceKlass@@UAEHPAVoopDesc@@PAVFilteringClosure@@@Z 08076f60 f   instanceKlass.obj
 0001:00075ff0       ?oop_oop_iterate_nv@instanceKlass@@UAEHPAVoopDesc@@PAVMarkRefsIntoAndScanClosure@@@Z 08076ff0 f   instanceKlass.obj
 0001:00076090       ?oop_oop_iterate_nv@instanceKlass@@UAEHPAVoopDesc@@PAVPar_MarkRefsIntoAndScanClosure@@@Z 08077090 f   instanceKlass.obj
 0001:00076130       ?oop_oop_iterate_nv@instanceKlass@@UAEHPAVoopDesc@@PAVPushAndMarkClosure@@@Z 08077130 f   instanceKlass.obj
 0001:000761d0       ?oop_oop_iterate_nv@instanceKlass@@UAEHPAVoopDesc@@PAVPar_PushAndMarkClosure@@@Z 080771d0 f   instanceKlass.obj
 0001:00076270       ?oop_oop_iterate_nv@instanceKlass@@UAEHPAVoopDesc@@PAVPushOrMarkClosure@@@Z 08077270 f   instanceKlass.obj
 0001:00076310       ?oop_oop_iterate_nv@instanceKlass@@UAEHPAVoopDesc@@PAVPar_PushOrMarkClosure@@@Z 08077310 f   instanceKlass.obj
 0001:000763b0       ?oop_oop_iterate_nv@instanceKlass@@UAEHPAVoopDesc@@PAVCMSKeepAliveClosure@@@Z 080773b0 f   instanceKlass.obj
 0001:00076450       ?oop_oop_iterate_nv@instanceKlass@@UAEHPAVoopDesc@@PAVCMSInnerParMarkAndPushClosure@@@Z 08077450 f   instanceKlass.obj
 0001:000764f0       ?oop_oop_iterate_nv@instanceKlass@@UAEHPAVoopDesc@@PAV?$G1ParCopyClosure@$0A@$01$0A@@@@Z 080774f0 f   instanceKlass.obj
 0001:00076590       ?oop_oop_iterate_v_m@instanceKlass@@UAEHPAVoopDesc@@PAVOopClosure@@VMemRegion@@@Z 08077590 f   instanceKlass.obj
 0001:00076650       ?oop_oop_iterate_nv_m@instanceKlass@@UAEHPAVoopDesc@@PAVFilteringClosure@@VMemRegion@@@Z 08077650 f   instanceKlass.obj
 0001:00076700       ?oop_oop_iterate_nv_m@instanceKlass@@UAEHPAVoopDesc@@PAVMarkRefsIntoAndScanClosure@@VMemRegion@@@Z 08077700 f   instanceKlass.obj
 0001:000767d0       ?oop_oop_iterate_nv_m@instanceKlass@@UAEHPAVoopDesc@@PAVPar_MarkRefsIntoAndScanClosure@@VMemRegion@@@Z 080777d0 f   instanceKlass.obj
 0001:000768a0       ?oop_oop_iterate_nv_m@instanceKlass@@UAEHPAVoopDesc@@PAVPushAndMarkClosure@@VMemRegion@@@Z 080778a0 f   instanceKlass.obj
 0001:00076970       ?oop_oop_iterate_nv_m@instanceKlass@@UAEHPAVoopDesc@@PAVPar_PushAndMarkClosure@@VMemRegion@@@Z 08077970 f   instanceKlass.obj
 0001:00076a40       ?oop_oop_iterate_nv_m@instanceKlass@@UAEHPAVoopDesc@@PAVPushOrMarkClosure@@VMemRegion@@@Z 08077a40 f   instanceKlass.obj
 0001:00076b10       ?oop_oop_iterate_nv_m@instanceKlass@@UAEHPAVoopDesc@@PAVPar_PushOrMarkClosure@@VMemRegion@@@Z 08077b10 f   instanceKlass.obj
 0001:00076be0       ?oop_oop_iterate_nv_m@instanceKlass@@UAEHPAVoopDesc@@PAVCMSKeepAliveClosure@@VMemRegion@@@Z 08077be0 f   instanceKlass.obj
 0001:00076cb0       ?oop_oop_iterate_nv_m@instanceKlass@@UAEHPAVoopDesc@@PAVCMSInnerParMarkAndPushClosure@@VMemRegion@@@Z 08077cb0 f   instanceKlass.obj
 0001:00076d80       ?oop_oop_iterate_nv_m@instanceKlass@@UAEHPAVoopDesc@@PAV?$G1ParCopyClosure@$0A@$01$0A@@@VMemRegion@@@Z 08077d80 f   instanceKlass.obj
 0001:00076e40       ?oop_oop_iterate_backwards_v@instanceKlass@@UAEHPAVoopDesc@@PAVOopClosure@@@Z 08077e40 f   instanceKlass.obj
 0001:00076ee0       ?oop_oop_iterate_backwards_nv@instanceKlass@@UAEHPAVoopDesc@@PAVFilteringClosure@@@Z 08077ee0 f   instanceKlass.obj
 0001:00076f80       ?oop_oop_iterate_backwards_nv@instanceKlass@@UAEHPAVoopDesc@@PAVMarkRefsIntoAndScanClosure@@@Z 08077f80 f   instanceKlass.obj
 0001:00077020       ?oop_oop_iterate_backwards_nv@instanceKlass@@UAEHPAVoopDesc@@PAVPar_MarkRefsIntoAndScanClosure@@@Z 08078020 f   instanceKlass.obj
 0001:000770c0       ?oop_oop_iterate_backwards_nv@instanceKlass@@UAEHPAVoopDesc@@PAVPushAndMarkClosure@@@Z 080780c0 f   instanceKlass.obj
 0001:00077160       ?oop_oop_iterate_backwards_nv@instanceKlass@@UAEHPAVoopDesc@@PAVPar_PushAndMarkClosure@@@Z 08078160 f   instanceKlass.obj
 0001:00077200       ?oop_oop_iterate_backwards_nv@instanceKlass@@UAEHPAVoopDesc@@PAVPushOrMarkClosure@@@Z 08078200 f   instanceKlass.obj
 0001:000772a0       ?oop_oop_iterate_backwards_nv@instanceKlass@@UAEHPAVoopDesc@@PAVPar_PushOrMarkClosure@@@Z 080782a0 f   instanceKlass.obj
 0001:00077340       ?oop_oop_iterate_backwards_nv@instanceKlass@@UAEHPAVoopDesc@@PAVCMSKeepAliveClosure@@@Z 08078340 f   instanceKlass.obj
 0001:000773e0       ?oop_oop_iterate_backwards_nv@instanceKlass@@UAEHPAVoopDesc@@PAVCMSInnerParMarkAndPushClosure@@@Z 080783e0 f   instanceKlass.obj
 0001:00077480       ?oop_oop_iterate_backwards_nv@instanceKlass@@UAEHPAVoopDesc@@PAV?$G1ParCopyClosure@$0A@$01$0A@@@@Z 08078480 f   instanceKlass.obj
 0001:00077520       ?iterate_static_fields@instanceKlass@@QAEXPAVOopClosure@@@Z 08078520 f   instanceKlass.obj
 0001:00077570       ?iterate_static_fields@instanceKlass@@QAEXPAVOopClosure@@VMemRegion@@@Z 08078570 f   instanceKlass.obj
 0001:000775d0       ?follow_weak_klass_links@instanceKlass@@UAEXPAVBoolObjectClosure@@PAVOopClosure@@@Z 080785d0 f   instanceKlass.obj
 0001:00077670       ?jvmti_class_status@instanceKlass@@UBEHXZ 08078670 f   instanceKlass.obj
 0001:000776a0       ?method_at_itable@instanceKlass@@QAEPAVmethodOopDesc@@PAVklassOopDesc@@HPAVThread@@@Z 080786a0 f   instanceKlass.obj
 0001:00077730       ?remove_osr_nmethod@instanceKlass@@QAEXPAVnmethod@@@Z 08078730 f   instanceKlass.obj
 0001:000777e0       ?lookup_osr_nmethod@instanceKlass@@QBEPAVnmethod@@QAVmethodOopDesc@@HH_N@Z 080787e0 f   instanceKlass.obj
 0001:00077890       ?oop_verify_on@instanceKlass@@UAEXPAVoopDesc@@PAVoutputStream@@@Z 08078890 f   instanceKlass.obj
 0001:000778d0       ?oops_do@JNIid@@QAEXPAVOopClosure@@@Z 080788d0 f   instanceKlass.obj
 0001:00077900       ?verify@JNIid@@QAEXPAVklassOopDesc@@@Z 08078900 f   instanceKlass.obj
 0001:00077940       ??1PreviousVersionWalker@@QAE@XZ 08078940 f   instanceKlass.obj
 0001:00077960       ??$do_oop_nv@I@FilterIntoCSClosure@@QAEXPAI@Z 08078960 f i instanceKlass.obj
 0001:000779a0       ??$do_oop_nv@PAVoopDesc@@@FilterIntoCSClosure@@QAEXPAPAVoopDesc@@@Z 080789a0 f i instanceKlass.obj
 0001:000779d0       ??$do_oop_nv@I@FilterOutOfRegionClosure@@QAEXPAI@Z 080789d0 f i instanceKlass.obj
 0001:00077a10       ??$do_oop_nv@PAVoopDesc@@@FilterOutOfRegionClosure@@QAEXPAPAVoopDesc@@@Z 08078a10 f i instanceKlass.obj
 0001:00077a40       ??$do_oop_nv@PAVoopDesc@@@FilterInHeapRegionAndIntoCSClosure@@QAEXPAPAVoopDesc@@@Z 08078a40 f i instanceKlass.obj
 0001:00077a70       ??$do_oop_nv@PAVoopDesc@@@FilterAndMarkInHeapRegionAndIntoCSClosure@@QAEXPAPAVoopDesc@@@Z 08078a70 f i instanceKlass.obj
 0001:00077ad0       ??$should_scavenge@I@PSScavenge@@SA_NPAI@Z 08078ad0 f i instanceKlass.obj
 0001:00077b00       ??$par_write_ref@I@G1RemSet@@QAEXPAVHeapRegion@@PAIH@Z 08078b00 f i instanceKlass.obj
 0001:00077b80       ??$par_write_ref@PAVoopDesc@@@G1RemSet@@QAEXPAVHeapRegion@@PAPAVoopDesc@@H@Z 08078b80 f i instanceKlass.obj
 0001:00077bf0       ??$par_do_barrier@I@ParScanClosure@@IAEXPAI@Z 08078bf0 f i instanceKlass.obj
 0001:00077c20       ??$deferred_rs_update@I@G1ParScanThreadState@@IAEXPAVHeapRegion@@PAIH@Z 08078c20 f i instanceKlass.obj
 0001:00077c90       ??$deferred_rs_update@PAVoopDesc@@@G1ParScanThreadState@@IAEXPAVHeapRegion@@PAPAVoopDesc@@H@Z 08078c90 f i instanceKlass.obj
 0001:00077cf0       ?vtable@instanceKlass@@UBEPAVklassVtable@@XZ 08078cf0 f   instanceKlass.obj
 0001:00077d50       ?itable@instanceKlass@@QBEPAVklassItable@@XZ 08078d50 f   instanceKlass.obj
 0001:00077d80       ?set_initialization_state_and_notify@instanceKlass@@QAEXW4ClassState@1@PAVThread@@@Z 08078d80 f   instanceKlass.obj
 0001:00077de0       ?register_finalizer@instanceKlass@@SAPAVinstanceOopDesc@@PAV2@PAVThread@@@Z 08078de0 f   instanceKlass.obj
 0001:00077e70       ?check_valid_for_instantiation@instanceKlass@@UAEX_NPAVThread@@@Z 08078e70 f   instanceKlass.obj
 0001:00077f70       ?do_local_static_fields_impl@instanceKlass@@CAXVinstanceKlassHandle@@P6AXPAVfieldDescriptor@@PAVThread@@@Z2@Z 08078f70 f   instanceKlass.obj
 0001:00077fe0       ?jni_id_for_impl@instanceKlass@@CAPAVJNIid@@VinstanceKlassHandle@@H@Z 08078fe0 f   instanceKlass.obj
 0001:000780a0       ?jni_id_for@instanceKlass@@QAEPAVJNIid@@H@Z 080790a0 f   instanceKlass.obj
 0001:000780e0       ?mark_dependent_nmethods@instanceKlass@@QAEHAAVDepChange@@@Z 080790e0 f   instanceKlass.obj
 0001:00078130       ?adjust_static_fields@instanceKlass@@QAEXXZ 08079130 f   instanceKlass.obj
 0001:00078190       ?update_static_fields@instanceKlass@@QAEXXZ 08079190 f   instanceKlass.obj
 0001:000781f0       ?update_static_fields@instanceKlass@@QAEXPAVHeapWord@@0@Z 080791f0 f   instanceKlass.obj
 0001:00078260       ?oop_oop_iterate_nv@instanceKlass@@UAEHPAVoopDesc@@PAVFilterIntoCSClosure@@@Z 08079260 f   instanceKlass.obj
 0001:00078330       ?oop_oop_iterate_nv@instanceKlass@@UAEHPAVoopDesc@@PAVFilterOutOfRegionClosure@@@Z 08079330 f   instanceKlass.obj
 0001:000783d0       ?oop_oop_iterate_nv@instanceKlass@@UAEHPAVoopDesc@@PAVFilterInHeapRegionAndIntoCSClosure@@@Z 080793d0 f   instanceKlass.obj
 0001:000784a0       ?oop_oop_iterate_nv@instanceKlass@@UAEHPAVoopDesc@@PAVFilterAndMarkInHeapRegionAndIntoCSClosure@@@Z 080794a0 f   instanceKlass.obj
 0001:000785b0       ?oop_oop_iterate_nv_m@instanceKlass@@UAEHPAVoopDesc@@PAVFilterIntoCSClosure@@VMemRegion@@@Z 080795b0 f   instanceKlass.obj
 0001:000786a0       ?oop_oop_iterate_nv_m@instanceKlass@@UAEHPAVoopDesc@@PAVFilterOutOfRegionClosure@@VMemRegion@@@Z 080796a0 f   instanceKlass.obj
 0001:00078760       ?oop_oop_iterate_nv_m@instanceKlass@@UAEHPAVoopDesc@@PAVFilterInHeapRegionAndIntoCSClosure@@VMemRegion@@@Z 08079760 f   instanceKlass.obj
 0001:00078850       ?oop_oop_iterate_nv_m@instanceKlass@@UAEHPAVoopDesc@@PAVFilterAndMarkInHeapRegionAndIntoCSClosure@@VMemRegion@@@Z 08079850 f   instanceKlass.obj
 0001:00078990       ?oop_oop_iterate_backwards_nv@instanceKlass@@UAEHPAVoopDesc@@PAVFilterIntoCSClosure@@@Z 08079990 f   instanceKlass.obj
 0001:00078a60       ?oop_oop_iterate_backwards_nv@instanceKlass@@UAEHPAVoopDesc@@PAVFilterOutOfRegionClosure@@@Z 08079a60 f   instanceKlass.obj
 0001:00078b00       ?oop_oop_iterate_backwards_nv@instanceKlass@@UAEHPAVoopDesc@@PAVFilterInHeapRegionAndIntoCSClosure@@@Z 08079b00 f   instanceKlass.obj
 0001:00078bd0       ?oop_oop_iterate_backwards_nv@instanceKlass@@UAEHPAVoopDesc@@PAVFilterAndMarkInHeapRegionAndIntoCSClosure@@@Z 08079bd0 f   instanceKlass.obj
 0001:00078ce0       ?oop_adjust_pointers@instanceKlass@@UAEHPAVoopDesc@@@Z 08079ce0 f   instanceKlass.obj
 0001:00078da0       ?oop_update_pointers@instanceKlass@@UAEHPAVParCompactionManager@@PAVoopDesc@@@Z 08079da0 f   instanceKlass.obj
 0001:00078e30       ?oop_update_pointers@instanceKlass@@UAEHPAVParCompactionManager@@PAVoopDesc@@PAVHeapWord@@2@Z 08079e30 f   instanceKlass.obj
 0001:00078ee0       ?is_same_class_package@instanceKlass@@SA_NPAVoopDesc@@PAVsymbolOopDesc@@01@Z 08079ee0 f   instanceKlass.obj
 0001:00079000       ?add_osr_nmethod@instanceKlass@@QAEXPAVnmethod@@@Z 0807a000 f   instanceKlass.obj
 0001:000790b0       ?oop_print_value_on@instanceKlass@@UAEXPAVoopDesc@@PAVoutputStream@@@Z 0807a0b0 f   instanceKlass.obj
 0001:00079260       ??0PreviousVersionInfo@@QAE@PAVPreviousVersionNode@@@Z 0807a260 f   instanceKlass.obj
 0001:00079330       ??0PreviousVersionWalker@@QAE@PAVinstanceKlass@@@Z 0807a330 f   instanceKlass.obj
 0001:00079370       ?next_previous_version@PreviousVersionWalker@@QAEPAVPreviousVersionInfo@@XZ 0807a370 f   instanceKlass.obj
 0001:000793f0       ??$do_oop_work@PAVoopDesc@@@ParScanClosure@@IAEXPAPAVoopDesc@@_N1@Z 0807a3f0 f i instanceKlass.obj
 0001:000794a0       ??$do_oop_work@I@ParScanClosure@@IAEXPAI_N1@Z 0807a4a0 f i instanceKlass.obj
 0001:00079570       ?do_oop@ParScanWithoutBarrierClosure@@UAEXPAPAVoopDesc@@@Z 0807a570 f i parNewGeneration.obj
 0001:00079570       ?do_oop_nv@ParScanWithoutBarrierClosure@@QAEXPAPAVoopDesc@@@Z 0807a570 f i instanceKlass.obj
 0001:000795f0       ?do_local_static_fields@instanceKlass@@QAEXP6AXPAVfieldDescriptor@@PAVThread@@@Z1@Z 0807a5f0 f   instanceKlass.obj
 0001:00079620       ?oop_oop_iterate_nv@instanceKlass@@UAEHPAVoopDesc@@PAVScanClosure@@@Z 0807a620 f   instanceKlass.obj
 0001:00079710       ?oop_oop_iterate_nv@instanceKlass@@UAEHPAVoopDesc@@PAVFastScanClosure@@@Z 0807a710 f   instanceKlass.obj
 0001:00079800       ?oop_oop_iterate_nv@instanceKlass@@UAEHPAVoopDesc@@PAVParScanWithBarrierClosure@@@Z 0807a800 f   instanceKlass.obj
 0001:000798a0       ?oop_oop_iterate_nv@instanceKlass@@UAEHPAVoopDesc@@PAVParScanWithoutBarrierClosure@@@Z 0807a8a0 f   instanceKlass.obj
 0001:00079940       ?oop_oop_iterate_nv_m@instanceKlass@@UAEHPAVoopDesc@@PAVScanClosure@@VMemRegion@@@Z 0807a940 f   instanceKlass.obj
 0001:00079a50       ?oop_oop_iterate_nv_m@instanceKlass@@UAEHPAVoopDesc@@PAVFastScanClosure@@VMemRegion@@@Z 0807aa50 f   instanceKlass.obj
 0001:00079b60       ?oop_oop_iterate_nv_m@instanceKlass@@UAEHPAVoopDesc@@PAVParScanWithBarrierClosure@@VMemRegion@@@Z 0807ab60 f   instanceKlass.obj
 0001:00079c20       ?oop_oop_iterate_nv_m@instanceKlass@@UAEHPAVoopDesc@@PAVParScanWithoutBarrierClosure@@VMemRegion@@@Z 0807ac20 f   instanceKlass.obj
 0001:00079ce0       ?oop_oop_iterate_backwards_nv@instanceKlass@@UAEHPAVoopDesc@@PAVScanClosure@@@Z 0807ace0 f   instanceKlass.obj
 0001:00079dd0       ?oop_oop_iterate_backwards_nv@instanceKlass@@UAEHPAVoopDesc@@PAVFastScanClosure@@@Z 0807add0 f   instanceKlass.obj
 0001:00079ec0       ?oop_oop_iterate_backwards_nv@instanceKlass@@UAEHPAVoopDesc@@PAVParScanWithBarrierClosure@@@Z 0807aec0 f   instanceKlass.obj
 0001:00079f60       ?oop_oop_iterate_backwards_nv@instanceKlass@@UAEHPAVoopDesc@@PAVParScanWithoutBarrierClosure@@@Z 0807af60 f   instanceKlass.obj
 0001:0007a000       ?is_same_class_package@instanceKlass@@QAE_NPAVklassOopDesc@@@Z 0807b000 f   instanceKlass.obj
 0001:0007a050       ?is_override@instanceKlass@@QAE_NVmethodHandle@@VHandle@@VsymbolHandle@@PAVThread@@@Z 0807b050 f   instanceKlass.obj
 0001:0007a0c0       ?is_same_package_member_impl@instanceKlass@@SA_NVinstanceKlassHandle@@PAVklassOopDesc@@PAVThread@@@Z 0807b0c0 f   instanceKlass.obj
 0001:0007a210       ?do_oop@VerifyFieldClosure@@UAEXPAPAVoopDesc@@@Z 0807b210 f i instanceKlass.obj
 0001:0007a220       ??$do_oop_work@PAVoopDesc@@@VerifyFieldClosure@@IAEXPAPAVoopDesc@@@Z 0807b220 f i instanceKlass.obj
 0001:0007a2b0       ?do_oop@VerifyFieldClosure@@UAEXPAI@Z 0807b2b0 f i instanceKlass.obj
 0001:0007a2c0       ??$do_oop_work@I@VerifyFieldClosure@@IAEXPAI@Z 0807b2c0 f i instanceKlass.obj
 0001:0007a360       ?find_local_field@instanceKlass@@QBE_NPAVsymbolOopDesc@@0PAVfieldDescriptor@@@Z 0807b360 f   instanceKlass.obj
 0001:0007a3d0       ?field_names_and_sigs_iterate@instanceKlass@@QAEXPAVOopClosure@@@Z 0807b3d0 f   instanceKlass.obj
 0001:0007a470       ?find_local_field_from_offset@instanceKlass@@QBE_NH_NPAVfieldDescriptor@@@Z 0807b470 f   instanceKlass.obj
 0001:0007a4f0       ?find_field_from_offset@instanceKlass@@QBE_NH_NPAVfieldDescriptor@@@Z 0807b4f0 f   instanceKlass.obj
 0001:0007a530       ?compute_modifier_flags@instanceKlass@@UBEHPAVThread@@@Z 0807b530 f   instanceKlass.obj
 0001:0007a600       ??1PreviousVersionNode@@QAE@XZ 0807b600 f   instanceKlass.obj
 0001:0007a680       ?link_class_impl@instanceKlass@@CA_NVinstanceKlassHandle@@_NPAVThread@@@Z 0807b680 f   instanceKlass.obj
 0001:0007aa80       ?init_implementor@instanceKlass@@QAEXXZ 0807ba80 f   instanceKlass.obj
 0001:0007ab10       ?compute_secondary_supers@instanceKlass@@UAEPAVobjArrayOopDesc@@HPAVThread@@@Z 0807bb10 f   instanceKlass.obj
 0001:0007aba0       ?implements_interface@instanceKlass@@QBE_NPAVklassOopDesc@@@Z 0807bba0 f   instanceKlass.obj
 0001:0007abf0       ?find_interface_field@instanceKlass@@QBEPAVklassOopDesc@@PAVsymbolOopDesc@@0PAVfieldDescriptor@@@Z 0807bbf0 f   instanceKlass.obj
 0001:0007ac90       ?find_field@instanceKlass@@QBEPAVklassOopDesc@@PAVsymbolOopDesc@@0PAVfieldDescriptor@@@Z 0807bc90 f   instanceKlass.obj
 0001:0007acf0       ?find_field@instanceKlass@@QBEPAVklassOopDesc@@PAVsymbolOopDesc@@0_NPAVfieldDescriptor@@@Z 0807bcf0 f   instanceKlass.obj
 0001:0007ad60       ?methods_do@instanceKlass@@QAEXP6AXPAVmethodOopDesc@@@Z@Z 0807bd60 f   instanceKlass.obj
 0001:0007ada0       ?find_method@instanceKlass@@SAPAVmethodOopDesc@@PAVobjArrayOopDesc@@PAVsymbolOopDesc@@1@Z 0807bda0 f   instanceKlass.obj
 0001:0007aed0       ?lookup_method_in_all_interfaces@instanceKlass@@QBEPAVmethodOopDesc@@PAVsymbolOopDesc@@0@Z 0807bed0 f   instanceKlass.obj
 0001:0007af20       ?follow_static_fields@instanceKlass@@QAEXXZ 0807bf20 f   instanceKlass.obj
 0001:0007b000       ?remove_unshareable_info@instanceKlass@@UAEXXZ 0807c000 f   instanceKlass.obj
 0001:0007b010       ?add_previous_version@instanceKlass@@QAEXVinstanceKlassHandle@@PAVBitMap@@H@Z 0807c010 f   instanceKlass.obj
 0001:0007b9a0       ?method_with_idnum@instanceKlass@@QAEPAVmethodOopDesc@@H@Z 0807c9a0 f   instanceKlass.obj
 0001:0007b9f0       ??$push_on_queue@I@G1ParScanThreadState@@QAEXPAI@Z 0807c9f0 f i instanceKlass.obj
 0001:0007ba30       ??$push_on_queue@PAVoopDesc@@@G1ParScanThreadState@@QAEXPAPAVoopDesc@@@Z 0807ca30 f i instanceKlass.obj
 0001:0007ba70       ?set_array_klasses@instanceKlass@@QAEXPAVklassOopDesc@@@Z 0807ca70 f i instanceKlass.obj
 0001:0007baa0       ?link_class@instanceKlass@@QAEXPAVThread@@@Z 0807caa0 f   instanceKlass.obj
 0001:0007bae0       ?link_class_or_fail@instanceKlass@@QAE_NPAVThread@@@Z 0807cae0 f   instanceKlass.obj
 0001:0007bb40       ?add_implementor@instanceKlass@@QAEXPAVklassOopDesc@@@Z 0807cb40 f   instanceKlass.obj
 0001:0007bc10       ?process_interfaces@instanceKlass@@QAEXPAVThread@@@Z 0807cc10 f   instanceKlass.obj
 0001:0007bc70       ?compute_is_subtype_of@instanceKlass@@UAE_NPAVklassOopDesc@@@Z 0807cc70 f   instanceKlass.obj
 0001:0007bca0       ?array_klass_impl@instanceKlass@@CAPAVklassOopDesc@@VinstanceKlassHandle@@_NHPAVThread@@@Z 0807cca0 f   instanceKlass.obj
 0001:0007bde0       ?find_method@instanceKlass@@QBEPAVmethodOopDesc@@PAVsymbolOopDesc@@0@Z 0807cde0 f   instanceKlass.obj
 0001:0007be00       ?uncached_lookup_method@instanceKlass@@UBEPAVmethodOopDesc@@PAVsymbolOopDesc@@0@Z 0807ce00 f   instanceKlass.obj
 0001:0007be40       ?get_jmethod_id@instanceKlass@@SAPAU_jmethodID@@VinstanceKlassHandle@@VmethodHandle@@@Z 0807ce40 f   instanceKlass.obj
 0001:0007c050       ?follow_static_fields@instanceKlass@@QAEXPAVParCompactionManager@@@Z 0807d050 f   instanceKlass.obj
 0001:0007c140       ?oop_follow_contents@instanceKlass@@UAEXPAVoopDesc@@@Z 0807d140 f   instanceKlass.obj
 0001:0007c270       ?oop_follow_contents@instanceKlass@@UAEXPAVParCompactionManager@@PAVoopDesc@@@Z 0807d270 f   instanceKlass.obj
 0001:0007c3f0       ?release_C_heap_structures@instanceKlass@@QAEXXZ 0807d3f0 f   instanceKlass.obj
 0001:0007c570       ?set_methods_annotations_of@instanceKlass@@AAEXHPAVtypeArrayOopDesc@@PAPAVobjArrayOopDesc@@@Z 0807d570 f   instanceKlass.obj
 0001:0007c640       ??$do_oop_nv@I@G1ParScanClosure@@QAEXPAI@Z 0807d640 f i instanceKlass.obj
 0001:0007c6c0       ??$do_oop_nv@PAVoopDesc@@@G1ParScanClosure@@QAEXPAPAVoopDesc@@@Z 0807d6c0 f i instanceKlass.obj
 0001:0007c730       ??$do_oop_nv@I@G1ParPushHeapRSClosure@@QAEXPAI@Z 0807d730 f i instanceKlass.obj
 0001:0007c790       ??$do_oop_nv@PAVoopDesc@@@G1ParPushHeapRSClosure@@QAEXPAPAVoopDesc@@@Z 0807d790 f i instanceKlass.obj
 0001:0007c7e0       ?allocate_permanent_instance@instanceKlass@@QAEPAVinstanceOopDesc@@PAVThread@@@Z 0807d7e0 f   instanceKlass.obj
 0001:0007c820       ?array_klass_impl@instanceKlass@@EAEPAVklassOopDesc@@_NHPAVThread@@@Z 0807d820 f   instanceKlass.obj
 0001:0007c850       ?call_class_initializer_impl@instanceKlass@@CAXVinstanceKlassHandle@@PAVThread@@@Z 0807d850 f   instanceKlass.obj
 0001:0007c8d0       ?oop_oop_iterate_nv@instanceKlass@@UAEHPAVoopDesc@@PAVG1ParScanClosure@@@Z 0807d8d0 f   instanceKlass.obj
 0001:0007caa0       ?oop_oop_iterate_nv@instanceKlass@@UAEHPAVoopDesc@@PAVG1ParPushHeapRSClosure@@@Z 0807daa0 f   instanceKlass.obj
 0001:0007cc20       ?oop_oop_iterate_nv_m@instanceKlass@@UAEHPAVoopDesc@@PAVG1ParScanClosure@@VMemRegion@@@Z 0807dc20 f   instanceKlass.obj
 0001:0007ce20       ?oop_oop_iterate_nv_m@instanceKlass@@UAEHPAVoopDesc@@PAVG1ParPushHeapRSClosure@@VMemRegion@@@Z 0807de20 f   instanceKlass.obj
 0001:0007cfc0       ?oop_oop_iterate_backwards_nv@instanceKlass@@UAEHPAVoopDesc@@PAVG1ParScanClosure@@@Z 0807dfc0 f   instanceKlass.obj
 0001:0007d190       ?oop_oop_iterate_backwards_nv@instanceKlass@@UAEHPAVoopDesc@@PAVG1ParPushHeapRSClosure@@@Z 0807e190 f   instanceKlass.obj
 0001:0007d300       ?oop_push_contents@instanceKlass@@UAEXPAVPSPromotionManager@@PAVoopDesc@@@Z 0807e300 f   instanceKlass.obj
 0001:0007d470       ?push_static_fields@instanceKlass@@QAEXPAVPSPromotionManager@@@Z 0807e470 f   instanceKlass.obj
 0001:0007d4d0       ?post_allocation_setup_obj@CollectedHeap@@KAXVKlassHandle@@PAVHeapWord@@I@Z 0807e4d0 f i instanceKlass.obj
 0001:0007d530       ?obj_allocate@CollectedHeap@@SAPAVoopDesc@@VKlassHandle@@HPAVThread@@@Z 0807e530 f i instanceKlass.obj
 0001:0007d590       ?allocate_objArray@instanceKlass@@QAEPAVobjArrayOopDesc@@HHPAVThread@@@Z 0807e590 f   instanceKlass.obj
 0001:0007d6a0       ?allocate_instance@instanceKlass@@QAEPAVinstanceOopDesc@@PAVThread@@@Z 0807e6a0 f   instanceKlass.obj
 0001:0007d710       ?call_class_initializer@instanceKlass@@QAEXPAVThread@@@Z 0807e710 f   instanceKlass.obj
 0001:0007d740       ?initialize_impl@instanceKlass@@CAXVinstanceKlassHandle@@PAVThread@@@Z 0807e740 f   instanceKlass.obj
 0001:0007db00       ?initialize@instanceKlass@@UAEXPAVThread@@@Z 0807eb00 f   instanceKlass.obj
 0001:0007db50       ?internal_name@instanceKlassKlass@@UBEPBDXZ 0807eb50 f   instanceKlassKlass.obj
 0001:0007db60       ?oop_is_parsable@instanceKlassKlass@@UBE_NPAVoopDesc@@@Z 0807eb60 f   instanceKlassKlass.obj
 0001:0007db90       ?oop_print_value_on@instanceKlassKlass@@UAEXPAVoopDesc@@PAVoutputStream@@@Z 0807eb90 f   instanceKlassKlass.obj
 0001:0007dbb0       ?oop_partially_loaded@instanceKlassKlass@@UBE_NPAVoopDesc@@@Z 0807ebb0 f   instanceKlassKlass.obj
 0001:0007dbd0       ?create_klass@instanceKlassKlass@@SAPAVklassOopDesc@@PAVThread@@@Z 0807ebd0 f   instanceKlassKlass.obj
 0001:0007dc40       ?oop_size@instanceKlassKlass@@UBEHPAVoopDesc@@@Z 0807ec40 f   instanceKlassKlass.obj
 0001:0007dc80       ?oop_oop_iterate@instanceKlassKlass@@UAEHPAVoopDesc@@PAVOopClosure@@@Z 0807ec80 f   instanceKlassKlass.obj
 0001:0007de60       ?oop_oop_iterate_m@instanceKlassKlass@@UAEHPAVoopDesc@@PAVOopClosure@@VMemRegion@@@Z 0807ee60 f   instanceKlassKlass.obj
 0001:0007e1c0       ?oop_adjust_pointers@instanceKlassKlass@@UAEHPAVoopDesc@@@Z 0807f1c0 f   instanceKlassKlass.obj
 0001:0007e5d0       ?oop_update_pointers@instanceKlassKlass@@UAEHPAVParCompactionManager@@PAVoopDesc@@@Z 0807f5d0 f   instanceKlassKlass.obj
 0001:0007e6b0       ?oop_update_pointers@instanceKlassKlass@@UAEHPAVParCompactionManager@@PAVoopDesc@@PAVHeapWord@@2@Z 0807f6b0 f   instanceKlassKlass.obj
 0001:0007e7d0       ?set_signers@instanceKlass@@QAEXPAVobjArrayOopDesc@@@Z 0807f7d0 f i instanceKlassKlass.obj
 0001:0007e830       ?set_bootstrap_method@instanceKlass@@QAEXPAVoopDesc@@@Z 0807f830 f i instanceKlassKlass.obj
 0001:0007e890       ?oop_follow_contents@instanceKlassKlass@@UAEXPAVoopDesc@@@Z 0807f890 f   instanceKlassKlass.obj
 0001:0007ea10       ?oop_verify_on@instanceKlassKlass@@UAEXPAVoopDesc@@PAVoutputStream@@@Z 0807fa10 f   instanceKlassKlass.obj
 0001:0007f5c0       ?oop_follow_contents@instanceKlassKlass@@UAEXPAVParCompactionManager@@PAVoopDesc@@@Z 080805c0 f   instanceKlassKlass.obj
 0001:0007f760       ?oop_set_partially_loaded@instanceKlassKlass@@UAEXPAVoopDesc@@@Z 08080760 f   instanceKlassKlass.obj
 0001:0007f7a0       ?allocate_instance_klass@instanceKlassKlass@@QAEPAVklassOopDesc@@HHHIW4ReferenceType@@PAVThread@@@Z 080807a0 f   instanceKlassKlass.obj
 0001:0007fb50       ?oop_push_contents@instanceKlassKlass@@UAEXPAVPSPromotionManager@@PAVoopDesc@@@Z 08080b50 f   instanceKlassKlass.obj
 0001:0007fc40       ?update_nonstatic_oop_maps@instanceRefKlass@@SAXPAVklassOopDesc@@@Z 08080c40 f   instanceRefKlass.obj
 0001:0007fc90       ?owns_pending_list_lock@instanceRefKlass@@SA_NPAVJavaThread@@@Z 08080c90 f   instanceRefKlass.obj
 0001:0007fcd0       ?acquire_pending_list_lock@instanceRefKlass@@SAXPAVBasicLock@@@Z 08080cd0 f   instanceRefKlass.obj
 0001:0007fd30       ?release_and_notify_pending_list_lock@instanceRefKlass@@SAXPAVBasicLock@@@Z 08080d30 f   instanceRefKlass.obj
 0001:0007fdb0       ?oop_oop_iterate_v@instanceRefKlass@@UAEHPAVoopDesc@@PAVOopClosure@@@Z 08080db0 f   instanceRefKlass.obj
 0001:0007fe40       ?oop_oop_iterate_nv@instanceRefKlass@@UAEHPAVoopDesc@@PAVFilteringClosure@@@Z 08080e40 f   instanceRefKlass.obj
 0001:0007ff00       ?oop_oop_iterate_nv@instanceRefKlass@@UAEHPAVoopDesc@@PAVMarkRefsIntoAndScanClosure@@@Z 08080f00 f   instanceRefKlass.obj
 0001:0007ffa0       ?oop_oop_iterate_nv@instanceRefKlass@@UAEHPAVoopDesc@@PAVPar_MarkRefsIntoAndScanClosure@@@Z 08080fa0 f   instanceRefKlass.obj
 0001:00080040       ?oop_oop_iterate_nv@instanceRefKlass@@UAEHPAVoopDesc@@PAVPushAndMarkClosure@@@Z 08081040 f   instanceRefKlass.obj
 0001:000800e0       ?oop_oop_iterate_nv@instanceRefKlass@@UAEHPAVoopDesc@@PAVPar_PushAndMarkClosure@@@Z 080810e0 f   instanceRefKlass.obj
 0001:00080180       ?oop_oop_iterate_nv@instanceRefKlass@@UAEHPAVoopDesc@@PAVPushOrMarkClosure@@@Z 08081180 f   instanceRefKlass.obj
 0001:00080220       ?oop_oop_iterate_nv@instanceRefKlass@@UAEHPAVoopDesc@@PAVPar_PushOrMarkClosure@@@Z 08081220 f   instanceRefKlass.obj
 0001:000802c0       ?oop_oop_iterate_nv@instanceRefKlass@@UAEHPAVoopDesc@@PAVCMSKeepAliveClosure@@@Z 080812c0 f   instanceRefKlass.obj
 0001:00080360       ?oop_oop_iterate_nv@instanceRefKlass@@UAEHPAVoopDesc@@PAVCMSInnerParMarkAndPushClosure@@@Z 08081360 f   instanceRefKlass.obj
 0001:00080400       ?oop_oop_iterate_nv@instanceRefKlass@@UAEHPAVoopDesc@@PAV?$G1ParCopyClosure@$0A@$01$0A@@@@Z 08081400 f   instanceRefKlass.obj
 0001:00080490       ?oop_oop_iterate_nv@instanceRefKlass@@UAEHPAVoopDesc@@PAVFilterIntoCSClosure@@@Z 08081490 f   instanceRefKlass.obj
 0001:00080550       ?oop_oop_iterate_nv@instanceRefKlass@@UAEHPAVoopDesc@@PAVFilterOutOfRegionClosure@@@Z 08081550 f   instanceRefKlass.obj
 0001:00080620       ?oop_oop_iterate_nv@instanceRefKlass@@UAEHPAVoopDesc@@PAVFilterInHeapRegionAndIntoCSClosure@@@Z 08081620 f   instanceRefKlass.obj
 0001:000806e0       ?oop_oop_iterate_nv@instanceRefKlass@@UAEHPAVoopDesc@@PAVFilterAndMarkInHeapRegionAndIntoCSClosure@@@Z 080816e0 f   instanceRefKlass.obj
 0001:00080770       ?oop_oop_iterate_backwards_v@instanceRefKlass@@UAEHPAVoopDesc@@PAVOopClosure@@@Z 08081770 f   instanceRefKlass.obj
 0001:00080800       ?oop_oop_iterate_backwards_nv@instanceRefKlass@@UAEHPAVoopDesc@@PAVFilteringClosure@@@Z 08081800 f   instanceRefKlass.obj
 0001:000808c0       ?oop_oop_iterate_backwards_nv@instanceRefKlass@@UAEHPAVoopDesc@@PAVMarkRefsIntoAndScanClosure@@@Z 080818c0 f   instanceRefKlass.obj
 0001:00080960       ?oop_oop_iterate_backwards_nv@instanceRefKlass@@UAEHPAVoopDesc@@PAVPar_MarkRefsIntoAndScanClosure@@@Z 08081960 f   instanceRefKlass.obj
 0001:00080a00       ?oop_oop_iterate_backwards_nv@instanceRefKlass@@UAEHPAVoopDesc@@PAVPushAndMarkClosure@@@Z 08081a00 f   instanceRefKlass.obj
 0001:00080aa0       ?oop_oop_iterate_backwards_nv@instanceRefKlass@@UAEHPAVoopDesc@@PAVPar_PushAndMarkClosure@@@Z 08081aa0 f   instanceRefKlass.obj
 0001:00080b40       ?oop_oop_iterate_backwards_nv@instanceRefKlass@@UAEHPAVoopDesc@@PAVPushOrMarkClosure@@@Z 08081b40 f   instanceRefKlass.obj
 0001:00080be0       ?oop_oop_iterate_backwards_nv@instanceRefKlass@@UAEHPAVoopDesc@@PAVPar_PushOrMarkClosure@@@Z 08081be0 f   instanceRefKlass.obj
 0001:00080c80       ?oop_oop_iterate_backwards_nv@instanceRefKlass@@UAEHPAVoopDesc@@PAVCMSKeepAliveClosure@@@Z 08081c80 f   instanceRefKlass.obj
 0001:00080d20       ?oop_oop_iterate_backwards_nv@instanceRefKlass@@UAEHPAVoopDesc@@PAVCMSInnerParMarkAndPushClosure@@@Z 08081d20 f   instanceRefKlass.obj
 0001:00080dc0       ?oop_oop_iterate_backwards_nv@instanceRefKlass@@UAEHPAVoopDesc@@PAV?$G1ParCopyClosure@$0A@$01$0A@@@@Z 08081dc0 f   instanceRefKlass.obj
 0001:00080e50       ?oop_oop_iterate_backwards_nv@instanceRefKlass@@UAEHPAVoopDesc@@PAVFilterIntoCSClosure@@@Z 08081e50 f   instanceRefKlass.obj
 0001:00080f10       ?oop_oop_iterate_backwards_nv@instanceRefKlass@@UAEHPAVoopDesc@@PAVFilterOutOfRegionClosure@@@Z 08081f10 f   instanceRefKlass.obj
 0001:00080fe0       ?oop_oop_iterate_backwards_nv@instanceRefKlass@@UAEHPAVoopDesc@@PAVFilterInHeapRegionAndIntoCSClosure@@@Z 08081fe0 f   instanceRefKlass.obj
 0001:000810a0       ?oop_oop_iterate_backwards_nv@instanceRefKlass@@UAEHPAVoopDesc@@PAVFilterAndMarkInHeapRegionAndIntoCSClosure@@@Z 080820a0 f   instanceRefKlass.obj
 0001:00081130       ?oop_oop_iterate_v_m@instanceRefKlass@@UAEHPAVoopDesc@@PAVOopClosure@@VMemRegion@@@Z 08082130 f   instanceRefKlass.obj
 0001:000811f0       ?oop_oop_iterate_nv_m@instanceRefKlass@@UAEHPAVoopDesc@@PAVFilteringClosure@@VMemRegion@@@Z 080821f0 f   instanceRefKlass.obj
 0001:000812e0       ?oop_oop_iterate_nv_m@instanceRefKlass@@UAEHPAVoopDesc@@PAVMarkRefsIntoAndScanClosure@@VMemRegion@@@Z 080822e0 f   instanceRefKlass.obj
 0001:000813c0       ?oop_oop_iterate_nv_m@instanceRefKlass@@UAEHPAVoopDesc@@PAVPar_MarkRefsIntoAndScanClosure@@VMemRegion@@@Z 080823c0 f   instanceRefKlass.obj
 0001:000814a0       ?oop_oop_iterate_nv_m@instanceRefKlass@@UAEHPAVoopDesc@@PAVPushAndMarkClosure@@VMemRegion@@@Z 080824a0 f   instanceRefKlass.obj
 0001:00081580       ?oop_oop_iterate_nv_m@instanceRefKlass@@UAEHPAVoopDesc@@PAVPar_PushAndMarkClosure@@VMemRegion@@@Z 08082580 f   instanceRefKlass.obj
 0001:00081660       ?oop_oop_iterate_nv_m@instanceRefKlass@@UAEHPAVoopDesc@@PAVPushOrMarkClosure@@VMemRegion@@@Z 08082660 f   instanceRefKlass.obj
 0001:00081740       ?oop_oop_iterate_nv_m@instanceRefKlass@@UAEHPAVoopDesc@@PAVPar_PushOrMarkClosure@@VMemRegion@@@Z 08082740 f   instanceRefKlass.obj
 0001:00081820       ?oop_oop_iterate_nv_m@instanceRefKlass@@UAEHPAVoopDesc@@PAVCMSKeepAliveClosure@@VMemRegion@@@Z 08082820 f   instanceRefKlass.obj
 0001:00081900       ?oop_oop_iterate_nv_m@instanceRefKlass@@UAEHPAVoopDesc@@PAVCMSInnerParMarkAndPushClosure@@VMemRegion@@@Z 08082900 f   instanceRefKlass.obj
 0001:000819e0       ?oop_oop_iterate_nv_m@instanceRefKlass@@UAEHPAVoopDesc@@PAV?$G1ParCopyClosure@$0A@$01$0A@@@VMemRegion@@@Z 080829e0 f   instanceRefKlass.obj
 0001:00081aa0       ?oop_oop_iterate_nv_m@instanceRefKlass@@UAEHPAVoopDesc@@PAVFilterIntoCSClosure@@VMemRegion@@@Z 08082aa0 f   instanceRefKlass.obj
 0001:00081b90       ?oop_oop_iterate_nv_m@instanceRefKlass@@UAEHPAVoopDesc@@PAVFilterOutOfRegionClosure@@VMemRegion@@@Z 08082b90 f   instanceRefKlass.obj
 0001:00081c90       ?oop_oop_iterate_nv_m@instanceRefKlass@@UAEHPAVoopDesc@@PAVFilterInHeapRegionAndIntoCSClosure@@VMemRegion@@@Z 08082c90 f   instanceRefKlass.obj
 0001:00081d80       ?oop_oop_iterate_nv_m@instanceRefKlass@@UAEHPAVoopDesc@@PAVFilterAndMarkInHeapRegionAndIntoCSClosure@@VMemRegion@@@Z 08082d80 f   instanceRefKlass.obj
 0001:00081e40       ?oop_verify_on@instanceRefKlass@@UAEXPAVoopDesc@@PAVoutputStream@@@Z 08082e40 f   instanceRefKlass.obj
 0001:00081f50       ??$specialized_oop_adjust_pointers@PAVoopDesc@@@@YAXPAVinstanceRefKlass@@PAVoopDesc@@@Z 08082f50 f i instanceRefKlass.obj
 0001:00081fe0       ??$specialized_oop_update_pointers@PAVoopDesc@@@@YAXPAVinstanceRefKlass@@PAVParCompactionManager@@PAVoopDesc@@@Z 08082fe0 f i instanceRefKlass.obj
 0001:00082050       ??$specialized_oop_update_pointers@PAVoopDesc@@@@YAXPAVParCompactionManager@@PAVoopDesc@@PAVHeapWord@@2@Z 08083050 f i instanceRefKlass.obj
 0001:000820e0       ?oop_adjust_pointers@instanceRefKlass@@UAEHPAVoopDesc@@@Z 080830e0 f   instanceRefKlass.obj
 0001:00082110       ?oop_oop_iterate_nv@instanceRefKlass@@UAEHPAVoopDesc@@PAVScanClosure@@@Z 08083110 f   instanceRefKlass.obj
 0001:000821a0       ?oop_oop_iterate_nv@instanceRefKlass@@UAEHPAVoopDesc@@PAVFastScanClosure@@@Z 080831a0 f   instanceRefKlass.obj
 0001:00082230       ?oop_oop_iterate_nv@instanceRefKlass@@UAEHPAVoopDesc@@PAVParScanWithBarrierClosure@@@Z 08083230 f   instanceRefKlass.obj
 0001:000822c0       ?oop_oop_iterate_nv@instanceRefKlass@@UAEHPAVoopDesc@@PAVParScanWithoutBarrierClosure@@@Z 080832c0 f   instanceRefKlass.obj
 0001:00082350       ?oop_oop_iterate_backwards_nv@instanceRefKlass@@UAEHPAVoopDesc@@PAVScanClosure@@@Z 08083350 f   instanceRefKlass.obj
 0001:000823e0       ?oop_oop_iterate_backwards_nv@instanceRefKlass@@UAEHPAVoopDesc@@PAVFastScanClosure@@@Z 080833e0 f   instanceRefKlass.obj
 0001:00082470       ?oop_oop_iterate_backwards_nv@instanceRefKlass@@UAEHPAVoopDesc@@PAVParScanWithBarrierClosure@@@Z 08083470 f   instanceRefKlass.obj
 0001:00082500       ?oop_oop_iterate_backwards_nv@instanceRefKlass@@UAEHPAVoopDesc@@PAVParScanWithoutBarrierClosure@@@Z 08083500 f   instanceRefKlass.obj
 0001:00082590       ?oop_oop_iterate_nv_m@instanceRefKlass@@UAEHPAVoopDesc@@PAVScanClosure@@VMemRegion@@@Z 08083590 f   instanceRefKlass.obj
 0001:00082650       ?oop_oop_iterate_nv_m@instanceRefKlass@@UAEHPAVoopDesc@@PAVFastScanClosure@@VMemRegion@@@Z 08083650 f   instanceRefKlass.obj
 0001:00082710       ?oop_oop_iterate_nv_m@instanceRefKlass@@UAEHPAVoopDesc@@PAVParScanWithBarrierClosure@@VMemRegion@@@Z 08083710 f   instanceRefKlass.obj
 0001:000827d0       ?oop_oop_iterate_nv_m@instanceRefKlass@@UAEHPAVoopDesc@@PAVParScanWithoutBarrierClosure@@VMemRegion@@@Z 080837d0 f   instanceRefKlass.obj
 0001:00082890       ?oop_update_pointers@instanceRefKlass@@UAEHPAVParCompactionManager@@PAVoopDesc@@@Z 08083890 f   instanceRefKlass.obj
 0001:000828c0       ?oop_update_pointers@instanceRefKlass@@UAEHPAVParCompactionManager@@PAVoopDesc@@PAVHeapWord@@2@Z 080838c0 f   instanceRefKlass.obj
 0001:00082960       ??$specialized_oop_follow_contents@PAVoopDesc@@@@YAXPAVinstanceRefKlass@@PAVParCompactionManager@@PAVoopDesc@@@Z 08083960 f i instanceRefKlass.obj
 0001:00082a00       ?oop_follow_contents@instanceRefKlass@@UAEXPAVoopDesc@@@Z 08083a00 f   instanceRefKlass.obj
 0001:00082a20       ?oop_follow_contents@instanceRefKlass@@UAEXPAVParCompactionManager@@PAVoopDesc@@@Z 08083a20 f   instanceRefKlass.obj
 0001:00082a40       ?oop_oop_iterate_nv@instanceRefKlass@@UAEHPAVoopDesc@@PAVG1ParScanClosure@@@Z 08083a40 f   instanceRefKlass.obj
 0001:00082ad0       ?oop_oop_iterate_nv@instanceRefKlass@@UAEHPAVoopDesc@@PAVG1ParPushHeapRSClosure@@@Z 08083ad0 f   instanceRefKlass.obj
 0001:00082b60       ?oop_oop_iterate_backwards_nv@instanceRefKlass@@UAEHPAVoopDesc@@PAVG1ParScanClosure@@@Z 08083b60 f   instanceRefKlass.obj
 0001:00082bf0       ?oop_oop_iterate_backwards_nv@instanceRefKlass@@UAEHPAVoopDesc@@PAVG1ParPushHeapRSClosure@@@Z 08083bf0 f   instanceRefKlass.obj
 0001:00082c80       ?oop_oop_iterate_nv_m@instanceRefKlass@@UAEHPAVoopDesc@@PAVG1ParScanClosure@@VMemRegion@@@Z 08083c80 f   instanceRefKlass.obj
 0001:00082d40       ?oop_oop_iterate_nv_m@instanceRefKlass@@UAEHPAVoopDesc@@PAVG1ParPushHeapRSClosure@@VMemRegion@@@Z 08083d40 f   instanceRefKlass.obj
 0001:00082e00       ??$specialized_oop_push_contents@PAVoopDesc@@@@YAXPAVinstanceRefKlass@@PAVPSPromotionManager@@PAVoopDesc@@@Z 08083e00 f i instanceRefKlass.obj
 0001:00082ea0       ?oop_push_contents@instanceRefKlass@@UAEXPAVPSPromotionManager@@PAVoopDesc@@@Z 08083ea0 f   instanceRefKlass.obj
 0001:00082ec0       ?initialize@Klass@@UAEXPAVThread@@@Z 08083ec0 f   klass.obj
 0001:00082ee0       ?uncached_lookup_method@Klass@@UBEPAVmethodOopDesc@@PAVsymbolOopDesc@@0@Z 08083ee0 f   klass.obj
 0001:00082f00       ?array_klass_or_null@Klass@@QAEPAVklassOopDesc@@H@Z 08083f00 f   klass.obj
 0001:00082f40       ?array_klass_or_null@Klass@@QAEPAVklassOopDesc@@XZ 08083f40 f   klass.obj
 0001:00082f80       ?array_klass_impl@Klass@@MAEPAVklassOopDesc@@_NHPAVThread@@@Z 08083f80 f   klass.obj
 0001:00082fa0       ?array_klass_impl@Klass@@MAEPAVklassOopDesc@@_NPAVThread@@@Z 08083fa0 f   klass.obj
 0001:00082fc0       ?get_data_recorder@Generation@@UAEPAXH@Z 08083fc0 f   compactingPermGenGen.obj
 0001:00082fc0       ?verify_region_extra@HeapRegionSetBase@@MAEPBDPAVHeapRegion@@@Z 08083fc0 f   concurrentMark.obj
 0001:00082fc0       ?compute_modifier_flags@Klass@@UBEHPAVThread@@@Z 08083fc0 f   klass.obj
 0001:00082fd0       ?copy_array@Klass@@UAEXPAVarrayOopDesc@@H0HHPAVThread@@@Z 08083fd0 f   klass.obj
 0001:00083000       ?compute_is_subtype_of@Klass@@MAE_NPAVklassOopDesc@@@Z 08084000 f   klass.obj
 0001:00083000       ?is_subclass_of@Klass@@QBE_NPAVklassOopDesc@@@Z 08084000 f   klass.obj
 0001:00083030       ?compute_secondary_supers@Klass@@UAEPAVobjArrayOopDesc@@HPAVThread@@@Z 08084030 f   klass.obj
 0001:00083040       ?subklass@Klass@@QBEPAV1@XZ 08084040 f   klass.obj
 0001:00083050       ?superklass@Klass@@QBEPAVinstanceKlass@@XZ 08084050 f   klass.obj
 0001:00083060       ?next_sibling@Klass@@QBEPAV1@XZ 08084060 f   klass.obj
 0001:00083070       ?with_array_klasses_do@Klass@@UAEXP6AXPAVklassOopDesc@@@Z@Z 08084070 f   klass.obj
 0001:00083090       ?external_name@Klass@@QBEPBDXZ 08084090 f   klass.obj
 0001:00083170       ?signature_name@Klass@@UBEPBDXZ 08084170 f   klass.obj
 0001:00083190       ?atomic_incr_biased_lock_revocation_count@Klass@@QAEHXZ 08084190 f   klass.obj
 0001:000831d0       ?check_valid_for_instantiation@Klass@@UAEX_NPAVThread@@@Z 080841d0 f   klass.obj
 0001:00083250       ?can_be_primary_super_slow@Klass@@UBE_NXZ 08084250 f   klass.obj
 0001:00083270       ?oop_print_on@Klass@@UAEXPAVoopDesc@@PAVoutputStream@@@Z 08084270 f   klass.obj
 0001:00083310       ?oop_print_value_on@Klass@@UAEXPAVoopDesc@@PAVoutputStream@@@Z 08084310 f   klass.obj
 0001:00083390       ?oop_verify_on@Klass@@UAEXPAVoopDesc@@PAVoutputStream@@@Z 08084390 f   klass.obj
 0001:00083430       ??2Klass_vtbl@@KAPAXIAAVKlassHandle@@HPAVThread@@@Z 08084430 f   klass.obj
 0001:00083460       ?array_layout_helper@Klass@@SAHW4BasicType@@@Z 08084460 f   klass.obj
 0001:000834c0       ?set_subklass@Klass@@IAEXPAVklassOopDesc@@@Z 080844c0 f   klass.obj
 0001:000834f0       ?append_to_sibling_list@Klass@@QAEXXZ 080844f0 f   klass.obj
 0001:00083550       ?follow_weak_klass_links@Klass@@UAEXPAVBoolObjectClosure@@PAVOopClosure@@@Z 08084550 f   klass.obj
 0001:00083610       ?remove_unshareable_info@Klass@@UAEXXZ 08084610 f   klass.obj
 0001:00083670       ?search_secondary_supers@Klass@@QBE_NPAVklassOopDesc@@@Z 08084670 f   klass.obj
 0001:000836e0       ?base_create_klass_oop@Klass@@SAPAVklassOopDesc@@AAVKlassHandle@@HABVKlass_vtbl@@PAVThread@@@Z 080846e0 f   klass.obj
 0001:00083990       ?base_create_klass@Klass@@SA?AVKlassHandle@@AAV2@HABVKlass_vtbl@@PAVThread@@@Z 08084990 f   klass.obj
 0001:000839c0       ?initialize_supers@Klass@@QAEXPAVklassOopDesc@@PAVThread@@@Z 080849c0 f   klass.obj
 0001:00083d80       ?post_new_init_klass@Klass_vtbl@@QBEXAAVKlassHandle@@PAVklassOopDesc@@H@Z 08084d80 f   klass.obj
 0001:00083dc0       ?oop_print_on@klassKlass@@UAEXPAVoopDesc@@PAVoutputStream@@@Z 08084dc0 f   klassKlass.obj
 0001:00083dd0       ?internal_name@klassKlass@@UBEPBDXZ 08084dd0 f   klassKlass.obj
 0001:00083de0       ?oop_size@klassKlass@@UBEHPAVoopDesc@@@Z 08084de0 f   klassKlass.obj
 0001:00083e00       ?oop_oop_iterate@klassKlass@@UAEHPAVoopDesc@@PAVOopClosure@@@Z 08084e00 f   klassKlass.obj
 0001:00083ea0       ?oop_oop_iterate_m@klassKlass@@UAEHPAVoopDesc@@PAVOopClosure@@VMemRegion@@@Z 08084ea0 f   klassKlass.obj
 0001:00083fd0       ?oop_adjust_pointers@klassKlass@@UAEHPAVoopDesc@@@Z 08084fd0 f   klassKlass.obj
 0001:00084140       ?oop_update_pointers@klassKlass@@UAEHPAVParCompactionManager@@PAVoopDesc@@@Z 08085140 f   klassKlass.obj
 0001:00084190       ?oop_update_pointers@klassKlass@@UAEHPAVParCompactionManager@@PAVoopDesc@@PAVHeapWord@@2@Z 08085190 f   klassKlass.obj
 0001:000841f0       ?oop_verify_on@klassKlass@@UAEXPAVoopDesc@@PAVoutputStream@@@Z 080851f0 f   klassKlass.obj
 0001:000844b0       ?create_klass@klassKlass@@SAPAVklassOopDesc@@PAVThread@@@Z 080854b0 f   klassKlass.obj
 0001:00084520       ?oop_follow_contents@klassKlass@@UAEXPAVoopDesc@@@Z 08085520 f   klassKlass.obj
 0001:00084870       ?oop_follow_contents@klassKlass@@UAEXPAVParCompactionManager@@PAVoopDesc@@@Z 08085870 f   klassKlass.obj
 0001:00084d80       ?put_method_at@klassVtable@@AAEXPAVmethodOopDesc@@H@Z 08085d80 f   klassVtable.obj
 0001:00084dc0       ?oop_oop_iterate@klassVtable@@QAEXPAVOopClosure@@@Z 08085dc0 f   klassVtable.obj
 0001:00084e10       ?oop_oop_iterate_m@klassVtable@@QAEXPAVOopClosure@@VMemRegion@@@Z 08085e10 f   klassVtable.obj
 0001:00084ea0       ??0klassItable@@QAE@VinstanceKlassHandle@@@Z 08085ea0 f   klassVtable.obj
 0001:00084f50       ?doit@CountInterfacesClosure@@UAEXPAVklassOopDesc@@H@Z 08085f50 f i klassVtable.obj
 0001:00084f70       ?doit@SetupItableClosure@@UAEXPAVklassOopDesc@@H@Z 08085f70 f i klassVtable.obj
 0001:00084fa0       ?index_of_miranda@klassVtable@@QAEHPAVsymbolOopDesc@@0@Z 08085fa0 f   klassVtable.obj
 0001:00085030       ?adjust_method_entries@klassVtable@@QAEXPAPAVmethodOopDesc@@0HPA_N@Z 08086030 f   klassVtable.obj
 0001:00085220       ?oop_adjust_pointers@klassVtable@@QAEXXZ 08086220 f   klassVtable.obj
 0001:00085270       ?oop_update_pointers@klassVtable@@QAEXPAVParCompactionManager@@@Z 08086270 f   klassVtable.obj
 0001:000852c0       ?oop_update_pointers@klassVtable@@QAEXPAVParCompactionManager@@PAVHeapWord@@1@Z 080862c0 f   klassVtable.obj
 0001:00085340       ?oop_adjust_pointers@klassItable@@QAEXXZ 08086340 f   klassVtable.obj
 0001:000853f0       ?oop_update_pointers@klassItable@@QAEXPAVParCompactionManager@@@Z 080863f0 f   klassVtable.obj
 0001:00085480       ?oop_oop_iterate@klassItable@@QAEXPAVOopClosure@@@Z 08086480 f   klassVtable.obj
 0001:00085520       ?oop_oop_iterate_m@klassItable@@QAEXPAVOopClosure@@VMemRegion@@@Z 08086520 f   klassVtable.obj
 0001:000855c0       ?adjust_method_entries@klassItable@@QAEXPAPAVmethodOopDesc@@0HPA_N@Z 080865c0 f   klassVtable.obj
 0001:00085790       ?verify_against@klassVtable@@AAEXPAVoutputStream@@PAV1@H@Z 08086790 f   klassVtable.obj
 0001:00085830       ?verify@vtableEntry@@AAEXPAVklassVtable@@PAVoutputStream@@@Z 08086830 f   klassVtable.obj
 0001:000858a0       ?initialize_from_super@klassVtable@@AAEHVKlassHandle@@@Z 080868a0 f   klassVtable.obj
 0001:00085900       ?find_transitive_override@klassVtable@@AAEPAVinstanceKlass@@PAV2@VmethodHandle@@HVHandle@@VsymbolHandle@@PAVThread@@@Z 08086900 f   klassVtable.obj
 0001:00085990       ?update_inherited_vtable@klassVtable@@AAE_NPAVinstanceKlass@@VmethodHandle@@H_NPAVThread@@@Z 08086990 f   klassVtable.obj
 0001:00085e00       ?needs_new_vtable_entry@klassVtable@@CA_NVmethodHandle@@PAVklassOopDesc@@VHandle@@VsymbolHandle@@VAccessFlags@@PAVThread@@@Z 08086e00 f   klassVtable.obj
 0001:00085f70       ?oop_update_pointers@klassItable@@QAEXPAVParCompactionManager@@PAVHeapWord@@1@Z 08086f70 f   klassVtable.obj
 0001:00086020       ?verify@klassVtable@@QAEXPAVoutputStream@@_N@Z 08087020 f   klassVtable.obj
 0001:00086120       ?add_new_mirandas_to_list@klassVtable@@CAXPAV?$GrowableArray@PAVmethodOopDesc@@@@PAVobjArrayOopDesc@@1PAVklassOopDesc@@@Z 08087120 f   klassVtable.obj
 0001:00086260       ?get_mirandas@klassVtable@@CAXPAV?$GrowableArray@PAVmethodOopDesc@@@@PAVklassOopDesc@@PAVobjArrayOopDesc@@2@Z 08087260 f   klassVtable.obj
 0001:000862f0       ?get_num_mirandas@klassVtable@@CAHPAVklassOopDesc@@PAVobjArrayOopDesc@@1@Z 080872f0 f   klassVtable.obj
 0001:000863b0       ?fill_in_mirandas@klassVtable@@AAEXAAH@Z 080873b0 f   klassVtable.obj
 0001:000864d0       ?oop_follow_contents@klassVtable@@QAEXXZ 080874d0 f   klassVtable.obj
 0001:000865b0       ?oop_follow_contents@klassItable@@QAEXXZ 080875b0 f   klassVtable.obj
 0001:00086770       ?initialize_itable_for_interface@klassItable@@AAEXHVKlassHandle@@_NPAVThread@@@Z 08087770 f   klassVtable.obj
 0001:00086b20       ?visit_all_interfaces@@YAXPAVobjArrayOopDesc@@PAVInterfaceVisiterClosure@@@Z 08087b20 f   klassVtable.obj
 0001:00086b90       ?compute_itable_size@klassItable@@SAHVobjArrayHandle@@@Z 08087b90 f   klassVtable.obj
 0001:00086bd0       ?setup_itable_offset_table@klassItable@@SAXVinstanceKlassHandle@@@Z 08087bd0 f   klassVtable.obj
 0001:00086c80       ?compute_itable_index@klassItable@@SAHPAVmethodOopDesc@@@Z 08087c80 f   klassVtable.obj
 0001:00086cd0       ?method_for_itable_index@klassItable@@SAPAVmethodOopDesc@@PAVklassOopDesc@@H@Z 08087cd0 f   klassVtable.obj
 0001:00086d20       ?compute_vtable_size_and_num_mirandas@klassVtable@@SAXAAH0PAVklassOopDesc@@PAVobjArrayOopDesc@@VAccessFlags@@VHandle@@VsymbolHandle@@2PAVThread@@@Z 08087d20 f   klassVtable.obj
 0001:00086e40       ?initialize_vtable@klassVtable@@QAEX_NPAVThread@@@Z 08087e40 f   klassVtable.obj
 0001:00087000       ?initialize_itable@klassItable@@QAEX_NPAVThread@@@Z 08088000 f   klassVtable.obj
 0001:00087120       ?oop_follow_contents@klassVtable@@QAEXPAVParCompactionManager@@@Z 08088120 f   klassVtable.obj
 0001:00087240       ?oop_follow_contents@klassItable@@QAEXPAVParCompactionManager@@@Z 08088240 f   klassVtable.obj
 0001:00087470       ?should_not_be_cached@markOopDesc@@QBE_NXZ 08088470 f   markOop.obj
 0001:000874b0       ?internal_name@methodDataKlass@@UBEPBDXZ 080884b0 f   methodDataKlass.obj
 0001:000874c0       ?oop_size@methodDataKlass@@UBEHPAVoopDesc@@@Z 080884c0 f   methodDataKlass.obj
 0001:000874f0       ?oop_is_parsable@methodDataKlass@@UBE_NPAVoopDesc@@@Z 080884f0 f   methodDataKlass.obj
 0001:00087510       ?oop_print_value_on@methodDataKlass@@UAEXPAVoopDesc@@PAVoutputStream@@@Z 08088510 f   methodDataKlass.obj
 0001:00087540       ?create_klass@methodDataKlass@@SAPAVklassOopDesc@@PAVThread@@@Z 08088540 f   methodDataKlass.obj
 0001:000875a0       ?oop_oop_iterate@methodDataKlass@@UAEHPAVoopDesc@@PAVOopClosure@@@Z 080885a0 f   methodDataKlass.obj
 0001:00087670       ?oop_oop_iterate_m@methodDataKlass@@UAEHPAVoopDesc@@PAVOopClosure@@VMemRegion@@@Z 08088670 f   methodDataKlass.obj
 0001:00087770       ?oop_adjust_pointers@methodDataKlass@@UAEHPAVoopDesc@@@Z 08088770 f   methodDataKlass.obj
 0001:00087860       ?oop_update_pointers@methodDataKlass@@UAEHPAVParCompactionManager@@PAVoopDesc@@@Z 08088860 f   methodDataKlass.obj
 0001:00087920       ?oop_verify_on@methodDataKlass@@UAEXPAVoopDesc@@PAVoutputStream@@@Z 08088920 f   methodDataKlass.obj
 0001:000879a0       ?oop_update_pointers@methodDataKlass@@UAEHPAVParCompactionManager@@PAVoopDesc@@PAVHeapWord@@2@Z 080889a0 f   methodDataKlass.obj
 0001:00087a70       ?oop_follow_contents@methodDataKlass@@UAEXPAVoopDesc@@@Z 08088a70 f   methodDataKlass.obj
 0001:00087b10       ?allocate@methodDataKlass@@QAEPAVmethodDataOopDesc@@VmethodHandle@@PAVThread@@@Z 08088b10 f   methodDataKlass.obj
 0001:00087b70       ?oop_follow_contents@methodDataKlass@@UAEXPAVParCompactionManager@@PAVoopDesc@@@Z 08088b70 f   methodDataKlass.obj
 0001:00087c10       ?is_mature@methodDataOopDesc@@QBE_NXZ 08088c10 f   methodDataOop.obj
 0001:00087c30       ?follow_contents@ReceiverTypeData@@UAEXXZ 08088c30 f   methodDataOop.obj
 0001:00087c40       ?follow_contents@ReceiverTypeData@@UAEXPAVParCompactionManager@@@Z 08088c40 f   methodDataOop.obj
 0001:00087c60       ?oop_iterate@ReceiverTypeData@@UAEXPAVOopClosure@@@Z 08088c60 f   methodDataOop.obj
 0001:00087cc0       ?follow_weak_refs@ReceiverTypeData@@UAEXPAVBoolObjectClosure@@@Z 08088cc0 f   methodDataOop.obj
 0001:00087d20       ?post_initialize@RetData@@UAEXPAVBytecodeStream@@PAVmethodDataOopDesc@@@Z 08088d20 f   methodDataOop.obj
 0001:00087d50       ?bytecode_cell_count@methodDataOopDesc@@CAHW4Code@Bytecodes@@@Z 08088d50 f   methodDataOop.obj
 0001:00087e40       ?data_in@DataLayout@@QAEPAVProfileData@@XZ 08088e40 f   methodDataOop.obj
 0001:00087f90       ?mileage_of@methodDataOopDesc@@SAHPAVmethodOopDesc@@@Z 08088f90 f   methodDataOop.obj
 0001:00088010       ?follow_weak_refs@DataLayout@@QAEXPAVBoolObjectClosure@@@Z 08089010 f   methodDataOop.obj
 0001:00088080       ?adjust_pointers@ReceiverTypeData@@UAEXXZ 08089080 f   methodDataOop.obj
 0001:000880d0       ?update_pointers@ReceiverTypeData@@UAEXXZ 080890d0 f   methodDataOop.obj
 0001:00088110       ?compute_cell_count@MultiBranchData@@SAHPAVBytecodeStream@@@Z 08089110 f   methodDataOop.obj
 0001:000881b0       ?compute_allocation_size_in_bytes@methodDataOopDesc@@SAHVmethodHandle@@@Z 080891b0 f   methodDataOop.obj
 0001:00088230       ?compute_allocation_size_in_words@methodDataOopDesc@@SAHVmethodHandle@@@Z 08089230 f   methodDataOop.obj
 0001:00088260       ?initialize_data@methodDataOopDesc@@AAEHPAVBytecodeStream@@H@Z 08089260 f   methodDataOop.obj
 0001:000883e0       ?data_at@methodDataOopDesc@@QAEPAVProfileData@@H@Z 080893e0 f   methodDataOop.obj
 0001:00088400       ?next_data@methodDataOopDesc@@QAEPAVProfileData@@PAV2@@Z 08089400 f   methodDataOop.obj
 0001:00088440       ?update_pointers@ReceiverTypeData@@UAEXPAVHeapWord@@0@Z 08089440 f   methodDataOop.obj
 0001:000884a0       ?post_initialize@methodDataOopDesc@@AAEXPAVBytecodeStream@@@Z 080894a0 f   methodDataOop.obj
 0001:00088580       ?initialize@methodDataOopDesc@@QAEXVmethodHandle@@@Z 08089580 f   methodDataOop.obj
 0001:000886e0       ?bci_to_dp@methodDataOopDesc@@QAEPAEH@Z 080896e0 f   methodDataOop.obj
 0001:000887f0       ?post_initialize@JumpData@@UAEXPAVBytecodeStream@@PAVmethodDataOopDesc@@@Z 080897f0 f   methodDataOop.obj
 0001:00088860       ?fixup_ret@RetData@@QAEPAEHVmethodDataHandle@@@Z 08089860 f   methodDataOop.obj
 0001:000888c0       ?post_initialize@BranchData@@UAEXPAVBytecodeStream@@PAVmethodDataOopDesc@@@Z 080898c0 f   methodDataOop.obj
 0001:00088920       ?post_initialize@MultiBranchData@@UAEXPAVBytecodeStream@@PAVmethodDataOopDesc@@@Z 08089920 f   methodDataOop.obj
 0001:00088ab0       ?internal_name@methodKlass@@UBEPBDXZ 08089ab0 f   methodKlass.obj
 0001:00088ac0       ?oop_size@methodKlass@@UBEHPAVoopDesc@@@Z 08089ac0 f   methodKlass.obj
 0001:00088ad0       ?oop_is_parsable@methodKlass@@UBE_NPAVoopDesc@@@Z 08089ad0 f   methodKlass.obj
 0001:00088af0       ?oop_oop_iterate@methodKlass@@UAEHPAVoopDesc@@PAVOopClosure@@@Z 08089af0 f   methodKlass.obj
 0001:00088b40       ?oop_oop_iterate_m@methodKlass@@UAEHPAVoopDesc@@PAVOopClosure@@VMemRegion@@@Z 08089b40 f   methodKlass.obj
 0001:00088bd0       ?create_klass@methodKlass@@SAPAVklassOopDesc@@PAVThread@@@Z 08089bd0 f   methodKlass.obj
 0001:00088c40       ?oop_adjust_pointers@methodKlass@@UAEHPAVoopDesc@@@Z 08089c40 f   methodKlass.obj
 0001:00088cd0       ?oop_update_pointers@methodKlass@@UAEHPAVParCompactionManager@@PAVoopDesc@@@Z 08089cd0 f   methodKlass.obj
 0001:00088d20       ?oop_print_value_on@methodKlass@@UAEXPAVoopDesc@@PAVoutputStream@@@Z 08089d20 f   methodKlass.obj
 0001:00088da0       ?oop_verify_on@methodKlass@@UAEXPAVoopDesc@@PAVoutputStream@@@Z 08089da0 f   methodKlass.obj
 0001:00089040       ?oop_partially_loaded@methodKlass@@UBE_NPAVoopDesc@@@Z 0808a040 f   methodKlass.obj
 0001:00089060       ?oop_set_partially_loaded@methodKlass@@UAEXPAVoopDesc@@@Z 0808a060 f   methodKlass.obj
 0001:00089080       ?oop_update_pointers@methodKlass@@UAEHPAVParCompactionManager@@PAVoopDesc@@PAVHeapWord@@2@Z 0808a080 f   methodKlass.obj
 0001:000890e0       ?oop_follow_contents@methodKlass@@UAEXPAVoopDesc@@@Z 0808a0e0 f   methodKlass.obj
 0001:00089120       ?set_pool_holder@constantPoolOopDesc@@QAEXPAVklassOopDesc@@@Z 0808a120 f i classFileParser.obj
 0001:00089120       ?set_method_data@methodOopDesc@@QAEXPAVmethodDataOopDesc@@@Z 0808a120 f i methodKlass.obj
 0001:00089150       ?allocate@methodKlass@@QAEPAVmethodOopDesc@@VconstMethodHandle@@VAccessFlags@@PAVThread@@@Z 0808a150 f   methodKlass.obj
 0001:000892b0       ?oop_follow_contents@methodKlass@@UAEXPAVParCompactionManager@@PAVoopDesc@@@Z 0808a2b0 f   methodKlass.obj
 0001:000892e0       ?is_method_handle_invoke_name@methodOopDesc@@SA_NW4SID@vmSymbols@@@Z 0808a2e0 f   methodOop.obj
 0001:00089310       ?contains@constMethodOopDesc@@QBE_NPAE@Z 0808a310 f i methodOop.obj
 0001:00089340       ?is_zero_const@Bytecodes@@SA_NW4Code@1@@Z 0808a340 f i methodOop.obj
 0001:00089370       ?contains@methodOopDesc@@QBE_NPAE@Z 0808a370 f i methodOop.obj
 0001:000893a0       ?get_c2i_entry@methodOopDesc@@QAEPAEXZ 0808a3a0 f   methodOop.obj
 0001:000893b0       ?get_c2i_unverified_entry@methodOopDesc@@QAEPAEXZ 0808a3b0 f   methodOop.obj
 0001:000893c0       ?name_and_sig_as_C_string@methodOopDesc@@SAPADPAVKlass@@PAVsymbolOopDesc@@1@Z 0808a3c0 f   methodOop.obj
 0001:00089470       ?name_and_sig_as_C_string@methodOopDesc@@SAPADPAVKlass@@PAVsymbolOopDesc@@1PADH@Z 0808a470 f   methodOop.obj
 0001:000894e0       ?bci_from@methodOopDesc@@QBEHPAE@Z 0808a4e0 f   methodOop.obj
 0001:000894f0       ?validate_bci_from_bcx@methodOopDesc@@QBEHH@Z 0808a4f0 f   methodOop.obj
 0001:00089560       ?bcp_from@methodOopDesc@@QBEPAEH@Z 0808a560 f   methodOop.obj
 0001:00089580       ?object_size@methodOopDesc@@SAH_N@Z 0808a580 f   methodOop.obj
 0001:000895b0       ?klass_name@methodOopDesc@@QBEPAVsymbolOopDesc@@XZ 0808a5b0 f   methodOop.obj
 0001:000895c0       ?is_empty_method@methodOopDesc@@QBE_NXZ 0808a5c0 f   methodOop.obj
 0001:000895e0       ?is_vanilla_constructor@methodOopDesc@@QBE_NXZ 0808a5e0 f   methodOop.obj
 0001:00089660       ?is_final_method@methodOopDesc@@QBE_NXZ 0808a660 f   methodOop.obj
 0001:00089690       ?can_be_statically_bound@methodOopDesc@@QBE_NXZ 0808a690 f   methodOop.obj
 0001:000896c0       ?set_native_function@methodOopDesc@@QAEXPAE_N@Z 0808a6c0 f   methodOop.obj
 0001:00089710       ?set_signature_handler@methodOopDesc@@QAEXPAE@Z 0808a710 f   methodOop.obj
 0001:00089720       ?is_not_compilable@methodOopDesc@@QBE_NH@Z 0808a720 f   methodOop.obj
 0001:000897a0       ?should_not_be_cached@methodOopDesc@@QBE_NXZ 0808a7a0 f   methodOop.obj
 0001:000897c0       ?method_handle_type@methodOopDesc@@QBEPAVoopDesc@@XZ 0808a7c0 f   methodOop.obj
 0001:000897e0       ?method_type_offsets_chain@methodOopDesc@@SAPAHXZ 0808a7e0 f   methodOop.obj
 0001:00089810       ?klass_id_for_intrinsics@methodOopDesc@@SA?AW4SID@vmSymbols@@PAVklassOopDesc@@@Z 0808a810 f   methodOop.obj
 0001:00089840       ?write_pair_regular@CompressedLineNumberWriteStream@@QAEXHH@Z 0808a840 f   methodOop.obj
 0001:00089880       ??0CompressedLineNumberReadStream@@QAE@PAE@Z 0808a880 f   methodOop.obj
 0001:000898a0       ?read_pair@CompressedLineNumberReadStream@@QAE_NXZ 0808a8a0 f   methodOop.obj
 0001:00089900       ?invocation_count@methodOopDesc@@QAEHXZ 0808a900 f   methodOop.obj
 0001:00089950       ?backedge_count@methodOopDesc@@QAEHXZ 0808a950 f   methodOop.obj
 0001:000899a0       ?highest_osr_comp_level@methodOopDesc@@QBEHXZ 0808a9a0 f   methodOop.obj
 0001:000899b0       ?set_highest_osr_comp_level@methodOopDesc@@QAEXH@Z 0808a9b0 f   methodOop.obj
 0001:000899d0       ?name_and_sig_as_C_string@methodOopDesc@@QAEPADXZ 0808a9d0 f   methodOop.obj
 0001:00089a00       ?name_and_sig_as_C_string@methodOopDesc@@QAEPADPADH@Z 0808aa00 f   methodOop.obj
 0001:00089a40       ?mask_for@methodOopDesc@@QAEXHPAVInterpreterOopMap@@@Z 0808aa40 f   methodOop.obj
 0001:00089a80       ?compute_size_of_parameters@methodOopDesc@@QAEXPAVThread@@@Z 0808aa80 f   methodOop.obj
 0001:00089af0       ?is_accessor@methodOopDesc@@QBE_NXZ 0808aaf0 f   methodOop.obj
 0001:00089b70       ?is_initializer@methodOopDesc@@QBE_NXZ 0808ab70 f   methodOop.obj
 0001:00089ba0       ?line_number_from_bci@methodOopDesc@@QBEHH@Z 0808aba0 f   methodOop.obj
 0001:00089c60       ?has_native_function@methodOopDesc@@QBE_NXZ 0808ac60 f   methodOop.obj
 0001:00089c80       ?clear_code@methodOopDesc@@QAEXXZ 0808ac80 f   methodOop.obj
 0001:00089cc0       ?link_method@methodOopDesc@@QAEXVmethodHandle@@PAVThread@@@Z 0808acc0 f   methodOop.obj
 0001:00089d60       ?set_code@methodOopDesc@@SAXVmethodHandle@@PAVnmethod@@@Z 0808ad60 f   methodOop.obj
 0001:00089de0       ?is_overridden_in@methodOopDesc@@QBE_NPAVklassOopDesc@@@Z 0808ade0 f   methodOop.obj
 0001:00089e60       ?is_method_handle_adapter@methodOopDesc@@QBE_NXZ 0808ae60 f   methodOop.obj
 0001:00089ed0       ?init_intrinsic_id@methodOopDesc@@QAEXXZ 0808aed0 f   methodOop.obj
 0001:0008a040       ?print_short_name@methodOopDesc@@QAEXPAVoutputStream@@@Z 0808b040 f   methodOop.obj
 0001:0008a170       ?orig_bytecode_at@methodOopDesc@@QBE?AW4Code@Bytecodes@@H@Z 0808b170 f   methodOop.obj
 0001:0008a1e0       ?set_orig_bytecode_at@methodOopDesc@@QAEXHW4Code@Bytecodes@@@Z 0808b1e0 f   methodOop.obj
 0001:0008a2e0       ?clear_breakpoint@methodOopDesc@@QAEXH@Z 0808b2e0 f   methodOop.obj
 0001:0008a300       ?clear_all_breakpoints@methodOopDesc@@QAEXXZ 0808b300 f   methodOop.obj
 0001:0008a310       ??0BreakpointInfo@@QAE@PAVmethodOopDesc@@H@Z 0808b310 f   methodOop.obj
 0001:0008a360       ?set@BreakpointInfo@@QAEXPAVmethodOopDesc@@@Z 0808b360 f   methodOop.obj
 0001:0008a3d0       ?result_type@methodOopDesc@@QBE?AW4BasicType@@XZ 0808b3d0 f   methodOop.obj
 0001:0008a430       ?compute_has_loops_flag@methodOopDesc@@QAE_NXZ 0808b430 f   methodOop.obj
 0001:0008a580       ?clear_native_function@methodOopDesc@@QAEXXZ 0808b580 f   methodOop.obj
 0001:0008a5e0       ?set_not_compilable@methodOopDesc@@QAEXH_N@Z 0808b5e0 f   methodOop.obj
 0001:0008a710       ?verified_code_entry@methodOopDesc@@QAEPAEXZ 0808b710 f   methodOop.obj
 0001:0008a760       ?set_breakpoint@methodOopDesc@@QAEXH@Z 0808b760 f   methodOop.obj
 0001:0008a7b0       ?fast_exception_handler_bci_for@methodOopDesc@@QAEHVKlassHandle@@HPAVThread@@@Z 0808b7b0 f   methodOop.obj
 0001:0008a8c0       ?resolved_checked_exceptions_impl@methodOopDesc@@SA?AVobjArrayHandle@@PAV1@PAVThread@@@Z 0808b8c0 f   methodOop.obj
 0001:0008aae0       ?sort_methods@methodOopDesc@@SAXPAVobjArrayOopDesc@@000_N@Z 0808bae0 f   methodOop.obj
 0001:0008ad90       ?build_interpreter_method_data@methodOopDesc@@SAXVmethodHandle@@PAVThread@@@Z 0808bd90 f   methodOop.obj
 0001:0008ae00       ?unlink_method@methodOopDesc@@QAEXXZ 0808be00 f   methodOop.obj
 0001:0008ae60       ?make_invoke_method@methodOopDesc@@SA?AVmethodHandle@@VKlassHandle@@VsymbolHandle@@1VHandle@@PAVThread@@@Z 0808be60 f   methodOop.obj
 0001:0008b030       ?clone_with_new_data@methodOopDesc@@SA?AVmethodHandle@@V2@PAEH1HPAVThread@@@Z 0808c030 f   methodOop.obj
 0001:0008b220       ?remove_unshareable_info@methodOopDesc@@QAEXXZ 0808c220 f   methodOop.obj
 0001:0008b250       ?oop_verify_old_oop@objArrayKlass@@UAEXPAVoopDesc@@PAI_N@Z 0808c250 f   objArrayKlass.obj
 0001:0008b250       ?contribute_scratch@Generation@@UAEXAAPAUScratchBlock@@PAV1@I@Z 0808c250 f   compactingPermGenGen.obj
 0001:0008b250       ?oop_iterate_m@ReceiverTypeData@@UAEXPAVOopClosure@@VMemRegion@@@Z 0808c250 f   methodDataOop.obj
 0001:0008b250       ?oop_verify_old_oop@Klass@@UAEXPAVoopDesc@@PAI_N@Z 0808c250 f   klass.obj
 0001:0008b250       ?oop_iterate_m@ProfileData@@UAEXPAVOopClosure@@VMemRegion@@@Z 0808c250 f   ciMethodData.obj
 0001:0008b250       ?oop_verify_old_oop@objArrayKlass@@UAEXPAVoopDesc@@PAPAV2@_N@Z 0808c250 f   objArrayKlass.obj
 0001:0008b250       ?oop_verify_old_oop@Klass@@UAEXPAVoopDesc@@PAPAV2@_N@Z 0808c250 f   klass.obj
 0001:0008b260       ?array_klass_impl@objArrayKlass@@MAEPAVklassOopDesc@@_NPAVThread@@@Z 0808c260 f   objArrayKlass.obj
 0001:0008b260       ?array_klass_impl@typeArrayKlass@@MAEPAVklassOopDesc@@_NPAVThread@@@Z 0808c260 f   typeArrayKlass.obj
 0001:0008b280       ?can_be_primary_super_slow@objArrayKlass@@UBE_NXZ 0808c280 f   objArrayKlass.obj
 0001:0008b2a0       ?compute_is_subtype_of@objArrayKlass@@UAE_NPAVklassOopDesc@@@Z 0808c2a0 f   objArrayKlass.obj
 0001:0008b2f0       ?initialize@objArrayKlass@@UAEXPAVThread@@@Z 0808c2f0 f   objArrayKlass.obj
 0001:0008b310       ?compute_modifier_flags@objArrayKlass@@UBEHPAVThread@@@Z 0808c310 f   objArrayKlass.obj
 0001:0008b360       ?conjoint_oops_atomic@Copy@@SAXPAPAVoopDesc@@0I@Z 0808c360 f i objArrayKlass.obj
 0001:0008b3b0       ?push_segment@?$Stack@VObjArrayTask@@@@IAEXXZ 0808c3b0 f i objArrayKlass.obj
 0001:0008b430       ??$do_copy@PAVoopDesc@@@objArrayKlass@@AAEXPAVarrayOopDesc@@PAPAVoopDesc@@01HPAVThread@@@Z 0808c430 f i objArrayKlass.obj
 0001:0008b5c0       ?push@?$GenericTaskQueue@VObjArrayTask@@$0BAAA@@@QAE_NVObjArrayTask@@@Z 0808c5c0 f i objArrayKlass.obj
 0001:0008b650       ?oop_size@objArrayKlass@@UBEHPAVoopDesc@@@Z 0808c650 f   objArrayKlass.obj
 0001:0008b690       ?copy_array@objArrayKlass@@UAEXPAVarrayOopDesc@@H0HHPAVThread@@@Z 0808c690 f   objArrayKlass.obj
 0001:0008b770       ?oop_oop_iterate_v@objArrayKlass@@UAEHPAVoopDesc@@PAVOopClosure@@@Z 0808c770 f   objArrayKlass.obj
 0001:0008b7e0       ?oop_oop_iterate_nv@objArrayKlass@@UAEHPAVoopDesc@@PAVScanClosure@@@Z 0808c7e0 f   objArrayKlass.obj
 0001:0008b840       ?oop_oop_iterate_nv@objArrayKlass@@UAEHPAVoopDesc@@PAVFastScanClosure@@@Z 0808c840 f   objArrayKlass.obj
 0001:0008b8a0       ?oop_oop_iterate_nv@objArrayKlass@@UAEHPAVoopDesc@@PAVFilteringClosure@@@Z 0808c8a0 f   objArrayKlass.obj
 0001:0008b910       ?oop_oop_iterate_nv@objArrayKlass@@UAEHPAVoopDesc@@PAVParScanWithBarrierClosure@@@Z 0808c910 f   objArrayKlass.obj
 0001:0008b980       ?oop_oop_iterate_nv@objArrayKlass@@UAEHPAVoopDesc@@PAVParScanWithoutBarrierClosure@@@Z 0808c980 f   objArrayKlass.obj
 0001:0008b9f0       ?oop_oop_iterate_nv@objArrayKlass@@UAEHPAVoopDesc@@PAVMarkRefsIntoAndScanClosure@@@Z 0808c9f0 f   objArrayKlass.obj
 0001:0008ba60       ?oop_oop_iterate_nv@objArrayKlass@@UAEHPAVoopDesc@@PAVPar_MarkRefsIntoAndScanClosure@@@Z 0808ca60 f   objArrayKlass.obj
 0001:0008bad0       ?oop_oop_iterate_nv@objArrayKlass@@UAEHPAVoopDesc@@PAVPushAndMarkClosure@@@Z 0808cad0 f   objArrayKlass.obj
 0001:0008bb40       ?oop_oop_iterate_nv@objArrayKlass@@UAEHPAVoopDesc@@PAVPar_PushAndMarkClosure@@@Z 0808cb40 f   objArrayKlass.obj
 0001:0008bbb0       ?oop_oop_iterate_nv@objArrayKlass@@UAEHPAVoopDesc@@PAVPushOrMarkClosure@@@Z 0808cbb0 f   objArrayKlass.obj
 0001:0008bc20       ?oop_oop_iterate_nv@objArrayKlass@@UAEHPAVoopDesc@@PAVPar_PushOrMarkClosure@@@Z 0808cc20 f   objArrayKlass.obj
 0001:0008bc90       ?oop_oop_iterate_nv@objArrayKlass@@UAEHPAVoopDesc@@PAVCMSKeepAliveClosure@@@Z 0808cc90 f   objArrayKlass.obj
 0001:0008bd00       ?oop_oop_iterate_nv@objArrayKlass@@UAEHPAVoopDesc@@PAVCMSInnerParMarkAndPushClosure@@@Z 0808cd00 f   objArrayKlass.obj
 0001:0008bd70       ?oop_oop_iterate_nv@objArrayKlass@@UAEHPAVoopDesc@@PAV?$G1ParCopyClosure@$0A@$01$0A@@@@Z 0808cd70 f   objArrayKlass.obj
 0001:0008bde0       ?oop_oop_iterate_nv@objArrayKlass@@UAEHPAVoopDesc@@PAVFilterIntoCSClosure@@@Z 0808cde0 f   objArrayKlass.obj
 0001:0008be80       ?oop_oop_iterate_nv@objArrayKlass@@UAEHPAVoopDesc@@PAVFilterOutOfRegionClosure@@@Z 0808ce80 f   objArrayKlass.obj
 0001:0008bef0       ?oop_oop_iterate_nv@objArrayKlass@@UAEHPAVoopDesc@@PAVFilterInHeapRegionAndIntoCSClosure@@@Z 0808cef0 f   objArrayKlass.obj
 0001:0008bf90       ?oop_oop_iterate_nv@objArrayKlass@@UAEHPAVoopDesc@@PAVFilterAndMarkInHeapRegionAndIntoCSClosure@@@Z 0808cf90 f   objArrayKlass.obj
 0001:0008c070       ?oop_oop_iterate_v_m@objArrayKlass@@UAEHPAVoopDesc@@PAVOopClosure@@VMemRegion@@@Z 0808d070 f   objArrayKlass.obj
 0001:0008c100       ?oop_oop_iterate_nv_m@objArrayKlass@@UAEHPAVoopDesc@@PAVScanClosure@@VMemRegion@@@Z 0808d100 f   objArrayKlass.obj
 0001:0008c170       ?oop_oop_iterate_nv_m@objArrayKlass@@UAEHPAVoopDesc@@PAVFastScanClosure@@VMemRegion@@@Z 0808d170 f   objArrayKlass.obj
 0001:0008c1e0       ?oop_oop_iterate_nv_m@objArrayKlass@@UAEHPAVoopDesc@@PAVFilteringClosure@@VMemRegion@@@Z 0808d1e0 f   objArrayKlass.obj
 0001:0008c260       ?oop_oop_iterate_nv_m@objArrayKlass@@UAEHPAVoopDesc@@PAVParScanWithBarrierClosure@@VMemRegion@@@Z 0808d260 f   objArrayKlass.obj
 0001:0008c2f0       ?oop_oop_iterate_nv_m@objArrayKlass@@UAEHPAVoopDesc@@PAVParScanWithoutBarrierClosure@@VMemRegion@@@Z 0808d2f0 f   objArrayKlass.obj
 0001:0008c380       ?oop_oop_iterate_nv_m@objArrayKlass@@UAEHPAVoopDesc@@PAVMarkRefsIntoAndScanClosure@@VMemRegion@@@Z 0808d380 f   objArrayKlass.obj
 0001:0008c410       ?oop_oop_iterate_nv_m@objArrayKlass@@UAEHPAVoopDesc@@PAVPar_MarkRefsIntoAndScanClosure@@VMemRegion@@@Z 0808d410 f   objArrayKlass.obj
 0001:0008c4a0       ?oop_oop_iterate_nv_m@objArrayKlass@@UAEHPAVoopDesc@@PAVPushAndMarkClosure@@VMemRegion@@@Z 0808d4a0 f   objArrayKlass.obj
 0001:0008c530       ?oop_oop_iterate_nv_m@objArrayKlass@@UAEHPAVoopDesc@@PAVPar_PushAndMarkClosure@@VMemRegion@@@Z 0808d530 f   objArrayKlass.obj
 0001:0008c5c0       ?oop_oop_iterate_nv_m@objArrayKlass@@UAEHPAVoopDesc@@PAVPushOrMarkClosure@@VMemRegion@@@Z 0808d5c0 f   objArrayKlass.obj
 0001:0008c650       ?oop_oop_iterate_nv_m@objArrayKlass@@UAEHPAVoopDesc@@PAVPar_PushOrMarkClosure@@VMemRegion@@@Z 0808d650 f   objArrayKlass.obj
 0001:0008c6e0       ?oop_oop_iterate_nv_m@objArrayKlass@@UAEHPAVoopDesc@@PAVCMSKeepAliveClosure@@VMemRegion@@@Z 0808d6e0 f   objArrayKlass.obj
 0001:0008c770       ?oop_oop_iterate_nv_m@objArrayKlass@@UAEHPAVoopDesc@@PAVCMSInnerParMarkAndPushClosure@@VMemRegion@@@Z 0808d770 f   objArrayKlass.obj
 0001:0008c800       ?oop_oop_iterate_nv_m@objArrayKlass@@UAEHPAVoopDesc@@PAV?$G1ParCopyClosure@$0A@$01$0A@@@VMemRegion@@@Z 0808d800 f   objArrayKlass.obj
 0001:0008c890       ?oop_oop_iterate_nv_m@objArrayKlass@@UAEHPAVoopDesc@@PAVFilterIntoCSClosure@@VMemRegion@@@Z 0808d890 f   objArrayKlass.obj
 0001:0008c940       ?oop_oop_iterate_nv_m@objArrayKlass@@UAEHPAVoopDesc@@PAVFilterOutOfRegionClosure@@VMemRegion@@@Z 0808d940 f   objArrayKlass.obj
 0001:0008c9c0       ?oop_oop_iterate_nv_m@objArrayKlass@@UAEHPAVoopDesc@@PAVFilterInHeapRegionAndIntoCSClosure@@VMemRegion@@@Z 0808d9c0 f   objArrayKlass.obj
 0001:0008ca70       ?oop_oop_iterate_nv_m@objArrayKlass@@UAEHPAVoopDesc@@PAVFilterAndMarkInHeapRegionAndIntoCSClosure@@VMemRegion@@@Z 0808da70 f   objArrayKlass.obj
 0001:0008cb60       ?oop_oop_iterate_range_nv@objArrayKlass@@QAEHPAVoopDesc@@PAVParScanWithBarrierClosure@@HH@Z 0808db60 f   objArrayKlass.obj
 0001:0008cc00       ?oop_oop_iterate_range_nv@objArrayKlass@@QAEHPAVoopDesc@@PAVParScanWithoutBarrierClosure@@HH@Z 0808dc00 f   objArrayKlass.obj
 0001:0008cca0       ?oop_adjust_pointers@objArrayKlass@@UAEHPAVoopDesc@@@Z 0808dca0 f   objArrayKlass.obj
 0001:0008cd40       ?oop_update_pointers@objArrayKlass@@UAEHPAVParCompactionManager@@PAVoopDesc@@@Z 0808dd40 f   objArrayKlass.obj
 0001:0008cdb0       ?oop_update_pointers@objArrayKlass@@UAEHPAVParCompactionManager@@PAVoopDesc@@PAVHeapWord@@2@Z 0808ddb0 f   objArrayKlass.obj
 0001:0008ce30       ?compute_secondary_supers@objArrayKlass@@UAEPAVobjArrayOopDesc@@HPAVThread@@@Z 0808de30 f   objArrayKlass.obj
 0001:0008cf20       ?oop_print_value_on@objArrayKlass@@UAEXPAVoopDesc@@PAVoutputStream@@@Z 0808df20 f   objArrayKlass.obj
 0001:0008cf70       ?oop_verify_on@objArrayKlass@@UAEXPAVoopDesc@@PAVoutputStream@@@Z 0808df70 f   objArrayKlass.obj
 0001:0008d000       ??$objarray_follow_contents@PAVoopDesc@@@objArrayKlass@@QAEXPAVoopDesc@@H@Z 0808e000 f i objArrayKlass.obj
 0001:0008d130       ?oop_follow_contents@objArrayKlass@@UAEXPAVoopDesc@@@Z 0808e130 f   objArrayKlass.obj
 0001:0008d160       ??$objarray_follow_contents@PAVoopDesc@@@objArrayKlass@@QAEXPAVParCompactionManager@@PAVoopDesc@@H@Z 0808e160 f i objArrayKlass.obj
 0001:0008d2e0       ?array_klass_impl@typeArrayKlass@@MAEPAVklassOopDesc@@_NHPAVThread@@@Z 0808e2e0 f   typeArrayKlass.obj
 0001:0008d2e0       ?array_klass_impl@objArrayKlass@@MAEPAVklassOopDesc@@_NHPAVThread@@@Z 0808e2e0 f   objArrayKlass.obj
 0001:0008d310       ?oop_follow_contents@objArrayKlass@@UAEXPAVParCompactionManager@@PAVoopDesc@@@Z 0808e310 f   objArrayKlass.obj
 0001:0008d340       ?oop_oop_iterate_nv@objArrayKlass@@UAEHPAVoopDesc@@PAVG1ParScanClosure@@@Z 0808e340 f   objArrayKlass.obj
 0001:0008d3b0       ?oop_oop_iterate_nv@objArrayKlass@@UAEHPAVoopDesc@@PAVG1ParPushHeapRSClosure@@@Z 0808e3b0 f   objArrayKlass.obj
 0001:0008d480       ?oop_oop_iterate_nv_m@objArrayKlass@@UAEHPAVoopDesc@@PAVG1ParScanClosure@@VMemRegion@@@Z 0808e480 f   objArrayKlass.obj
 0001:0008d510       ?oop_oop_iterate_nv_m@objArrayKlass@@UAEHPAVoopDesc@@PAVG1ParPushHeapRSClosure@@VMemRegion@@@Z 0808e510 f   objArrayKlass.obj
 0001:0008d610       ?oop_oop_iterate_range_nv@objArrayKlass@@QAEHPAVoopDesc@@PAVG1ParScanClosure@@HH@Z 0808e610 f   objArrayKlass.obj
 0001:0008d6b0       ?oop_push_contents@objArrayKlass@@UAEXPAVPSPromotionManager@@PAVoopDesc@@@Z 0808e6b0 f   objArrayKlass.obj
 0001:0008d700       ?allocate@objArrayKlass@@QAEPAVobjArrayOopDesc@@HPAVThread@@@Z 0808e700 f   objArrayKlass.obj
 0001:0008d7f0       ?multi_allocate@objArrayKlass@@UAEPAVoopDesc@@HPAHPAVThread@@@Z 0808e7f0 f   objArrayKlass.obj
 0001:0008d8f0       ?internal_name@objArrayKlassKlass@@UBEPBDXZ 0808e8f0 f   objArrayKlassKlass.obj
 0001:0008d900       ?oop_oop_iterate@objArrayKlassKlass@@UAEHPAVoopDesc@@PAVOopClosure@@@Z 0808e900 f   objArrayKlassKlass.obj
 0001:0008d940       ?oop_oop_iterate_m@objArrayKlassKlass@@UAEHPAVoopDesc@@PAVOopClosure@@VMemRegion@@@Z 0808e940 f   objArrayKlassKlass.obj
 0001:0008d9a0       ?oop_print_value_on@objArrayKlassKlass@@UAEXPAVoopDesc@@PAVoutputStream@@@Z 0808e9a0 f   objArrayKlassKlass.obj
 0001:0008d9d0       ?create_klass@objArrayKlassKlass@@SAPAVklassOopDesc@@PAVThread@@@Z 0808e9d0 f   objArrayKlassKlass.obj
 0001:0008da40       ?oop_adjust_pointers@objArrayKlassKlass@@UAEHPAVoopDesc@@@Z 0808ea40 f   objArrayKlassKlass.obj
 0001:0008dab0       ?oop_update_pointers@objArrayKlassKlass@@UAEHPAVParCompactionManager@@PAVoopDesc@@@Z 0808eab0 f   objArrayKlassKlass.obj
 0001:0008db10       ?oop_verify_on@objArrayKlassKlass@@UAEXPAVoopDesc@@PAVoutputStream@@@Z 0808eb10 f   objArrayKlassKlass.obj
 0001:0008dc30       ?oop_update_pointers@objArrayKlassKlass@@UAEHPAVParCompactionManager@@PAVoopDesc@@PAVHeapWord@@2@Z 0808ec30 f   objArrayKlassKlass.obj
 0001:0008dcb0       ?oop_follow_contents@objArrayKlassKlass@@UAEXPAVoopDesc@@@Z 0808ecb0 f   objArrayKlassKlass.obj
 0001:0008dcf0       ?allocate_objArray_klass_impl@objArrayKlassKlass@@CAPAVklassOopDesc@@VobjArrayKlassKlassHandle@@HVKlassHandle@@PAVThread@@@Z 0808ecf0 f   objArrayKlassKlass.obj
 0001:0008e0f0       ?allocate_objArray_klass@objArrayKlassKlass@@QAEPAVklassOopDesc@@HVKlassHandle@@PAVThread@@@Z 0808f0f0 f   objArrayKlassKlass.obj
 0001:0008e120       ?oop_follow_contents@objArrayKlassKlass@@UAEXPAVParCompactionManager@@PAVoopDesc@@@Z 0808f120 f   objArrayKlassKlass.obj
 0001:0008e160       ?allocate_system_objArray_klass@objArrayKlassKlass@@QAEPAVklassOopDesc@@PAVThread@@@Z 0808f160 f   objArrayKlassKlass.obj
 0001:0008e210       ?oop_iterate_range@objArrayOopDesc@@QAEHPAVParScanWithBarrierClosure@@HH@Z 0808f210 f   objArrayOop.obj
 0001:0008e230       ?oop_iterate_range@objArrayOopDesc@@QAEHPAVParScanWithoutBarrierClosure@@HH@Z 0808f230 f   objArrayOop.obj
 0001:0008e250       ?oop_iterate_range@objArrayOopDesc@@QAEHPAVG1ParScanClosure@@HH@Z 0808f250 f   objArrayOop.obj
 0001:0008e270       ?print_address_on@oopDesc@@QBEXPAVoutputStream@@@Z 0808f270 f   oop.obj
 0001:0008e2a0       ?print_on@oopDesc@@QBEXPAVoutputStream@@@Z 0808f2a0 f   oop.obj
 0001:0008e2e0       ?print@oopDesc@@QAEXXZ     0808f2e0 f   oop.obj
 0001:0008e320       ?print_value_on@oopDesc@@QBEXPAVoutputStream@@@Z 0808f320 f   oop.obj
 0001:0008e3a0       ?verify@oopDesc@@QAEXXZ    0808f3a0 f   oop.obj
 0001:0008e3c0       ?verify_old_oop@oopDesc@@QAEXPAPAV1@_N@Z 0808f3c0 f   oop.obj
 0001:0008e3f0       ?verify_old_oop@oopDesc@@QAEXPAI_N@Z 0808f3f0 f   oop.obj
 0001:0008e420       ?partially_loaded@oopDesc@@QAE_NXZ 0808f420 f   oop.obj
 0001:0008e440       ?set_partially_loaded@oopDesc@@QAEXXZ 0808f440 f   oop.obj
 0001:0008e460       ?slow_identity_hash@oopDesc@@QAEHXZ 0808f460 f   oop.obj
 0001:0008e4b0       ?do_oop@VerifyOopClosure@@UAEXPAPAVoopDesc@@@Z 0808f4b0 f   oop.obj
 0001:0008e4f0       ?do_oop@VerifyOopClosure@@UAEXPAI@Z 0808f4f0 f   oop.obj
 0001:0008e540       ?internal_name@symbolKlass@@UBEPBDXZ 0808f540 f   symbolKlass.obj
 0001:0008e550       ?oop_is_parsable@symbolKlass@@UBE_NPAVoopDesc@@@Z 0808f550 f   symbolKlass.obj
 0001:0008e580       ?oop_print_value_on@symbolKlass@@UAEXPAVoopDesc@@PAVoutputStream@@@Z 0808f580 f   symbolKlass.obj
 0001:0008e5e0       ?create_klass@symbolKlass@@SAPAVklassOopDesc@@PAVThread@@@Z 0808f5e0 f   symbolKlass.obj
 0001:0008e640       ?oop_size@symbolKlass@@UBEHPAVoopDesc@@@Z 0808f640 f   symbolKlass.obj
 0001:0008e640       ?oop_adjust_pointers@symbolKlass@@UAEHPAVoopDesc@@@Z 0808f640 f   symbolKlass.obj
 0001:0008e670       ?oop_oop_iterate@symbolKlass@@UAEHPAVoopDesc@@PAVOopClosure@@@Z 0808f670 f   symbolKlass.obj
 0001:0008e6a0       ?oop_oop_iterate_m@symbolKlass@@UAEHPAVoopDesc@@PAVOopClosure@@VMemRegion@@@Z 0808f6a0 f   symbolKlass.obj
 0001:0008e6d0       ?oop_update_pointers@symbolKlass@@UAEHPAVParCompactionManager@@PAVoopDesc@@@Z 0808f6d0 f   symbolKlass.obj
 0001:0008e700       ?oop_update_pointers@symbolKlass@@UAEHPAVParCompactionManager@@PAVoopDesc@@PAVHeapWord@@2@Z 0808f700 f   symbolKlass.obj
 0001:0008e730       ?allocate_symbols@symbolKlass@@QAE_NHPAPBDPAHPAPAVsymbolOopDesc@@PAVThread@@@Z 0808f730 f   symbolKlass.obj
 0001:0008e8f0       ?allocate_symbol@symbolKlass@@QAEPAVsymbolOopDesc@@PAEHPAVThread@@@Z 0808f8f0 f   symbolKlass.obj
 0001:0008e990       ?equals@symbolOopDesc@@QBE_NPBDH@Z 0808f990 f   symbolOop.obj
 0001:0008e9e0       ?starts_with@symbolOopDesc@@QBE_NPBDH@Z 0808f9e0 f   symbolOop.obj
 0001:0008ea30       ?index_of_at@symbolOopDesc@@QBEHHPBDH@Z 0808fa30 f   symbolOop.obj
 0001:0008ead0       ?as_C_string@symbolOopDesc@@QBEPADPADH@Z 0808fad0 f   symbolOop.obj
 0001:0008eb20       ?as_C_string@symbolOopDesc@@QBEPADXZ 0808fb20 f   symbolOop.obj
 0001:0008eb70       ?as_C_string_flexible_buffer@symbolOopDesc@@QBEPADPAVThread@@PADH@Z 0808fb70 f   symbolOop.obj
 0001:0008ebd0       ?print_symbol_on@symbolOopDesc@@QAEXPAVoutputStream@@@Z 0808fbd0 f   symbolOop.obj
 0001:0008ec50       ?as_unicode@symbolOopDesc@@QBEPAGAAH@Z 0808fc50 f   symbolOop.obj
 0001:0008eca0       ?as_klass_external_name@symbolOopDesc@@QBEPBDPADH@Z 0808fca0 f   symbolOop.obj
 0001:0008ecf0       ?as_klass_external_name@symbolOopDesc@@QBEPBDXZ 0808fcf0 f   symbolOop.obj
 0001:0008ed20       ?external_name@typeArrayKlass@@SAPBDW4BasicType@@@Z 0808fd20 f   typeArrayKlass.obj
 0001:0008edb0       ?internal_name@instanceKlass@@UBEPBDXZ 0808fdb0 f   instanceKlass.obj
 0001:0008edb0       ?internal_name@typeArrayKlass@@UBEPBDXZ 0808fdb0 f   typeArrayKlass.obj
 0001:0008edb0       ?internal_name@objArrayKlass@@UBEPBDXZ 0808fdb0 f   objArrayKlass.obj
 0001:0008edc0       ?object_size@typeArrayOopDesc@@CAHHH@Z 0808fdc0 f i typeArrayKlass.obj
 0001:0008ee10       ?compute_is_subtype_of@typeArrayKlass@@UAE_NPAVklassOopDesc@@@Z 0808fe10 f   typeArrayKlass.obj
 0001:0008ee50       ?copy_array@typeArrayKlass@@UAEXPAVarrayOopDesc@@H0HHPAVThread@@@Z 0808fe50 f   typeArrayKlass.obj
 0001:0008ef60       ?oop_size@typeArrayKlass@@UBEHPAVoopDesc@@@Z 0808ff60 f   typeArrayKlass.obj
 0001:0008ef60       ?oop_adjust_pointers@typeArrayKlass@@UAEHPAVoopDesc@@@Z 0808ff60 f   typeArrayKlass.obj
 0001:0008efc0       ?oop_oop_iterate@typeArrayKlass@@UAEHPAVoopDesc@@PAVOopClosure@@@Z 0808ffc0 f   typeArrayKlass.obj
 0001:0008f020       ?oop_oop_iterate_m@typeArrayKlass@@UAEHPAVoopDesc@@PAVOopClosure@@VMemRegion@@@Z 08090020 f   typeArrayKlass.obj
 0001:0008f080       ?oop_update_pointers@typeArrayKlass@@UAEHPAVParCompactionManager@@PAVoopDesc@@@Z 08090080 f   typeArrayKlass.obj
 0001:0008f0e0       ?oop_update_pointers@typeArrayKlass@@UAEHPAVParCompactionManager@@PAVoopDesc@@PAVHeapWord@@2@Z 080900e0 f   typeArrayKlass.obj
 0001:0008f140       ?create_klass@typeArrayKlass@@SAPAVklassOopDesc@@W4BasicType@@HPBDPAVThread@@@Z 08090140 f   typeArrayKlass.obj
 0001:0008f260       ?array_klass_impl@objArrayKlass@@CAPAVklassOopDesc@@VobjArrayKlassHandle@@_NHPAVThread@@@Z 08090260 f   objArrayKlass.obj
 0001:0008f260       ?array_klass_impl@typeArrayKlass@@CAPAVklassOopDesc@@VtypeArrayKlassHandle@@_NHPAVThread@@@Z 08090260 f   typeArrayKlass.obj
 0001:0008f3e0       ?large_typearray_allocate@CollectedHeap@@SAPAVoopDesc@@VKlassHandle@@HHPAVThread@@@Z 080903e0 f i typeArrayKlass.obj
 0001:0008f440       ?allocate@typeArrayKlass@@QAEPAVtypeArrayOopDesc@@HPAVThread@@@Z 08090440 f   typeArrayKlass.obj
 0001:0008f510       ?allocate_permanent@typeArrayKlass@@QAEPAVtypeArrayOopDesc@@HPAVThread@@@Z 08090510 f   typeArrayKlass.obj
 0001:0008f5c0       ?multi_allocate@typeArrayKlass@@UAEPAVoopDesc@@HPAHPAVThread@@@Z 080905c0 f   typeArrayKlass.obj
 0001:0008f5e0       ?internal_name@typeArrayKlassKlass@@UBEPBDXZ 080905e0 f   typeArrayKlassKlass.obj
 0001:0008f5f0       ?oop_print_value_on@typeArrayKlassKlass@@UAEXPAVoopDesc@@PAVoutputStream@@@Z 080905f0 f   typeArrayKlassKlass.obj
 0001:0008f770       ?create_klass@typeArrayKlassKlass@@SAPAVklassOopDesc@@PAVThread@@@Z 08090770 f   typeArrayKlassKlass.obj
 0001:0008f880       ?is_valid_method@CollectedHeap@@QBE_NPAVoopDesc@@@Z 08090880 f i forte.obj
 0001:0008fbc0       ??0vframeStreamForte@@QAE@PAVJavaThread@@Vframe@@_N@Z 08090bc0 f   forte.obj
 0001:0008fc30       ?forte_next@vframeStreamForte@@QAEXXZ 08090c30 f   forte.obj
 0001:0008ff00       _AsyncGetCallTrace         08090f00 f   forte.obj
 0001:000900c0       ?NewObject@JNIEnv_@@QAAPAV_jobject@@PAV_jclass@@PAU_jmethodID@@ZZ 080910c0 f i jni.obj
 0001:000900e0       ?jni_functions@@YAPAUJNINativeInterface_@@XZ 080910e0 f   jni.obj
 0001:00090100       ?jni_functions_nocheck@@YAPAUJNINativeInterface_@@XZ 08091100 f   jni.obj
 0001:00090110       _JNI_GetDefaultJavaVMInitArgs@4 08091110 f   jni.obj
 0001:00090150       _JNI_GetCreatedJavaVMs@12  08091150 f   jni.obj
 0001:00090190       ??0JavaCallArguments@@QAE@H@Z 08091190 f i jni.obj
 0001:00090200       ?lock_critical@GC_locker@@SAXPAVJavaThread@@@Z 08091200 f i jni.obj
 0001:00090250       ?klass_hash_ok@jfieldIDWorkaround@@CA_NPAVklassOopDesc@@PAU_jfieldID@@@Z 08091250 f   jni.obj
 0001:000902b0       _jni_GetSuperclass@8       080912b0 f   jni.obj
 0001:00090430       _jni_IsAssignableFrom@12   08091430 f   jni.obj
 0001:00090500       _jni_Throw@8               08091500 f   jni.obj
 0001:000905c0       _jni_ExceptionOccurred@4   080915c0 f   jni.obj
 0001:00090660       _jni_FatalError@8          08091660 f   jni.obj
 0001:00090740       _jni_PushLocalFrame@8      08091740 f   jni.obj
 0001:00090860       _jni_PopLocalFrame@8       08091860 f   jni.obj
 0001:00090960       _jni_NewGlobalRef@8        08091960 f   jni.obj
 0001:00090a30       _jni_DeleteGlobalRef@8     08091a30 f   jni.obj
 0001:00090ab0       _jni_DeleteLocalRef@8      08091ab0 f   jni.obj
 0001:00090b10       _jni_IsSameObject@12       08091b10 f   jni.obj
 0001:00090b80       _jni_NewLocalRef@8         08091b80 f   jni.obj
 0001:00090c40       _jni_EnsureLocalCapacity@8 08091c40 f   jni.obj
 0001:00090c90       _jni_GetObjectRefType@8    08091c90 f   jni.obj
 0001:00090d20       ?do_bool@JNI_ArgumentPusher@@UAEXXZ 08091d20 f i jni.obj
 0001:00090d30       ?do_char@JNI_ArgumentPusher@@UAEXXZ 08091d30 f i jni.obj
 0001:00090d40       ?do_short@JNI_ArgumentPusher@@UAEXXZ 08091d40 f i jni.obj
 0001:00090d50       ?do_byte@JNI_ArgumentPusher@@UAEXXZ 08091d50 f i jni.obj
 0001:00090d60       ?do_int@JNI_ArgumentPusher@@UAEXXZ 08091d60 f i jni.obj
 0001:00090d70       ?do_long@JNI_ArgumentPusher@@UAEXXZ 08091d70 f i jni.obj
 0001:00090d80       ?do_float@JNI_ArgumentPusher@@UAEXXZ 08091d80 f i jni.obj
 0001:00090d90       ?do_double@JNI_ArgumentPusher@@UAEXXZ 08091d90 f i jni.obj
 0001:00090da0       ?do_array@JNI_ArgumentPusher@@UAEXHH@Z 08091da0 f i jni.obj
 0001:00090da0       ?do_object@JNI_ArgumentPusher@@UAEXHH@Z 08091da0 f i jni.obj
 0001:00090db0       _jni_GetStaticByteField@12 08091db0 f   jni.obj
 0001:00090db0       _jni_GetStaticBooleanField@12 08091db0 f   jni.obj
 0001:00090e80       _jni_GetStaticShortField@12 08091e80 f   jni.obj
 0001:00090e80       _jni_GetStaticCharField@12 08091e80 f   jni.obj
 0001:00090f60       _jni_GetStaticIntField@12  08091f60 f   jni.obj
 0001:00091030       _jni_GetStaticLongField@12 08092030 f   jni.obj
 0001:00091110       _jni_GetStaticFloatField@12 08092110 f   jni.obj
 0001:000911e0       _jni_GetStaticDoubleField@12 080921e0 f   jni.obj
 0001:000912b0       _jni_SetStaticBooleanField@16 080922b0 f   jni.obj
 0001:00091390       _jni_SetStaticByteField@16 08092390 f   jni.obj
 0001:00091470       _jni_SetStaticCharField@16 08092470 f   jni.obj
 0001:00091550       _jni_SetStaticShortField@16 08092550 f   jni.obj
 0001:00091630       _jni_SetStaticIntField@16  08092630 f   jni.obj
 0001:00091710       _jni_SetStaticLongField@20 08092710 f   jni.obj
 0001:00091800       _jni_SetStaticFloatField@16 08092800 f   jni.obj
 0001:000918e0       _jni_SetStaticDoubleField@20 080928e0 f   jni.obj
 0001:000919c0       _jni_NewString@12          080929c0 f   jni.obj
 0001:00091ae0       _jni_GetStringLength@8     08092ae0 f   jni.obj
 0001:00091b40       _jni_ReleaseStringChars@12 08092b40 f   jni.obj
 0001:00091ba0       _jni_NewStringUTF@8        08092ba0 f   jni.obj
 0001:00091cc0       _jni_GetStringUTFLength@8  08092cc0 f   jni.obj
 0001:00091d80       _jni_GetStringUTFChars@12  08092d80 f   jni.obj
 0001:00091e70       _jni_ReleaseStringUTFChars@12 08092e70 f   jni.obj
 0001:00091eb0       _jni_NewBooleanArray@8     08092eb0 f   jni.obj
 0001:00091fd0       _jni_NewByteArray@8        08092fd0 f   jni.obj
 0001:000920f0       _jni_NewShortArray@8       080930f0 f   jni.obj
 0001:00092210       _jni_NewCharArray@8        08093210 f   jni.obj
 0001:00092330       _jni_NewIntArray@8         08093330 f   jni.obj
 0001:00092450       _jni_NewLongArray@8        08093450 f   jni.obj
 0001:00092570       _jni_NewFloatArray@8       08093570 f   jni.obj
 0001:00092690       _jni_NewDoubleArray@8      08093690 f   jni.obj
 0001:000927b0       _jni_MonitorEnter@8        080937b0 f   jni.obj
 0001:00092920       _jni_MonitorExit@8         08093920 f   jni.obj
 0001:00092a90       _jni_ReleasePrimitiveArrayCritical@16 08093a90 f   jni.obj
 0001:00092b80       _jni_ReleaseStringCritical@12 08093b80 f   jni.obj
 0001:00092c70       _jni_NewWeakGlobalRef@8    08093c70 f   jni.obj
 0001:00092d40       _jni_DeleteWeakGlobalRef@8 08093d40 f   jni.obj
 0001:00092df0       _jni_ExceptionCheck@4      08093df0 f   jni.obj
 0001:00092e50       _jni_GetVersion@4          08093e50 f   jni.obj
 0001:00092e80       _jni_GetJavaVM@8           08093e80 f   jni.obj
 0001:00092ee0       ?copy_jni_function_table@@YAXPBUJNINativeInterface_@@@Z 08093ee0 f   jni.obj
 0001:00092f20       ?quicken_jni_functions@@YAXXZ 08093f20 f   jni.obj
 0001:00093190       _jni_AttachCurrentThread@12 08094190 f   jni.obj
 0001:000931c0       _jni_AttachCurrentThreadAsDaemon@12 080941c0 f   jni.obj
 0001:000931f0       ?is_valid_jfieldID@jfieldIDWorkaround@@SA_NPAVklassOopDesc@@PAU_jfieldID@@@Z 080941f0 f   jni.obj
 0001:00093260       _jni_DefineClass@20        08094260 f   jni.obj
 0001:00093530       _jni_FindClass@8           08094530 f   jni.obj
 0001:000937e0       _jni_ToReflectedMethod@16  080947e0 f   jni.obj
 0001:00093970       _jni_ThrowNew@12           08094970 f   jni.obj
 0001:00093a80       _jni_ExceptionDescribe@4   08094a80 f   jni.obj
 0001:00093ca0       _jni_ExceptionClear@4      08094ca0 f   jni.obj
 0001:00093d20       ?iterate@JNI_ArgumentPusherVaArg@@UAEX_K@Z 08094d20 f i jni.obj
 0001:00093e20       ?get_short@JNI_ArgumentPusherVaArg@@MAEXXZ 08094e20 f i jni.obj
 0001:00093e20       ?get_int@JNI_ArgumentPusherVaArg@@MAEXXZ 08094e20 f i jni.obj
 0001:00093e20       ?get_char@JNI_ArgumentPusherVaArg@@MAEXXZ 08094e20 f i jni.obj
 0001:00093e20       ?get_byte@JNI_ArgumentPusherVaArg@@MAEXXZ 08094e20 f i jni.obj
 0001:00093e20       ?get_bool@JNI_ArgumentPusherVaArg@@MAEXXZ 08094e20 f i jni.obj
 0001:00093e50       ?get_long@JNI_ArgumentPusherVaArg@@MAEXXZ 08094e50 f i jni.obj
 0001:00093e70       ?push_long@JavaCallArguments@@QAEX_J@Z 08094e70 f i jni.obj
 0001:00093eb0       ?get_float@JNI_ArgumentPusherVaArg@@MAEXXZ 08094eb0 f i jni.obj
 0001:00093ee0       ?get_double@JNI_ArgumentPusherVaArg@@MAEXXZ 08094ee0 f i jni.obj
 0001:00093f00       ?push_double@JavaCallArguments@@QAEXN@Z 08094f00 f i jni.obj
 0001:00093f40       ?get_object@JNI_ArgumentPusherVaArg@@MAEXXZ 08094f40 f i jni.obj
 0001:00093f70       ?iterate@JNI_ArgumentPusherArray@@UAEX_K@Z 08094f70 f i jni.obj
 0001:000940d0       ?get_bool@JNI_ArgumentPusherArray@@MAEXXZ 080950d0 f i jni.obj
 0001:00094100       ?get_char@JNI_ArgumentPusherArray@@MAEXXZ 08095100 f i jni.obj
 0001:00094130       ?get_short@JNI_ArgumentPusherArray@@MAEXXZ 08095130 f i jni.obj
 0001:00094160       ?get_byte@JNI_ArgumentPusherArray@@MAEXXZ 08095160 f i jni.obj
 0001:00094190       ?get_int@JNI_ArgumentPusherArray@@MAEXXZ 08095190 f i jni.obj
 0001:000941c0       ?get_long@JNI_ArgumentPusherArray@@MAEXXZ 080951c0 f i jni.obj
 0001:00094210       ?get_float@JNI_ArgumentPusherArray@@MAEXXZ 08095210 f i jni.obj
 0001:00094240       ?get_double@JNI_ArgumentPusherArray@@MAEXXZ 08095240 f i jni.obj
 0001:00094290       ?get_object@JNI_ArgumentPusherArray@@MAEXXZ 08095290 f i jni.obj
 0001:00094650       _jni_AllocObject@8         08095650 f   jni.obj
 0001:00094760       _jni_NewObjectA@16         08095760 f   jni.obj
 0001:00094920       _jni_NewObjectV@16         08095920 f   jni.obj
 0001:00094ae0       _jni_NewObject             08095ae0 f   jni.obj
 0001:00094ca0       _jni_GetObjectClass@8      08095ca0 f   jni.obj
 0001:00094d60       _jni_IsInstanceOf@12       08095d60 f   jni.obj
 0001:00094e00       _jni_CallBooleanMethod     08095e00 f   jni.obj
 0001:00094f50       _jni_CallBooleanMethodV@16 08095f50 f   jni.obj
 0001:000950b0       _jni_CallBooleanMethodA@16 080960b0 f   jni.obj
 0001:00095210       _jni_CallByteMethod        08096210 f   jni.obj
 0001:00095360       _jni_CallByteMethodV@16    08096360 f   jni.obj
 0001:000954c0       _jni_CallByteMethodA@16    080964c0 f   jni.obj
 0001:00095620       _jni_CallCharMethod        08096620 f   jni.obj
 0001:00095770       _jni_CallCharMethodV@16    08096770 f   jni.obj
 0001:000958d0       _jni_CallCharMethodA@16    080968d0 f   jni.obj
 0001:00095a30       _jni_CallShortMethod       08096a30 f   jni.obj
 0001:00095b80       _jni_CallShortMethodV@16   08096b80 f   jni.obj
 0001:00095ce0       _jni_CallShortMethodA@16   08096ce0 f   jni.obj
 0001:00095e40       _jni_CallObjectMethod      08096e40 f   jni.obj
 0001:00095f90       _jni_CallObjectMethodV@16  08096f90 f   jni.obj
 0001:000960f0       _jni_CallObjectMethodA@16  080970f0 f   jni.obj
 0001:00096250       _jni_CallIntMethod         08097250 f   jni.obj
 0001:000963a0       _jni_CallIntMethodV@16     080973a0 f   jni.obj
 0001:00096500       _jni_CallIntMethodA@16     08097500 f   jni.obj
 0001:00096660       _jni_CallLongMethod        08097660 f   jni.obj
 0001:000967c0       _jni_CallLongMethodV@16    080977c0 f   jni.obj
 0001:00096920       _jni_CallLongMethodA@16    08097920 f   jni.obj
 0001:00096a80       _jni_CallFloatMethod       08097a80 f   jni.obj
 0001:00096bd0       _jni_CallFloatMethodV@16   08097bd0 f   jni.obj
 0001:00096d30       _jni_CallFloatMethodA@16   08097d30 f   jni.obj
 0001:00096e90       _jni_CallDoubleMethod      08097e90 f   jni.obj
 0001:00096fe0       _jni_CallDoubleMethodV@16  08097fe0 f   jni.obj
 0001:00097140       _jni_CallDoubleMethodA@16  08098140 f   jni.obj
 0001:000972a0       _jni_CallVoidMethod        080982a0 f   jni.obj
 0001:000973a0       _jni_CallVoidMethodV@16    080983a0 f   jni.obj
 0001:000974a0       _jni_CallVoidMethodA@16    080984a0 f   jni.obj
 0001:000975a0       _jni_CallNonvirtualBooleanMethod 080985a0 f   jni.obj
 0001:000976f0       _jni_CallNonvirtualBooleanMethodV@20 080986f0 f   jni.obj
 0001:00097850       _jni_CallNonvirtualBooleanMethodA@20 08098850 f   jni.obj
 0001:000979b0       _jni_CallNonvirtualByteMethod 080989b0 f   jni.obj
 0001:00097b00       _jni_CallNonvirtualByteMethodV@20 08098b00 f   jni.obj
 0001:00097c60       _jni_CallNonvirtualByteMethodA@20 08098c60 f   jni.obj
 0001:00097dc0       _jni_CallNonvirtualCharMethod 08098dc0 f   jni.obj
 0001:00097f10       _jni_CallNonvirtualCharMethodV@20 08098f10 f   jni.obj
 0001:00098070       _jni_CallNonvirtualCharMethodA@20 08099070 f   jni.obj
 0001:000981d0       _jni_CallNonvirtualShortMethod 080991d0 f   jni.obj
 0001:00098320       _jni_CallNonvirtualShortMethodV@20 08099320 f   jni.obj
 0001:00098480       _jni_CallNonvirtualShortMethodA@20 08099480 f   jni.obj
 0001:000985e0       _jni_CallNonvirtualObjectMethod 080995e0 f   jni.obj
 0001:00098730       _jni_CallNonvirtualObjectMethodV@20 08099730 f   jni.obj
 0001:00098890       _jni_CallNonvirtualObjectMethodA@20 08099890 f   jni.obj
 0001:000989f0       _jni_CallNonvirtualIntMethod 080999f0 f   jni.obj
 0001:00098b40       _jni_CallNonvirtualIntMethodV@20 08099b40 f   jni.obj
 0001:00098ca0       _jni_CallNonvirtualIntMethodA@20 08099ca0 f   jni.obj
 0001:00098e00       _jni_CallNonvirtualLongMethod 08099e00 f   jni.obj
 0001:00098f60       _jni_CallNonvirtualLongMethodV@20 08099f60 f   jni.obj
 0001:000990c0       _jni_CallNonvirtualLongMethodA@20 0809a0c0 f   jni.obj
 0001:00099220       _jni_CallNonvirtualFloatMethod 0809a220 f   jni.obj
 0001:00099370       _jni_CallNonvirtualFloatMethodV@20 0809a370 f   jni.obj
 0001:000994d0       _jni_CallNonvirtualFloatMethodA@20 0809a4d0 f   jni.obj
 0001:00099630       _jni_CallNonvirtualDoubleMethod 0809a630 f   jni.obj
 0001:00099780       _jni_CallNonvirtualDoubleMethodV@20 0809a780 f   jni.obj
 0001:000998e0       _jni_CallNonvirtualDoubleMethodA@20 0809a8e0 f   jni.obj
 0001:00099a40       _jni_CallNonvirtualVoidMethod 0809aa40 f   jni.obj
 0001:00099b40       _jni_CallNonvirtualVoidMethodV@20 0809ab40 f   jni.obj
 0001:00099c40       _jni_CallNonvirtualVoidMethodA@20 0809ac40 f   jni.obj
 0001:00099d40       _jni_CallStaticBooleanMethod 0809ad40 f   jni.obj
 0001:00099e90       _jni_CallStaticBooleanMethodV@16 0809ae90 f   jni.obj
 0001:00099fe0       _jni_CallStaticBooleanMethodA@16 0809afe0 f   jni.obj
 0001:0009a130       _jni_CallStaticByteMethod  0809b130 f   jni.obj
 0001:0009a280       _jni_CallStaticByteMethodV@16 0809b280 f   jni.obj
 0001:0009a3d0       _jni_CallStaticByteMethodA@16 0809b3d0 f   jni.obj
 0001:0009a520       _jni_CallStaticCharMethod  0809b520 f   jni.obj
 0001:0009a670       _jni_CallStaticCharMethodV@16 0809b670 f   jni.obj
 0001:0009a7c0       _jni_CallStaticCharMethodA@16 0809b7c0 f   jni.obj
 0001:0009a910       _jni_CallStaticShortMethod 0809b910 f   jni.obj
 0001:0009aa60       _jni_CallStaticShortMethodV@16 0809ba60 f   jni.obj
 0001:0009abb0       _jni_CallStaticShortMethodA@16 0809bbb0 f   jni.obj
 0001:0009ad00       _jni_CallStaticObjectMethod 0809bd00 f   jni.obj
 0001:0009ae50       _jni_CallStaticObjectMethodV@16 0809be50 f   jni.obj
 0001:0009afa0       _jni_CallStaticObjectMethodA@16 0809bfa0 f   jni.obj
 0001:0009b0f0       _jni_CallStaticIntMethod   0809c0f0 f   jni.obj
 0001:0009b240       _jni_CallStaticIntMethodV@16 0809c240 f   jni.obj
 0001:0009b390       _jni_CallStaticIntMethodA@16 0809c390 f   jni.obj
 0001:0009b4e0       _jni_CallStaticLongMethod  0809c4e0 f   jni.obj
 0001:0009b630       _jni_CallStaticLongMethodV@16 0809c630 f   jni.obj
 0001:0009b790       _jni_CallStaticLongMethodA@16 0809c790 f   jni.obj
 0001:0009b8f0       _jni_CallStaticFloatMethod 0809c8f0 f   jni.obj
 0001:0009ba40       _jni_CallStaticFloatMethodV@16 0809ca40 f   jni.obj
 0001:0009bba0       _jni_CallStaticFloatMethodA@16 0809cba0 f   jni.obj
 0001:0009bd00       _jni_CallStaticDoubleMethod 0809cd00 f   jni.obj
 0001:0009be50       _jni_CallStaticDoubleMethodV@16 0809ce50 f   jni.obj
 0001:0009bfb0       _jni_CallStaticDoubleMethodA@16 0809cfb0 f   jni.obj
 0001:0009c110       _jni_CallStaticVoidMethod  0809d110 f   jni.obj
 0001:0009c210       _jni_CallStaticVoidMethodV@16 0809d210 f   jni.obj
 0001:0009c310       _jni_CallStaticVoidMethodA@16 0809d310 f   jni.obj
 0001:0009c410       _jni_GetStaticFieldID@16   0809d410 f   jni.obj
 0001:0009c630       _jni_GetStaticObjectField@12 0809d630 f   jni.obj
 0001:0009c710       _jni_GetArrayLength@8      0809d710 f   jni.obj
 0001:0009cbb0       _jni_RegisterNatives@16    0809dbb0 f   jni.obj
 0001:0009cf20       _jni_GetStringUTFRegion@20 0809df20 f   jni.obj
 0001:0009d120       _lookupDirectBufferClasses@4 0809e120 f   jni.obj
 0001:0009d480       _jni_NewDirectByteBuffer@16 0809e480 f   jni.obj
 0001:0009d4f0       _jni_GetDirectBufferAddress@8 0809e4f0 f   jni.obj
 0001:0009d570       _jni_GetDirectBufferCapacity@8 0809e570 f   jni.obj
 0001:0009d600       _JNI_CreateJavaVM@12       0809e600 f   jni.obj
 0001:0009d6e0       _jni_DestroyJavaVM@4       0809e6e0 f   jni.obj
 0001:0009d770       _jni_DetachCurrentThread@4 0809e770 f   jni.obj
 0001:0009d7e0       _jni_GetEnv@12             0809e7e0 f   jni.obj
 0001:0009d900       _jni_FromReflectedMethod@8 0809e900 f   jni.obj
 0001:0009dc30       _jni_GetMethodID@16        0809ec30 f   jni.obj
 0001:0009dcf0       _jni_GetStaticMethodID@16  0809ecf0 f   jni.obj
 0001:0009ddb0       _jni_GetFieldID@16         0809edb0 f   jni.obj
 0001:0009dfd0       _jni_GetObjectField@12     0809efd0 f   jni.obj
 0001:0009e0b0       _jni_GetBooleanField@12    0809f0b0 f   jni.obj
 0001:0009e0b0       _jni_GetByteField@12       0809f0b0 f   jni.obj
 0001:0009e130       _jni_GetShortField@12      0809f130 f   jni.obj
 0001:0009e130       _jni_GetCharField@12       0809f130 f   jni.obj
 0001:0009e1b0       _jni_GetIntField@12        0809f1b0 f   jni.obj
 0001:0009e230       _jni_GetLongField@12       0809f230 f   jni.obj
 0001:0009e2c0       _jni_GetFloatField@12      0809f2c0 f   jni.obj
 0001:0009e340       _jni_GetDoubleField@12     0809f340 f   jni.obj
 0001:0009e3d0       ?jni_GetBooleanField_addr@@YAPAEXZ 0809f3d0 f   jni.obj
 0001:0009e3d0       ?jni_GetByteField_addr@@YAPAEXZ 0809f3d0 f   jni.obj
 0001:0009e3e0       ?jni_GetCharField_addr@@YAPAEXZ 0809f3e0 f   jni.obj
 0001:0009e3e0       ?jni_GetShortField_addr@@YAPAEXZ 0809f3e0 f   jni.obj
 0001:0009e3f0       ?jni_GetIntField_addr@@YAPAEXZ 0809f3f0 f   jni.obj
 0001:0009e400       ?jni_GetLongField_addr@@YAPAEXZ 0809f400 f   jni.obj
 0001:0009e410       ?jni_GetFloatField_addr@@YAPAEXZ 0809f410 f   jni.obj
 0001:0009e420       ?jni_GetDoubleField_addr@@YAPAEXZ 0809f420 f   jni.obj
 0001:0009e430       _jni_SetBooleanField@16    0809f430 f   jni.obj
 0001:0009e4c0       _jni_SetByteField@16       0809f4c0 f   jni.obj
 0001:0009e550       _jni_SetCharField@16       0809f550 f   jni.obj
 0001:0009e5f0       _jni_SetShortField@16      0809f5f0 f   jni.obj
 0001:0009e690       _jni_SetIntField@16        0809f690 f   jni.obj
 0001:0009e720       _jni_SetLongField@20       0809f720 f   jni.obj
 0001:0009e7c0       _jni_SetFloatField@16      0809f7c0 f   jni.obj
 0001:0009e850       _jni_SetDoubleField@20     0809f850 f   jni.obj
 0001:0009e8e0       _jni_ToReflectedField@16   0809f8e0 f   jni.obj
 0001:0009ea30       _jni_FromReflectedField@8  0809fa30 f   jni.obj
 0001:0009ec30       _jni_GetStringChars@12     0809fc30 f   jni.obj
 0001:0009ed20       _jni_GetBooleanArrayElements@12 0809fd20 f   jni.obj
 0001:0009ee10       _jni_GetByteArrayElements@12 0809fe10 f   jni.obj
 0001:0009ef00       _jni_GetShortArrayElements@12 0809ff00 f   jni.obj
 0001:0009f000       _jni_GetCharArrayElements@12 080a0000 f   jni.obj
 0001:0009f100       _jni_GetIntArrayElements@12 080a0100 f   jni.obj
 0001:0009f200       _jni_GetLongArrayElements@12 080a0200 f   jni.obj
 0001:0009f300       _jni_GetFloatArrayElements@12 080a0300 f   jni.obj
 0001:0009f400       _jni_GetDoubleArrayElements@12 080a0400 f   jni.obj
 0001:0009f500       _jni_ReleaseBooleanArrayElements@16 080a0500 f   jni.obj
 0001:0009f500       _jni_ReleaseByteArrayElements@16 080a0500 f   jni.obj
 0001:0009f590       _jni_ReleaseShortArrayElements@16 080a0590 f   jni.obj
 0001:0009f590       _jni_ReleaseCharArrayElements@16 080a0590 f   jni.obj
 0001:0009f630       _jni_ReleaseDoubleArrayElements@16 080a0630 f   jni.obj
 0001:0009f630       _jni_ReleaseLongArrayElements@16 080a0630 f   jni.obj
 0001:0009f6c0       _jni_ReleaseIntArrayElements@16 080a06c0 f   jni.obj
 0001:0009f6c0       _jni_ReleaseFloatArrayElements@16 080a06c0 f   jni.obj
 0001:0009f750       _jni_GetBooleanArrayRegion@20 080a0750 f   jni.obj
 0001:0009f870       _jni_GetByteArrayRegion@20 080a0870 f   jni.obj
 0001:0009f990       _jni_GetShortArrayRegion@20 080a0990 f   jni.obj
 0001:0009fab0       _jni_GetCharArrayRegion@20 080a0ab0 f   jni.obj
 0001:0009fbd0       _jni_GetIntArrayRegion@20  080a0bd0 f   jni.obj
 0001:0009fcf0       _jni_GetLongArrayRegion@20 080a0cf0 f   jni.obj
 0001:0009fe10       _jni_GetFloatArrayRegion@20 080a0e10 f   jni.obj
 0001:0009ff30       _jni_GetDoubleArrayRegion@20 080a0f30 f   jni.obj
 0001:000a0050       _jni_SetBooleanArrayRegion@20 080a1050 f   jni.obj
 0001:000a0170       _jni_SetByteArrayRegion@20 080a1170 f   jni.obj
 0001:000a0290       _jni_SetShortArrayRegion@20 080a1290 f   jni.obj
 0001:000a03b0       _jni_SetCharArrayRegion@20 080a13b0 f   jni.obj
 0001:000a04d0       _jni_SetIntArrayRegion@20  080a14d0 f   jni.obj
 0001:000a05f0       _jni_SetLongArrayRegion@20 080a15f0 f   jni.obj
 0001:000a0710       _jni_SetFloatArrayRegion@20 080a1710 f   jni.obj
 0001:000a0830       _jni_SetDoubleArrayRegion@20 080a1830 f   jni.obj
 0001:000a0950       _jni_GetStringRegion@20    080a1950 f   jni.obj
 0001:000a0a80       _jni_GetPrimitiveArrayCritical@12 080a1a80 f   jni.obj
 0001:000a0b70       _jni_GetStringCritical@12  080a1b70 f   jni.obj
 0001:000a0c60       _jni_SetObjectField@16     080a1c60 f   jni.obj
 0001:000a0d00       _jni_SetStaticObjectField@16 080a1d00 f   jni.obj
 0001:000a0df0       _jni_NewObjectArray@16     080a1df0 f   jni.obj
 0001:000a1020       _jni_GetObjectArrayElement@12 080a2020 f   jni.obj
 0001:000a1160       _jni_SetObjectArrayElement@16 080a2160 f   jni.obj
 0001:000a12c0       _jni_UnregisterNatives@8   080a22c0 f   jni.obj
 0001:000a1400       ?jni_functions_check@@YAPAUJNINativeInterface_@@XZ 080a2400 f   jniCheck.obj
 0001:000a1430       ?resolve_external_guard@JNIHandles@@SAPAVoopDesc@@PAV_jobject@@@Z 080a2430 f i jniCheck.obj
 0001:000a1580       ?validate_handle@jniCheck@@SAPAVoopDesc@@PAVJavaThread@@PAV_jobject@@@Z 080a2580 f   jniCheck.obj
 0001:000a15f0       ?validate_object@jniCheck@@SAPAVoopDesc@@PAVJavaThread@@PAV_jobject@@@Z 080a25f0 f   jniCheck.obj
 0001:000a1650       ?validate_class_descriptor@jniCheck@@SAXPAVJavaThread@@PBD@Z 080a2650 f   jniCheck.obj
 0001:000a16b0       ?validate_throwable_klass@jniCheck@@SAXPAVJavaThread@@PAVklassOopDesc@@@Z 080a26b0 f   jniCheck.obj
 0001:000a1710       _checked_jni_DefineClass@20 080a2710 f   jniCheck.obj
 0001:000a17d0       _checked_jni_FindClass@8   080a27d0 f   jniCheck.obj
 0001:000a1890       _checked_jni_FromReflectedMethod@8 080a2890 f   jniCheck.obj
 0001:000a1950       _checked_jni_FromReflectedField@8 080a2950 f   jniCheck.obj
 0001:000a1a10       _checked_jni_ExceptionOccurred@4 080a2a10 f   jniCheck.obj
 0001:000a1ac0       _checked_jni_ExceptionDescribe@4 080a2ac0 f   jniCheck.obj
 0001:000a1b70       _checked_jni_ExceptionClear@4 080a2b70 f   jniCheck.obj
 0001:000a1c20       _checked_jni_FatalError@8  080a2c20 f   jniCheck.obj
 0001:000a1cc0       _checked_jni_PushLocalFrame@8 080a2cc0 f   jniCheck.obj
 0001:000a1dc0       _checked_jni_PopLocalFrame@8 080a2dc0 f   jniCheck.obj
 0001:000a1e80       _checked_jni_NewGlobalRef@8 080a2e80 f   jniCheck.obj
 0001:000a1f40       _checked_jni_DeleteGlobalRef@8 080a2f40 f   jniCheck.obj
 0001:000a2050       _checked_jni_DeleteLocalRef@8 080a3050 f   jniCheck.obj
 0001:000a2150       _checked_jni_IsSameObject@12 080a3150 f   jniCheck.obj
 0001:000a2260       _checked_jni_NewLocalRef@8 080a3260 f   jniCheck.obj
 0001:000a2320       _checked_jni_EnsureLocalCapacity@8 080a3320 f   jniCheck.obj
 0001:000a2400       _checked_jni_GetObjectClass@8 080a3400 f   jniCheck.obj
 0001:000a24c0       _checked_jni_NewString@12  080a34c0 f   jniCheck.obj
 0001:000a2560       _checked_jni_NewStringUTF@8 080a3560 f   jniCheck.obj
 0001:000a2600       _checked_jni_NewObjectArray@16 080a3600 f   jniCheck.obj
 0001:000a26b0       _checked_jni_NewBooleanArray@8 080a36b0 f   jniCheck.obj
 0001:000a2750       _checked_jni_NewByteArray@8 080a3750 f   jniCheck.obj
 0001:000a27f0       _checked_jni_NewShortArray@8 080a37f0 f   jniCheck.obj
 0001:000a2890       _checked_jni_NewCharArray@8 080a3890 f   jniCheck.obj
 0001:000a2930       _checked_jni_NewIntArray@8 080a3930 f   jniCheck.obj
 0001:000a29d0       _checked_jni_NewLongArray@8 080a39d0 f   jniCheck.obj
 0001:000a2a70       _checked_jni_NewFloatArray@8 080a3a70 f   jniCheck.obj
 0001:000a2b10       _checked_jni_NewDoubleArray@8 080a3b10 f   jniCheck.obj
 0001:000a2bb0       _checked_jni_RegisterNatives@16 080a3bb0 f   jniCheck.obj
 0001:000a2c60       _checked_jni_UnregisterNatives@8 080a3c60 f   jniCheck.obj
 0001:000a2d00       _checked_jni_MonitorEnter@8 080a3d00 f   jniCheck.obj
 0001:000a2dc0       _checked_jni_MonitorExit@8 080a3dc0 f   jniCheck.obj
 0001:000a2ea0       _checked_jni_GetJavaVM@8   080a3ea0 f   jniCheck.obj
 0001:000a2f40       _checked_jni_NewWeakGlobalRef@8 080a3f40 f   jniCheck.obj
 0001:000a3010       _checked_jni_DeleteWeakGlobalRef@8 080a4010 f   jniCheck.obj
 0001:000a30c0       _checked_jni_ExceptionCheck@4 080a40c0 f   jniCheck.obj
 0001:000a3180       _checked_jni_NewDirectByteBuffer@16 080a4180 f   jniCheck.obj
 0001:000a3230       _checked_jni_GetDirectBufferAddress@8 080a4230 f   jniCheck.obj
 0001:000a32d0       _checked_jni_GetDirectBufferCapacity@8 080a42d0 f   jniCheck.obj
 0001:000a3380       _checked_jni_GetObjectRefType@8 080a4380 f   jniCheck.obj
 0001:000a3440       _checked_jni_GetVersion@4  080a4440 f   jniCheck.obj
 0001:000a3770       ?validate_class@jniCheck@@SAPAVklassOopDesc@@PAVJavaThread@@PAV_jclass@@_N@Z 080a4770 f   jniCheck.obj
 0001:000a3860       _checked_jni_GetSuperclass@8 080a4860 f   jniCheck.obj
 0001:000a3920       _checked_jni_IsAssignableFrom@12 080a4920 f   jniCheck.obj
 0001:000a39f0       _checked_jni_ToReflectedField@16 080a49f0 f   jniCheck.obj
 0001:000a3ab0       _checked_jni_Throw@8       080a4ab0 f   jniCheck.obj
 0001:000a3ba0       _checked_jni_ThrowNew@12   080a4ba0 f   jniCheck.obj
 0001:000a3c60       _checked_jni_AllocObject@8 080a4c60 f   jniCheck.obj
 0001:000a3d20       _checked_jni_IsInstanceOf@12 080a4d20 f   jniCheck.obj
 0001:000a3df0       _checked_jni_GetMethodID@16 080a4df0 f   jniCheck.obj
 0001:000a3ec0       _checked_jni_GetFieldID@16 080a4ec0 f   jniCheck.obj
 0001:000a3f90       _checked_jni_GetObjectField@12 080a4f90 f   jniCheck.obj
 0001:000a4050       _checked_jni_GetBooleanField@12 080a5050 f   jniCheck.obj
 0001:000a4110       _checked_jni_GetByteField@12 080a5110 f   jniCheck.obj
 0001:000a41d0       _checked_jni_GetShortField@12 080a51d0 f   jniCheck.obj
 0001:000a42a0       _checked_jni_GetCharField@12 080a52a0 f   jniCheck.obj
 0001:000a4370       _checked_jni_GetIntField@12 080a5370 f   jniCheck.obj
 0001:000a4430       _checked_jni_GetLongField@12 080a5430 f   jniCheck.obj
 0001:000a4500       _checked_jni_GetFloatField@12 080a5500 f   jniCheck.obj
 0001:000a45d0       _checked_jni_GetDoubleField@12 080a55d0 f   jniCheck.obj
 0001:000a46a0       _checked_jni_SetObjectField@16 080a56a0 f   jniCheck.obj
 0001:000a4770       _checked_jni_SetBooleanField@16 080a5770 f   jniCheck.obj
 0001:000a4840       _checked_jni_SetByteField@16 080a5840 f   jniCheck.obj
 0001:000a4910       _checked_jni_SetShortField@16 080a5910 f   jniCheck.obj
 0001:000a49e0       _checked_jni_SetCharField@16 080a59e0 f   jniCheck.obj
 0001:000a4ab0       _checked_jni_SetIntField@16 080a5ab0 f   jniCheck.obj
 0001:000a4b80       _checked_jni_SetLongField@20 080a5b80 f   jniCheck.obj
 0001:000a4c50       _checked_jni_SetFloatField@16 080a5c50 f   jniCheck.obj
 0001:000a4d20       _checked_jni_SetDoubleField@20 080a5d20 f   jniCheck.obj
 0001:000a4df0       _checked_jni_GetStaticMethodID@16 080a5df0 f   jniCheck.obj
 0001:000a4ec0       _checked_jni_GetStaticFieldID@16 080a5ec0 f   jniCheck.obj
 0001:000a4f90       _checked_jni_GetStringLength@8 080a5f90 f   jniCheck.obj
 0001:000a5090       _checked_jni_GetStringChars@12 080a6090 f   jniCheck.obj
 0001:000a5200       _checked_jni_ReleaseStringChars@12 080a6200 f   jniCheck.obj
 0001:000a5350       _checked_jni_GetStringUTFLength@8 080a6350 f   jniCheck.obj
 0001:000a5450       _checked_jni_GetStringUTFChars@12 080a6450 f   jniCheck.obj
 0001:000a55c0       _checked_jni_ReleaseStringUTFChars@12 080a65c0 f   jniCheck.obj
 0001:000a5710       _checked_jni_GetArrayLength@8 080a6710 f   jniCheck.obj
 0001:000a5810       _checked_jni_GetObjectArrayElement@12 080a6810 f   jniCheck.obj
 0001:000a58e0       _checked_jni_SetObjectArrayElement@16 080a68e0 f   jniCheck.obj
 0001:000a59b0       _checked_jni_GetBooleanArrayElements@12 080a69b0 f   jniCheck.obj
 0001:000a5b00       _checked_jni_GetByteArrayElements@12 080a6b00 f   jniCheck.obj
 0001:000a5c50       _checked_jni_GetShortArrayElements@12 080a6c50 f   jniCheck.obj
 0001:000a5da0       _checked_jni_GetCharArrayElements@12 080a6da0 f   jniCheck.obj
 0001:000a5ef0       _checked_jni_GetIntArrayElements@12 080a6ef0 f   jniCheck.obj
 0001:000a6040       _checked_jni_GetLongArrayElements@12 080a7040 f   jniCheck.obj
 0001:000a6190       _checked_jni_GetFloatArrayElements@12 080a7190 f   jniCheck.obj
 0001:000a62e0       _checked_jni_GetDoubleArrayElements@12 080a72e0 f   jniCheck.obj
 0001:000a6430       _checked_jni_ReleaseBooleanArrayElements@16 080a7430 f   jniCheck.obj
 0001:000a6590       _checked_jni_ReleaseByteArrayElements@16 080a7590 f   jniCheck.obj
 0001:000a66f0       _checked_jni_ReleaseShortArrayElements@16 080a76f0 f   jniCheck.obj
 0001:000a6850       _checked_jni_ReleaseCharArrayElements@16 080a7850 f   jniCheck.obj
 0001:000a69b0       _checked_jni_ReleaseIntArrayElements@16 080a79b0 f   jniCheck.obj
 0001:000a6b10       _checked_jni_ReleaseLongArrayElements@16 080a7b10 f   jniCheck.obj
 0001:000a6c70       _checked_jni_ReleaseFloatArrayElements@16 080a7c70 f   jniCheck.obj
 0001:000a6dd0       _checked_jni_ReleaseDoubleArrayElements@16 080a7dd0 f   jniCheck.obj
 0001:000a6f30       _checked_jni_GetBooleanArrayRegion@20 080a7f30 f   jniCheck.obj
 0001:000a7080       _checked_jni_GetByteArrayRegion@20 080a8080 f   jniCheck.obj
 0001:000a71d0       _checked_jni_GetShortArrayRegion@20 080a81d0 f   jniCheck.obj
 0001:000a7320       _checked_jni_GetCharArrayRegion@20 080a8320 f   jniCheck.obj
 0001:000a7470       _checked_jni_GetIntArrayRegion@20 080a8470 f   jniCheck.obj
 0001:000a75c0       _checked_jni_GetLongArrayRegion@20 080a85c0 f   jniCheck.obj
 0001:000a7710       _checked_jni_GetFloatArrayRegion@20 080a8710 f   jniCheck.obj
 0001:000a7860       _checked_jni_GetDoubleArrayRegion@20 080a8860 f   jniCheck.obj
 0001:000a79b0       _checked_jni_SetBooleanArrayRegion@20 080a89b0 f   jniCheck.obj
 0001:000a7b00       _checked_jni_SetByteArrayRegion@20 080a8b00 f   jniCheck.obj
 0001:000a7c50       _checked_jni_SetShortArrayRegion@20 080a8c50 f   jniCheck.obj
 0001:000a7da0       _checked_jni_SetCharArrayRegion@20 080a8da0 f   jniCheck.obj
 0001:000a7ef0       _checked_jni_SetIntArrayRegion@20 080a8ef0 f   jniCheck.obj
 0001:000a8040       _checked_jni_SetLongArrayRegion@20 080a9040 f   jniCheck.obj
 0001:000a8190       _checked_jni_SetFloatArrayRegion@20 080a9190 f   jniCheck.obj
 0001:000a82e0       _checked_jni_SetDoubleArrayRegion@20 080a92e0 f   jniCheck.obj
 0001:000a8430       _checked_jni_GetStringRegion@20 080a9430 f   jniCheck.obj
 0001:000a8540       _checked_jni_GetStringUTFRegion@20 080a9540 f   jniCheck.obj
 0001:000a8650       _checked_jni_GetPrimitiveArrayCritical@12 080a9650 f   jniCheck.obj
 0001:000a87a0       _checked_jni_ReleasePrimitiveArrayCritical@16 080a97a0 f   jniCheck.obj
 0001:000a88a0       _checked_jni_GetStringCritical@12 080a98a0 f   jniCheck.obj
 0001:000a89e0       _checked_jni_ReleaseStringCritical@12 080a99e0 f   jniCheck.obj
 0001:000a8ae0       ?checked_resolve_jmethod_id@JNIHandles@@SAPAVmethodOopDesc@@PAU_jmethodID@@@Z 080a9ae0 f i jniCheck.obj
 0001:000a8c90       ?validate_jmethod_id@jniCheck@@SAPAVmethodOopDesc@@PAVJavaThread@@PAU_jmethodID@@@Z 080a9c90 f   jniCheck.obj
 0001:000a8d10       _checked_jni_ToReflectedMethod@16 080a9d10 f   jniCheck.obj
 0001:000a8de0       _checked_jni_NewObject     080a9de0 f   jniCheck.obj
 0001:000a8eb0       _checked_jni_NewObjectV@16 080a9eb0 f   jniCheck.obj
 0001:000a8f80       _checked_jni_NewObjectA@16 080a9f80 f   jniCheck.obj
 0001:000a9050       _checked_jni_CallObjectMethod 080aa050 f   jniCheck.obj
 0001:000a9120       _checked_jni_CallObjectMethodV@16 080aa120 f   jniCheck.obj
 0001:000a91f0       _checked_jni_CallObjectMethodA@16 080aa1f0 f   jniCheck.obj
 0001:000a92c0       _checked_jni_CallBooleanMethod 080aa2c0 f   jniCheck.obj
 0001:000a9390       _checked_jni_CallBooleanMethodV@16 080aa390 f   jniCheck.obj
 0001:000a9460       _checked_jni_CallBooleanMethodA@16 080aa460 f   jniCheck.obj
 0001:000a9530       _checked_jni_CallByteMethod 080aa530 f   jniCheck.obj
 0001:000a9600       _checked_jni_CallByteMethodV@16 080aa600 f   jniCheck.obj
 0001:000a96d0       _checked_jni_CallByteMethodA@16 080aa6d0 f   jniCheck.obj
 0001:000a97a0       _checked_jni_CallShortMethod 080aa7a0 f   jniCheck.obj
 0001:000a9870       _checked_jni_CallShortMethodV@16 080aa870 f   jniCheck.obj
 0001:000a9940       _checked_jni_CallShortMethodA@16 080aa940 f   jniCheck.obj
 0001:000a9a10       _checked_jni_CallCharMethod 080aaa10 f   jniCheck.obj
 0001:000a9ae0       _checked_jni_CallCharMethodV@16 080aaae0 f   jniCheck.obj
 0001:000a9bb0       _checked_jni_CallCharMethodA@16 080aabb0 f   jniCheck.obj
 0001:000a9c80       _checked_jni_CallIntMethod 080aac80 f   jniCheck.obj
 0001:000a9d50       _checked_jni_CallIntMethodV@16 080aad50 f   jniCheck.obj
 0001:000a9e20       _checked_jni_CallIntMethodA@16 080aae20 f   jniCheck.obj
 0001:000a9ef0       _checked_jni_CallLongMethod 080aaef0 f   jniCheck.obj
 0001:000a9fd0       _checked_jni_CallLongMethodV@16 080aafd0 f   jniCheck.obj
 0001:000aa0b0       _checked_jni_CallLongMethodA@16 080ab0b0 f   jniCheck.obj
 0001:000aa190       _checked_jni_CallFloatMethod 080ab190 f   jniCheck.obj
 0001:000aa260       _checked_jni_CallFloatMethodV@16 080ab260 f   jniCheck.obj
 0001:000aa330       _checked_jni_CallFloatMethodA@16 080ab330 f   jniCheck.obj
 0001:000aa400       _checked_jni_CallDoubleMethod 080ab400 f   jniCheck.obj
 0001:000aa4d0       _checked_jni_CallDoubleMethodV@16 080ab4d0 f   jniCheck.obj
 0001:000aa5a0       _checked_jni_CallDoubleMethodA@16 080ab5a0 f   jniCheck.obj
 0001:000aa670       _checked_jni_CallVoidMethod 080ab670 f   jniCheck.obj
 0001:000aa740       _checked_jni_CallVoidMethodV@16 080ab740 f   jniCheck.obj
 0001:000aa810       _checked_jni_CallVoidMethodA@16 080ab810 f   jniCheck.obj
 0001:000aa8e0       _checked_jni_CallNonvirtualObjectMethod 080ab8e0 f   jniCheck.obj
 0001:000aa9d0       _checked_jni_CallNonvirtualObjectMethodV@20 080ab9d0 f   jniCheck.obj
 0001:000aaab0       _checked_jni_CallNonvirtualObjectMethodA@20 080abab0 f   jniCheck.obj
 0001:000aab90       _checked_jni_CallNonvirtualBooleanMethod 080abb90 f   jniCheck.obj
 0001:000aac80       _checked_jni_CallNonvirtualBooleanMethodV@20 080abc80 f   jniCheck.obj
 0001:000aad60       _checked_jni_CallNonvirtualBooleanMethodA@20 080abd60 f   jniCheck.obj
 0001:000aae40       _checked_jni_CallNonvirtualByteMethod 080abe40 f   jniCheck.obj
 0001:000aaf30       _checked_jni_CallNonvirtualByteMethodV@20 080abf30 f   jniCheck.obj
 0001:000ab010       _checked_jni_CallNonvirtualByteMethodA@20 080ac010 f   jniCheck.obj
 0001:000ab0f0       _checked_jni_CallNonvirtualShortMethod 080ac0f0 f   jniCheck.obj
 0001:000ab1e0       _checked_jni_CallNonvirtualShortMethodV@20 080ac1e0 f   jniCheck.obj
 0001:000ab2c0       _checked_jni_CallNonvirtualShortMethodA@20 080ac2c0 f   jniCheck.obj
 0001:000ab3a0       _checked_jni_CallNonvirtualCharMethod 080ac3a0 f   jniCheck.obj
 0001:000ab490       _checked_jni_CallNonvirtualCharMethodV@20 080ac490 f   jniCheck.obj
 0001:000ab570       _checked_jni_CallNonvirtualCharMethodA@20 080ac570 f   jniCheck.obj
 0001:000ab650       _checked_jni_CallNonvirtualIntMethod 080ac650 f   jniCheck.obj
 0001:000ab740       _checked_jni_CallNonvirtualIntMethodV@20 080ac740 f   jniCheck.obj
 0001:000ab820       _checked_jni_CallNonvirtualIntMethodA@20 080ac820 f   jniCheck.obj
 0001:000ab900       _checked_jni_CallNonvirtualLongMethod 080ac900 f   jniCheck.obj
 0001:000ab9f0       _checked_jni_CallNonvirtualLongMethodV@20 080ac9f0 f   jniCheck.obj
 0001:000abae0       _checked_jni_CallNonvirtualLongMethodA@20 080acae0 f   jniCheck.obj
 0001:000abbd0       _checked_jni_CallNonvirtualFloatMethod 080acbd0 f   jniCheck.obj
 0001:000abcc0       _checked_jni_CallNonvirtualFloatMethodV@20 080accc0 f   jniCheck.obj
 0001:000abdb0       _checked_jni_CallNonvirtualFloatMethodA@20 080acdb0 f   jniCheck.obj
 0001:000abea0       _checked_jni_CallNonvirtualDoubleMethod 080acea0 f   jniCheck.obj
 0001:000abf90       _checked_jni_CallNonvirtualDoubleMethodV@20 080acf90 f   jniCheck.obj
 0001:000ac080       _checked_jni_CallNonvirtualDoubleMethodA@20 080ad080 f   jniCheck.obj
 0001:000ac170       _checked_jni_CallNonvirtualVoidMethod 080ad170 f   jniCheck.obj
 0001:000ac250       _checked_jni_CallNonvirtualVoidMethodV@20 080ad250 f   jniCheck.obj
 0001:000ac330       _checked_jni_CallNonvirtualVoidMethodA@20 080ad330 f   jniCheck.obj
 0001:000ac410       _checked_jni_CallStaticObjectMethod 080ad410 f   jniCheck.obj
 0001:000ac4e0       _checked_jni_CallStaticObjectMethodV@16 080ad4e0 f   jniCheck.obj
 0001:000ac5b0       _checked_jni_CallStaticObjectMethodA@16 080ad5b0 f   jniCheck.obj
 0001:000ac680       _checked_jni_CallStaticBooleanMethod 080ad680 f   jniCheck.obj
 0001:000ac750       _checked_jni_CallStaticBooleanMethodV@16 080ad750 f   jniCheck.obj
 0001:000ac820       _checked_jni_CallStaticBooleanMethodA@16 080ad820 f   jniCheck.obj
 0001:000ac8f0       _checked_jni_CallStaticByteMethod 080ad8f0 f   jniCheck.obj
 0001:000ac9c0       _checked_jni_CallStaticByteMethodV@16 080ad9c0 f   jniCheck.obj
 0001:000aca90       _checked_jni_CallStaticByteMethodA@16 080ada90 f   jniCheck.obj
 0001:000acb60       _checked_jni_CallStaticShortMethod 080adb60 f   jniCheck.obj
 0001:000acc30       _checked_jni_CallStaticShortMethodV@16 080adc30 f   jniCheck.obj
 0001:000acd00       _checked_jni_CallStaticShortMethodA@16 080add00 f   jniCheck.obj
 0001:000acdd0       _checked_jni_CallStaticCharMethod 080addd0 f   jniCheck.obj
 0001:000acea0       _checked_jni_CallStaticCharMethodV@16 080adea0 f   jniCheck.obj
 0001:000acf70       _checked_jni_CallStaticCharMethodA@16 080adf70 f   jniCheck.obj
 0001:000ad040       _checked_jni_CallStaticIntMethod 080ae040 f   jniCheck.obj
 0001:000ad110       _checked_jni_CallStaticIntMethodV@16 080ae110 f   jniCheck.obj
 0001:000ad1e0       _checked_jni_CallStaticIntMethodA@16 080ae1e0 f   jniCheck.obj
 0001:000ad2b0       _checked_jni_CallStaticLongMethod 080ae2b0 f   jniCheck.obj
 0001:000ad390       _checked_jni_CallStaticLongMethodV@16 080ae390 f   jniCheck.obj
 0001:000ad470       _checked_jni_CallStaticLongMethodA@16 080ae470 f   jniCheck.obj
 0001:000ad550       _checked_jni_CallStaticFloatMethod 080ae550 f   jniCheck.obj
 0001:000ad620       _checked_jni_CallStaticFloatMethodV@16 080ae620 f   jniCheck.obj
 0001:000ad6f0       _checked_jni_CallStaticFloatMethodA@16 080ae6f0 f   jniCheck.obj
 0001:000ad7c0       _checked_jni_CallStaticDoubleMethod 080ae7c0 f   jniCheck.obj
 0001:000ad890       _checked_jni_CallStaticDoubleMethodV@16 080ae890 f   jniCheck.obj
 0001:000ad970       _checked_jni_CallStaticDoubleMethodA@16 080ae970 f   jniCheck.obj
 0001:000ada50       _checked_jni_CallStaticVoidMethod 080aea50 f   jniCheck.obj
 0001:000adb20       _checked_jni_CallStaticVoidMethodV@16 080aeb20 f   jniCheck.obj
 0001:000adbf0       _checked_jni_CallStaticVoidMethodA@16 080aebf0 f   jniCheck.obj
 0001:000adcc0       _checked_jni_GetStaticObjectField@12 080aecc0 f   jniCheck.obj
 0001:000add90       _checked_jni_GetStaticBooleanField@12 080aed90 f   jniCheck.obj
 0001:000ade60       _checked_jni_GetStaticByteField@12 080aee60 f   jniCheck.obj
 0001:000adf30       _checked_jni_GetStaticShortField@12 080aef30 f   jniCheck.obj
 0001:000ae000       _checked_jni_GetStaticCharField@12 080af000 f   jniCheck.obj
 0001:000ae0d0       _checked_jni_GetStaticIntField@12 080af0d0 f   jniCheck.obj
 0001:000ae1a0       _checked_jni_GetStaticLongField@12 080af1a0 f   jniCheck.obj
 0001:000ae280       _checked_jni_GetStaticFloatField@12 080af280 f   jniCheck.obj
 0001:000ae350       _checked_jni_GetStaticDoubleField@12 080af350 f   jniCheck.obj
 0001:000ae430       _checked_jni_SetStaticObjectField@16 080af430 f   jniCheck.obj
 0001:000ae500       _checked_jni_SetStaticBooleanField@16 080af500 f   jniCheck.obj
 0001:000ae5d0       _checked_jni_SetStaticByteField@16 080af5d0 f   jniCheck.obj
 0001:000ae6a0       _checked_jni_SetStaticShortField@16 080af6a0 f   jniCheck.obj
 0001:000ae770       _checked_jni_SetStaticCharField@16 080af770 f   jniCheck.obj
 0001:000ae840       _checked_jni_SetStaticIntField@16 080af840 f   jniCheck.obj
 0001:000ae910       _checked_jni_SetStaticLongField@20 080af910 f   jniCheck.obj
 0001:000ae9e0       _checked_jni_SetStaticFloatField@16 080af9e0 f   jniCheck.obj
 0001:000aeab0       _checked_jni_SetStaticDoubleField@20 080afab0 f   jniCheck.obj
 0001:000aeb80       ?find_slowcase_pc@JNI_FastGetField@@SAPAEPAE@Z 080afb80 f   jniFastGetField.obj
 0001:000aebb0       ?output_stream@defaultStream@@SAPAU_iobuf@@XZ 080afbb0 f i jvm.obj
 0001:000aebd0       ?g_isnan@@YAHN@Z           080afbd0 f i jvm.obj
 0001:000aebf0       _jio_vsnprintf             080afbf0 f   jvm.obj
 0001:000aec30       _jio_snprintf              080afc30 f   jvm.obj
 0001:000aec70       ?cmpxchg@Atomic@@SA_J_JPC_J0@Z 080afc70 f i jvm.obj
 0001:000aecd0       ?set_suspend_flag@Thread@@QAEXW4SuspendFlags@1@@Z 080afcd0 f i jvm.obj
 0001:000aed20       ??1JavaThreadParkedState@@QAE@XZ 080afd20 f i unsafe.obj
 0001:000aed20       ??1JavaThreadInObjectWaitState@@QAE@XZ 080afd20 f i jvm.obj
 0001:000aed80       ??1JavaThreadSleepState@@QAE@XZ 080afd80 f i jvm.obj
 0001:000aede0       _JVM_GetInterfaceVersion@0 080afde0 f   jvm.obj
 0001:000aee00       _JVM_CurrentTimeMillis@8   080afe00 f   jvm.obj
 0001:000aee20       _JVM_NanoTime@8            080afe20 f   jvm.obj
 0001:000aee40       _JVM_OnExit@4              080afe40 f   jvm.obj
 0001:000aee70       _JVM_MaxObjectInspectionAge@0 080afe70 f   jvm.obj
 0001:000aee90       _JVM_ReleaseUTF@4          080afe90 f   jvm.obj
 0001:000aee90       _JVM_TraceMethodCalls@4    080afe90 f   jvm.obj
 0001:000aee90       _JVM_TraceInstructions@4   080afe90 f   jvm.obj
 0001:000aeeb0       _JVM_FillInStackTrace@8    080afeb0 f   jvm.obj
 0001:000aef40       _JVM_PrintStackTrace@12    080aff40 f   jvm.obj
 0001:000aefd0       _JVM_GetStackTraceDepth@8  080affd0 f   jvm.obj
 0001:000af060       _JVM_GetStackTraceElement@12 080b0060 f   jvm.obj
 0001:000af160       _JVM_IHashCode@8           080b0160 f   jvm.obj
 0001:000af200       _JVM_MonitorNotify@8       080b0200 f   jvm.obj
 0001:000af2a0       _JVM_MonitorNotifyAll@8    080b02a0 f   jvm.obj
 0001:000af340       _JVM_DisableCompiler@8     080b0340 f   jvm.obj
 0001:000af340       _JVM_InitializeCompiler@8  080b0340 f   jvm.obj
 0001:000af340       _JVM_EnableCompiler@8      080b0340 f   jvm.obj
 0001:000af360       _JVM_IsSilentCompiler@8    080b0360 f   jvm.obj
 0001:000af380       _JVM_CompileClasses@12     080b0380 f   jvm.obj
 0001:000af380       _JVM_CompileClass@12       080b0380 f   jvm.obj
 0001:000af3a0       _JVM_CompilerCommand@12    080b03a0 f   jvm.obj
 0001:000af3c0       _JVM_GetLastErrorString@8  080b03c0 f   jvm.obj
 0001:000af3f0       _JVM_NativePath@4          080b03f0 f   jvm.obj
 0001:000af420       _JVM_GetCallerClass@8      080b0420 f   jvm.obj
 0001:000af4c0       _JVM_FindPrimitiveClass@8  080b04c0 f   jvm.obj
 0001:000af5c0       _JVM_ResolveClass@8        080b05c0 f   jvm.obj
 0001:000af680       _JVM_GetClassLoader@8      080b0680 f   jvm.obj
 0001:000af770       _JVM_IsInterface@8         080b0770 f   jvm.obj
 0001:000af800       _JVM_GetProtectionDomain@8 080b0800 f   jvm.obj
 0001:000af950       _JVM_GetInheritedAccessControlContext@8 080b0950 f   jvm.obj
 0001:000af9e0       _JVM_IsArrayClass@8        080b09e0 f   jvm.obj
 0001:000afa50       _JVM_IsPrimitiveClass@8    080b0a50 f   jvm.obj
 0001:000afab0       _JVM_GetComponentType@8    080b0ab0 f   jvm.obj
 0001:000afb90       _JVM_GetClassModifiers@8   080b0b90 f   jvm.obj
 0001:000afc70       _JVM_GetClassAccessFlags@8 080b0c70 f   jvm.obj
 0001:000afd50       _JVM_AssertionStatusDirectives@8 080b0d50 f   jvm.obj
 0001:000afe40       _JVM_GetClassNameUTF@8     080b0e40 f   jvm.obj
 0001:000aff00       _JVM_GetClassCPEntriesCount@8 080b0f00 f   jvm.obj
 0001:000affb0       _JVM_GetCPClassNameUTF@12  080b0fb0 f   jvm.obj
 0001:000b0080       _JVM_IsSameClassPackage@12 080b1080 f   jvm.obj
 0001:000b0120       _JVM_Open@12               080b1120 f   jvm.obj
 0001:000b0170       _JVM_Close@4               080b1170 f   jvm.obj
 0001:000b01a0       _JVM_Read@12               080b11a0 f   jvm.obj
 0001:000b01d0       _JVM_Write@12              080b11d0 f   jvm.obj
 0001:000b0200       _JVM_Available@8           080b1200 f   jvm.obj
 0001:000b0230       _JVM_Lseek@16              080b1230 f   jvm.obj
 0001:000b0260       _JVM_SetLength@12          080b1260 f   jvm.obj
 0001:000b0290       _JVM_Sync@4                080b1290 f   jvm.obj
 0001:000b02c0       _jio_vfprintf              080b12c0 f   jvm.obj
 0001:000b02f0       _jio_printf                080b12f0 f   jvm.obj
 0001:000b0340       _JVM_IsThreadAlive@8       080b1340 f   jvm.obj
 0001:000b03d0       _JVM_ResumeThread@8        080b13d0 f   jvm.obj
 0001:000b0480       _JVM_SetThreadPriority@12  080b1480 f   jvm.obj
 0001:000b0540       _JVM_Yield@8               080b1540 f   jvm.obj
 0001:000b05e0       _JVM_CurrentThread@8       080b15e0 f   jvm.obj
 0001:000b0670       _JVM_Interrupt@8           080b1670 f   jvm.obj
 0001:000b0730       _JVM_IsInterrupted@12      080b1730 f   jvm.obj
 0001:000b0800       _JVM_HoldsLock@12          080b1800 f   jvm.obj
 0001:000b0900       _JVM_DumpAllStacks@8       080b1900 f   jvm.obj
 0001:000b09c0       _JVM_GetSystemPackages@4   080b19c0 f   jvm.obj
 0001:000b0ab0       ?force_verify_field_access@@YA_NPAVklassOopDesc@@0VAccessFlags@@_N@Z 080b1ab0 f   jvm.obj
 0001:000b0b20       _JVM_NewArray@12           080b1b20 f   jvm.obj
 0001:000b0c20       _JVM_InitializeSocketLibrary@0 080b1c20 f   jvm.obj
 0001:000b0c40       _JVM_Socket@12             080b1c40 f   jvm.obj
 0001:000b0c70       _JVM_SocketClose@4         080b1c70 f   jvm.obj
 0001:000b0ca0       _JVM_SocketShutdown@8      080b1ca0 f   jvm.obj
 0001:000b0cd0       _JVM_Recv@16               080b1cd0 f   jvm.obj
 0001:000b0d00       _JVM_Send@16               080b1d00 f   jvm.obj
 0001:000b0d30       _JVM_Timeout@8             080b1d30 f   jvm.obj
 0001:000b0d60       _JVM_Listen@8              080b1d60 f   jvm.obj
 0001:000b0d90       _JVM_Connect@12            080b1d90 f   jvm.obj
 0001:000b0dc0       _JVM_Bind@12               080b1dc0 f   jvm.obj
 0001:000b0df0       _JVM_Accept@12             080b1df0 f   jvm.obj
 0001:000b0e20       _JVM_RecvFrom@24           080b1e20 f   jvm.obj
 0001:000b0e60       _JVM_GetSockName@12        080b1e60 f   jvm.obj
 0001:000b0e90       _JVM_SendTo@24             080b1e90 f   jvm.obj
 0001:000b0ed0       _JVM_SocketAvailable@8     080b1ed0 f   jvm.obj
 0001:000b0f00       _JVM_GetSockOpt@20         080b1f00 f   jvm.obj
 0001:000b0f40       _JVM_SetSockOpt@20         080b1f40 f   jvm.obj
 0001:000b0f80       _JVM_GetHostName@8         080b1f80 f   jvm.obj
 0001:000b0fb0       _JVM_UnloadLibrary@4       080b1fb0 f   jvm.obj
 0001:000b0fd0       _JVM_FindLibraryEntry@8    080b1fd0 f   jvm.obj
 0001:000b0ff0       _JVM_IsNaN@8               080b1ff0 f   jvm.obj
 0001:000b1020       _JVM_IsSupportedJNIVersion@4 080b2020 f   jvm.obj
 0001:000b1050       _JVM_InternString@8        080b2050 f   jvm.obj
 0001:000b1190       _JVM_RawMonitorCreate@0    080b2190 f   jvm.obj
 0001:000b11d0       _JVM_RawMonitorDestroy@4   080b21d0 f   jvm.obj
 0001:000b1200       _JVM_RawMonitorEnter@4     080b2200 f   jvm.obj
 0001:000b1220       _JVM_RawMonitorExit@4      080b2220 f   jvm.obj
 0001:000b1240       ?initialize_converter_functions@@YAXXZ 080b2240 f   jvm.obj
 0001:000b12c0       ?find_class_from_class_loader@@YAPAV_jclass@@PAUJNIEnv_@@VsymbolHandle@@EVHandle@@2EPAVThread@@@Z 080b22c0 f   jvm.obj
 0001:000b1340       _JVM_GetClassFields@12     080b2340 f   jvm.obj
 0001:000b1440       _JVM_GetClassMethods@12    080b2440 f   jvm.obj
 0001:000b1540       _JVM_GetClassConstructors@12 080b2540 f   jvm.obj
 0001:000b1640       _JVM_GetClassField@16      080b2640 f   jvm.obj
 0001:000b1820       _JVM_GetClassMethod@20     080b2820 f   jvm.obj
 0001:000b1a30       _JVM_GetClassConstructor@16 080b2a30 f   jvm.obj
 0001:000b1bb0       _JVM_GetField@12           080b2bb0 f   jvm.obj
 0001:000b1d50       _JVM_GetPrimitiveField@16  080b2d50 f   jvm.obj
 0001:000b1e90       _JVM_SetField@16           080b2e90 f   jvm.obj
 0001:000b2010       _JVM_SetPrimitiveField@24  080b3010 f   jvm.obj
 0001:000b2120       _JVM_SupportsCX8@0         080b3120 f   jvm.obj
 0001:000b2140       _JVM_DTraceGetVersion@4    080b3140 f   jvm.obj
 0001:000b21c0       _JVM_DTraceActivate@20     080b31c0 f   jvm.obj
 0001:000b2260       _JVM_DTraceIsProbeEnabled@8 080b3260 f   jvm.obj
 0001:000b22f0       _JVM_DTraceDispose@12      080b32f0 f   jvm.obj
 0001:000b2380       _JVM_DTraceIsSupported@4   080b3380 f   jvm.obj
 0001:000b2400       _JVM_GetVersionInfo@12     080b3400 f   jvm.obj
 0001:000b24b0       ?stack_available@JavaThread@@QAEIPAE@Z 080b34b0 f i jvm.obj
 0001:000b2520       ??0JavaThreadStatusChanger@@QAE@PAVJavaThread@@W4ThreadStatus@java_lang_Thread@@@Z 080b3520 f i jvm.obj
 0001:000b2580       ??0JavaThreadInObjectWaitState@@QAE@PAVJavaThread@@_N@Z 080b3580 f i jvm.obj
 0001:000b2630       ??0JavaThreadSleepState@@QAE@PAVJavaThread@@@Z 080b3630 f i jvm.obj
 0001:000b26d0       _JVM_ArrayCopy@28          080b36d0 f   jvm.obj
 0001:000b2860       _JVM_InitProperties@8      080b3860 f   jvm.obj
 0001:000b2b50       _JVM_Exit@4                080b3b50 f   jvm.obj
 0001:000b2bd0       _JVM_Halt@4                080b3bd0 f   jvm.obj
 0001:000b2c40       _JVM_GC@0                  080b3c40 f   jvm.obj
 0001:000b2cb0       _JVM_TotalMemory@0         080b3cb0 f   jvm.obj
 0001:000b2d20       _JVM_FreeMemory@0          080b3d20 f   jvm.obj
 0001:000b2dc0       _JVM_MaxMemory@0           080b3dc0 f   jvm.obj
 0001:000b2e30       _JVM_ActiveProcessorCount@0 080b3e30 f   jvm.obj
 0001:000b2ea0       _JVM_MonitorWait@16        080b3ea0 f   jvm.obj
 0001:000b2f80       _JVM_FindClassFromClass@16 080b3f80 f   jvm.obj
 0001:000b3170       _JVM_FindLoadedClass@12    080b4170 f   jvm.obj
 0001:000b33d0       _JVM_GetClassName@8        080b43d0 f   jvm.obj
 0001:000b3560       _JVM_GetClassSignature@8   080b4560 f   jvm.obj
 0001:000b3710       _JVM_GetClassAnnotations@8 080b4710 f   jvm.obj
 0001:000b38e0       _JVM_GetClassConstantPool@8 080b48e0 f   jvm.obj
 0001:000b3a40       _JVM_ConstantPoolGetSize@12 080b4a40 f   jvm.obj
 0001:000b3ae0       _JVM_DesiredAssertionStatus@12 080b4ae0 f   jvm.obj
 0001:000b3c70       _JVM_GetClassFieldsCount@8 080b4c70 f   jvm.obj
 0001:000b3d30       _JVM_GetClassMethodsCount@8 080b4d30 f   jvm.obj
 0001:000b3de0       _jio_fprintf               080b4de0 f   jvm.obj
 0001:000b3e20       _jio_print                 080b4e20 f   jvm.obj
 0001:000b3f00       _JVM_StartThread@8         080b4f00 f   jvm.obj
 0001:000b4090       _JVM_StopThread@12         080b5090 f   jvm.obj
 0001:000b41a0       _JVM_SuspendThread@8       080b51a0 f   jvm.obj
 0001:000b42c0       _JVM_Sleep@16              080b52c0 f   jvm.obj
 0001:000b44a0       _JVM_GetSystemPackage@8    080b54a0 f   jvm.obj
 0001:000b45f0       _JVM_AllocateNewObject@16  080b55f0 f   jvm.obj
 0001:000b4980       _JVM_AllocateNewArray@16   080b5980 f   jvm.obj
 0001:000b4b50       _JVM_GetArrayLength@8      080b5b50 f   jvm.obj
 0001:000b4c50       _JVM_GetArrayElement@12    080b5c50 f   jvm.obj
 0001:000b4e00       _JVM_GetPrimitiveArrayElement@16 080b5e00 f   jvm.obj
 0001:000b4f80       _JVM_SetArrayElement@16    080b5f80 f   jvm.obj
 0001:000b50d0       _JVM_SetPrimitiveArrayElement@24 080b60d0 f   jvm.obj
 0001:000b51f0       _JVM_NewMultiArray@12      080b61f0 f   jvm.obj
 0001:000b5380       _JVM_LoadLibrary@4         080b6380 f   jvm.obj
 0001:000b54d0       _JVM_NewInstance@8         080b64d0 f   jvm.obj
 0001:000b5900       _JVM_InvokeMethod@16       080b6900 f   jvm.obj
 0001:000b5ac0       _JVM_NewInstanceFromConstructor@12 080b6ac0 f   jvm.obj
 0001:000b5be0       _JVM_CX8Field@28           080b6be0 f   jvm.obj
 0001:000b5ce0       _JVM_GetManagement@4       080b6ce0 f   jvm.obj
 0001:000b5d50       _JVM_InitAgentProperties@8 080b6d50 f   jvm.obj
 0001:000b5f30       ?compute_enclosing_class_impl@instanceKlass@@SAPAVklassOopDesc@@VinstanceKlassHandle@@PA_NPAVThread@@@Z 080b6f30 f   jvm.obj
 0001:000b6120       _JVM_GetFieldAnnotations@8 080b7120 f   jvm.obj
 0001:000b62d0       _JVM_ConstantPoolGetClassAt@16 080b72d0 f   jvm.obj
 0001:000b64a0       _JVM_ConstantPoolGetClassAtIfLoaded@16 080b74a0 f   jvm.obj
 0001:000b6790       _JVM_ConstantPoolGetMethodAt@16 080b7790 f   jvm.obj
 0001:000b6900       _JVM_ConstantPoolGetMethodAtIfLoaded@16 080b7900 f   jvm.obj
 0001:000b6b80       _JVM_ConstantPoolGetFieldAt@16 080b7b80 f   jvm.obj
 0001:000b6cf0       _JVM_ConstantPoolGetFieldAtIfLoaded@16 080b7cf0 f   jvm.obj
 0001:000b6e60       _JVM_ConstantPoolGetIntAt@16 080b7e60 f   jvm.obj
 0001:000b6fd0       _JVM_ConstantPoolGetLongAt@16 080b7fd0 f   jvm.obj
 0001:000b7140       _JVM_ConstantPoolGetFloatAt@16 080b8140 f   jvm.obj
 0001:000b72a0       _JVM_ConstantPoolGetDoubleAt@16 080b82a0 f   jvm.obj
 0001:000b7410       _JVM_ConstantPoolGetStringAt@16 080b8410 f   jvm.obj
 0001:000b75d0       _JVM_ConstantPoolGetUTF8At@16 080b85d0 f   jvm.obj
 0001:000b77a0       _JVM_GetClassCPTypes@12    080b87a0 f   jvm.obj
 0001:000b78a0       _JVM_GetFieldIxModifiers@12 080b88a0 f   jvm.obj
 0001:000b7940       _JVM_GetCPFieldNameUTF@12  080b8940 f   jvm.obj
 0001:000b7a80       _JVM_GetCPMethodNameUTF@12 080b8a80 f   jvm.obj
 0001:000b7bc0       _JVM_GetCPMethodSignatureUTF@12 080b8bc0 f   jvm.obj
 0001:000b7d00       _JVM_GetCPFieldSignatureUTF@12 080b8d00 f   jvm.obj
 0001:000b7e40       _JVM_GetCPFieldClassNameUTF@12 080b8e40 f   jvm.obj
 0001:000b7f80       _JVM_GetCPMethodClassNameUTF@12 080b8f80 f   jvm.obj
 0001:000b80d0       _JVM_GetCPFieldModifiers@16 080b90d0 f   jvm.obj
 0001:000b82c0       _JVM_SetPrimitiveFieldValues@24 080b92c0 f   jvm.obj
 0001:000b87c0       _JVM_GetPrimitiveFieldValues@24 080b97c0 f   jvm.obj
 0001:000b8bc0       _JVM_GetThreadStateValues@8 080b9bc0 f   jvm.obj
 0001:000b9130       ?trace_class_resolution@@YAXPAVklassOopDesc@@@Z 080ba130 f   jvm.obj
 0001:000b9170       _JVM_FindClassFromBootLoader@8 080ba170 f   jvm.obj
 0001:000b92b0       _JVM_FindClassFromClassLoader@20 080ba2b0 f   jvm.obj
 0001:000b96a0       _JVM_DefineClass@24        080ba6a0 f   jvm.obj
 0001:000b9740       _JVM_DefineClassWithSource@28 080ba740 f   jvm.obj
 0001:000b97e0       _JVM_DefineClassWithSourceCond@32 080ba7e0 f   jvm.obj
 0001:000b9880       _JVM_GetClassInterfaces@8  080ba880 f   jvm.obj
 0001:000b9af0       _JVM_GetClassSigners@8     080baaf0 f   jvm.obj
 0001:000b9cd0       _JVM_SetClassSigners@12    080bacd0 f   jvm.obj
 0001:000b9d80       _JVM_SetProtectionDomain@12 080bad80 f   jvm.obj
 0001:000b9e50       _JVM_DoPrivileged@20       080bae50 f   jvm.obj
 0001:000ba120       _JVM_GetStackAccessControlContext@8 080bb120 f   jvm.obj
 0001:000ba660       _JVM_GetDeclaredClasses@8  080bb660 f   jvm.obj
 0001:000baa70       _JVM_GetDeclaringClass@8   080bba70 f   jvm.obj
 0001:000bab90       _JVM_GetClassDeclaredFields@12 080bbb90 f   jvm.obj
 0001:000baf80       _JVM_GetClassDeclaredMethods@12 080bbf80 f   jvm.obj
 0001:000bb360       _JVM_GetClassDeclaredConstructors@12 080bc360 f   jvm.obj
 0001:000bb740       _JVM_ConstantPoolGetMemberRefInfoAt@16 080bc740 f   jvm.obj
 0001:000bb9f0       _JVM_GetMethodIxExceptionIndexes@16 080bc9f0 f   jvm.obj
 0001:000bbaf0       _JVM_GetMethodIxExceptionsCount@12 080bcaf0 f   jvm.obj
 0001:000bbb90       _JVM_GetMethodIxByteCode@16 080bcb90 f   jvm.obj
 0001:000bbc40       _JVM_GetMethodIxByteCodeLength@12 080bcc40 f   jvm.obj
 0001:000bbce0       _JVM_GetMethodIxExceptionTableEntry@20 080bcce0 f   jvm.obj
 0001:000bbda0       _JVM_GetMethodIxExceptionTableLength@12 080bcda0 f   jvm.obj
 0001:000bbe40       _JVM_GetMethodIxModifiers@12 080bce40 f   jvm.obj
 0001:000bbee0       _JVM_GetMethodIxLocalsCount@12 080bcee0 f   jvm.obj
 0001:000bbf70       _JVM_GetMethodIxArgsSize@12 080bcf70 f   jvm.obj
 0001:000bc000       _JVM_GetMethodIxMaxStack@12 080bd000 f   jvm.obj
 0001:000bc090       _JVM_IsConstructorIx@12    080bd090 f   jvm.obj
 0001:000bc170       _JVM_GetMethodIxNameUTF@12 080bd170 f   jvm.obj
 0001:000bc240       _JVM_GetMethodIxSignatureUTF@12 080bd240 f   jvm.obj
 0001:000bc310       _JVM_GetCPMethodModifiers@16 080bd310 f   jvm.obj
 0001:000bc4d0       _JVM_CountStackFrames@8    080bd4d0 f   jvm.obj
 0001:000bc650       _JVM_CurrentLoadedClass@4  080bd650 f   jvm.obj
 0001:000bc8c0       _JVM_CurrentClassLoader@4  080bd8c0 f   jvm.obj
 0001:000bcb20       _JVM_GetClassContext@4     080bdb20 f   jvm.obj
 0001:000bce00       _JVM_ClassDepth@8          080bde00 f   jvm.obj
 0001:000bd070       _JVM_ClassLoaderDepth@4    080be070 f   jvm.obj
 0001:000bd2c0       _JVM_LatestUserDefinedLoader@4 080be2c0 f   jvm.obj
 0001:000bd460       _JVM_LoadClass0@16         080be460 f   jvm.obj
 0001:000bd7b0       _JVM_GetAllThreads@8       080be7b0 f   jvm.obj
 0001:000bda10       _JVM_DumpThreads@12        080bea10 f   jvm.obj
 0001:000bdd20       _JVM_GetEnclosingMethodInfo@8 080bed20 f   jvm.obj
 0001:000be000       _JVM_GetThreadStateNames@12 080bf000 f   jvm.obj
 0001:000be3f0       ?annotations@methodOopDesc@@QBEPAVtypeArrayOopDesc@@XZ 080bf3f0 f i jvm.obj
 0001:000be420       ?parameter_annotations@methodOopDesc@@QBEPAVtypeArrayOopDesc@@XZ 080bf420 f i jvm.obj
 0001:000be450       ?annotation_default@methodOopDesc@@QBEPAVtypeArrayOopDesc@@XZ 080bf450 f i jvm.obj
 0001:000be480       _JVM_GetMethodAnnotations@8 080bf480 f   jvm.obj
 0001:000be580       _JVM_GetMethodDefaultAnnotationValue@8 080bf580 f   jvm.obj
 0001:000be680       _JVM_GetMethodParameterAnnotations@8 080bf680 f   jvm.obj
 0001:000be780       _JVM_Clone@8               080bf780 f   jvm.obj
 0001:000bea10       ?writeable_address@JvmtiClassFileReconstituter@@AAEPAEI@Z 080bfa10 f   jvmtiClassFileReconstituter.obj
 0001:000bea60       ?copy_cpool_bytes@JvmtiConstantPoolReconstituter@@QAEXPAE@Z 080bfa60 f i jvmtiClassFileReconstituter.obj
 0001:000bea80       ?line_number_table_entries@JvmtiClassFileReconstituter@@AAEGVmethodHandle@@@Z 080bfa80 f   jvmtiClassFileReconstituter.obj
 0001:000bead0       ?write_u2@JvmtiClassFileReconstituter@@AAEXG@Z 080bfad0 f   jvmtiClassFileReconstituter.obj
 0001:000beb30       ?write_u4@JvmtiClassFileReconstituter@@AAEXI@Z 080bfb30 f   jvmtiClassFileReconstituter.obj
 0001:000beb90       ?copy_bytecodes@JvmtiClassFileReconstituter@@SAXVmethodHandle@@PAE@Z 080bfb90 f   jvmtiClassFileReconstituter.obj
 0001:000becd0       ?write_attribute_name_index@JvmtiClassFileReconstituter@@AAEXPBD@Z 080bfcd0 f   jvmtiClassFileReconstituter.obj
 0001:000bed30       ?write_exceptions_attribute@JvmtiClassFileReconstituter@@AAEXVconstMethodHandle@@@Z 080bfd30 f   jvmtiClassFileReconstituter.obj
 0001:000bedf0       ?write_source_file_attribute@JvmtiClassFileReconstituter@@AAEXXZ 080bfdf0 f   jvmtiClassFileReconstituter.obj
 0001:000bee90       ?write_source_debug_extension_attribute@JvmtiClassFileReconstituter@@AAEXXZ 080bfe90 f   jvmtiClassFileReconstituter.obj
 0001:000bef30       ?write_signature_attribute@JvmtiClassFileReconstituter@@AAEXG@Z 080bff30 f   jvmtiClassFileReconstituter.obj
 0001:000befa0       ?write_inner_classes_attribute@JvmtiClassFileReconstituter@@AAEXH@Z 080bffa0 f   jvmtiClassFileReconstituter.obj
 0001:000bf1c0       ?write_line_number_table_attribute@JvmtiClassFileReconstituter@@AAEXVmethodHandle@@G@Z 080c01c0 f   jvmtiClassFileReconstituter.obj
 0001:000bf2d0       ?write_stackmap_table_attribute@JvmtiClassFileReconstituter@@AAEXVmethodHandle@@H@Z 080c02d0 f   jvmtiClassFileReconstituter.obj
 0001:000bf320       ?write_class_attributes@JvmtiClassFileReconstituter@@AAEXXZ 080c0320 f   jvmtiClassFileReconstituter.obj
 0001:000bf490       ?write_field_infos@JvmtiClassFileReconstituter@@AAEXXZ 080c0490 f   jvmtiClassFileReconstituter.obj
 0001:000bf9a0       ?write_code_attribute@JvmtiClassFileReconstituter@@AAEXVmethodHandle@@@Z 080c09a0 f   jvmtiClassFileReconstituter.obj
 0001:000bfcb0       ?write_method_info@JvmtiClassFileReconstituter@@AAEXVmethodHandle@@@Z 080c0cb0 f   jvmtiClassFileReconstituter.obj
 0001:000bff10       ?write_method_infos@JvmtiClassFileReconstituter@@AAEXXZ 080c0f10 f   jvmtiClassFileReconstituter.obj
 0001:000c0080       ?write_class_file_format@JvmtiClassFileReconstituter@@AAEXXZ 080c1080 f   jvmtiClassFileReconstituter.obj
 0001:000c02e0       ?grow@?$GrowableArray@PAVKlass@@@@AAEXH@Z 080c12e0 f i heapDumper.obj
 0001:000c02e0       ?grow@?$GrowableArray@PAVjvmtiDeferredLocalVariableSet@@@@AAEXH@Z 080c12e0 f i vframe_hp.obj
 0001:000c02e0       ?grow@?$GrowableArray@PAVCompilerThread@@@@AAEXH@Z 080c12e0 f i compileBroker.obj
 0001:000c02e0       ?grow@?$GrowableArray@PAV_jobject@@@@AAEXH@Z 080c12e0 f i oopRecorder.obj
 0001:000c02e0       ?grow@?$GrowableArray@PAVStackValue@@@@AAEXH@Z 080c12e0 f i vframe.obj
 0001:000c02e0       ?grow@?$GrowableArray@PAVciType@@@@AAEXH@Z 080c12e0 f i ciSignature.obj
 0001:000c02e0       ?grow@?$GrowableArray@PAVMonitorInfo@@@@AAEXH@Z 080c12e0 f i biasedLocking.obj
 0001:000c02e0       ?grow@?$GrowableArray@PAVJvmtiCodeBlobDesc@@@@AAEXH@Z 080c12e0 f i jvmtiCodeBlobEvents.obj
 0001:000c02e0       ?grow@?$GrowableArray@PAVJavaThread@@@@AAEXH@Z 080c12e0 f i thread.obj
