 jvm

 Timestamp is 4ecc5584 (Tue Nov 22 21:08:04 2011)

 Preferred load address is 08000000

 Start         Length     Name                   Class
 0001:00000000 00341efaH .text                   CODE
 0001:00341f00 00002272H .text$yc                CODE
 0001:00344180 000002e8H .text$yd                CODE
 0002:00000000 00000314H .idata$5                DATA
 0002:00000320 00081330H .rdata                  DATA
 0002:00081650 0000006cH .rdata$debug            DATA
 0002:000816bc 000000a4H .rdata$r                DATA
 0002:00081760 00000004H .rdata$sxdata           DATA
 0002:00081764 00000004H .rtc$IAA                DATA
 0002:00081768 00000004H .rtc$IZZ                DATA
 0002:0008176c 00000004H .rtc$TAA                DATA
 0002:00081770 00000004H .rtc$TZZ                DATA
 0002:00081774 00000054H .xdata$x                DATA
 0002:000817c8 00000064H .idata$2                DATA
 0002:0008182c 00000014H .idata$3                DATA
 0002:00081840 00000314H .idata$4                DATA
 0002:00081b54 00000ba2H .idata$6                DATA
 0002:00082700 0001455bH .edata                  DATA
 0003:00000000 00000004H .CRT$XCA                DATA
 0003:00000004 000001bcH .CRT$XCU                DATA
 0003:000001c0 00000004H .CRT$XCZ                DATA
 0003:000001c4 00000004H .CRT$XIA                DATA
 0003:000001c8 00000004H .CRT$XIZ                DATA
 0003:000001d0 00010e2cH .data                   DATA
 0003:00011000 00014f64H .bss                    DATA
 0004:00000000 00000058H .rsrc$01                DATA
 0004:00000060 000002c0H .rsrc$02                DATA

  Address         Publics by Value              Rva+Base     Lib:Object

 0000:00000000       __except_list              00000000     <absolute>
 0000:00000001       ___safe_se_handler_count   00000001     <absolute>
 0000:00009876       __fltused                  00009876     <absolute>
 0000:00009876       __ldused                   00009876     <absolute>
 0001:00000000       ?generate_stack_overflow_check@AbstractAssembler@@QAEXH@Z 08001000 f   assembler.obj
 0001:00000050       ?update_all@DelayedConstant@@SAXXZ 08001050 f   assembler.obj
 0001:00000080       ?update_delayed_values@AbstractAssembler@@SAXXZ 08001080 f   assembler.obj
 0001:00000090       ?needs_explicit_null_check@MacroAssembler@@SA_NH@Z 08001090 f   assembler.obj
 0001:000000c0       ?cmpxchg_ptr@Atomic@@SAPAXPAXPCX0@Z 080010c0 f i assembler.obj
 0001:000000f0       ?emit_byte@AbstractAssembler@@IAEXH@Z 080010f0 f i assembler.obj
 0001:00000150       ?emit_long@AbstractAssembler@@IAEXH@Z 08001150 f i assembler.obj
 0001:000001b0       ?start_a_stub@AbstractAssembler@@QAEPAEH@Z 080011b0 f   assembler.obj
 0001:00000250       ?end_a_const@AbstractAssembler@@QAEXXZ 08001250 f   assembler.obj
 0001:00000250       ?end_a_stub@AbstractAssembler@@QAEXXZ 08001250 f   assembler.obj
 0001:000002b0       ?start_a_const@AbstractAssembler@@QAEPAEHH@Z 080012b0 f   assembler.obj
 0001:00000390       ?flush@AbstractAssembler@@QAEXXZ 08001390 f   assembler.obj
 0001:000003e0       ?a_byte@AbstractAssembler@@QAEXH@Z 080013e0 f   assembler.obj
 0001:000003f0       ?a_long@AbstractAssembler@@QAEXH@Z 080013f0 f   assembler.obj
 0001:00000400       ?patch_instructions@Label@@QAEXPAVMacroAssembler@@@Z 08001400 f   assembler.obj
 0001:000004e0       ?add@DelayedConstant@@SAPAU1@W4BasicType@@P6AXXZ@Z 080014e0 f   assembler.obj
 0001:00000570       ?delayed_value_addr@AbstractAssembler@@SAPAHP6AHXZ@Z 08001570 f   assembler.obj
 0001:00000590       ??0?$FormatBuffer@$0BAA@@@QAA@PBDZZ 08001590 f i assembler.obj
 0001:000005c0       ??0AbstractAssembler@@QAE@PAVCodeBuffer@@@Z 080015c0 f   assembler.obj
 0001:00000640       ?bind@AbstractAssembler@@QAEXAAVLabel@@@Z 08001640 f   assembler.obj
 0001:000006b0       ?add_patch_at@Label@@QAEXPAVCodeBuffer@@H@Z 080016b0 f   assembler.obj
 0001:00000710       ?initialize_oop_recorder@CodeBuffer@@QAEXPAVOopRecorder@@@Z 08001710 f   codeBuffer.obj
 0001:00000720       ?initialize_shared_locs@CodeSection@@QAEXPAVrelocInfo@@H@Z 08001720 f   codeBuffer.obj
 0001:00000760       ?Amalloc@Arena@@QAEPAXI@Z  08001760 f i codeBuffer.obj
 0001:000007b0       ??2ResourceObj@@SAPAXIPAVArena@@@Z 080017b0 f i codeBuffer.obj
 0001:00000800       ?next@RelocIterator@@QAE_NXZ 08001800 f i codeBuffer.obj
 0001:00000870       ??0CodeBuffer@@QAE@PAEH@Z  08001870 f i codeBuffer.obj
 0001:00000950       ??0CodeBuffer@@QAE@PAVCodeBlob@@@Z 08001950 f   codeBuffer.obj
 0001:00000a30       ?section_index_of@CodeBuffer@@QBEHPAE@Z 08001a30 f   codeBuffer.obj
 0001:00000a60       ?locator_address@CodeBuffer@@QBEPAEH@Z 08001a60 f   codeBuffer.obj
 0001:00000a90       ?target@CodeSection@@QAEPAEAAVLabel@@PAE@Z 08001a90 f   codeBuffer.obj
 0001:00000af0       ?initialize_locs@CodeSection@@AAEXH@Z 08001af0 f   codeBuffer.obj
 0001:00000b40       ?initialize_section_size@CodeBuffer@@AAEXPAVCodeSection@@H@Z 08001b40 f   codeBuffer.obj
 0001:00000bb0       ?free_blob@CodeBuffer@@QAEXXZ 08001bb0 f   codeBuffer.obj
 0001:00000be0       ?create_patch_overflow@CodeBuffer@@QAEPAV?$GrowableArray@H@@XZ 08001be0 f   codeBuffer.obj
 0001:00000c80       ?expand_locs@CodeSection@@AAEXH@Z 08001c80 f   codeBuffer.obj
 0001:00000d20       ?total_content_size@CodeBuffer@@QBEHXZ 08001d20 f   codeBuffer.obj
 0001:00000d60       ?compute_final_layout@CodeBuffer@@ABEXPAV1@@Z 08001d60 f   codeBuffer.obj
 0001:00000e50       ?total_offset_of@CodeBuffer@@QBEHPAVCodeSection@@@Z 08001e50 f   codeBuffer.obj
 0001:00000eb0       ?copy_relocations_to@CodeBuffer@@ABEHPAVCodeBlob@@@Z 08001eb0 f   codeBuffer.obj
 0001:00001040       ?relocate_code_to@CodeBuffer@@ABEXPAV1@@Z 08002040 f   codeBuffer.obj
 0001:00001200       ?figure_expanded_capacities@CodeBuffer@@AAEHPAVCodeSection@@HPAH@Z 08002200 f   codeBuffer.obj
 0001:00001330       ?take_over_code_from@CodeBuffer@@AAEXPAV1@@Z 08002330 f   codeBuffer.obj
 0001:000013e0       ?initialize@CodeBuffer@@QAEXHH@Z 080023e0 f   codeBuffer.obj
 0001:00001480       ??1CodeBuffer@@QAE@XZ      08002480 f   codeBuffer.obj
 0001:000014e0       ?relocate@CodeSection@@QAEXPAEABVRelocationHolder@@H@Z 080024e0 f   codeBuffer.obj
 0001:000015c0       ?total_relocation_size@CodeBuffer@@QBEHXZ 080025c0 f   codeBuffer.obj
 0001:00001620       ?copy_code_to@CodeBuffer@@AAEXPAVCodeBlob@@@Z 08002620 f   codeBuffer.obj
 0001:00001680       ??0CodeBuffer@@QAE@PBDHH@Z 08002680 f i codeBuffer.obj
 0001:00001730       ?expand@CodeBuffer@@AAEXPAVCodeSection@@H@Z 08002730 f   codeBuffer.obj
 0001:000018e0       ?raw_pop@StateInfo@BCEscapeAnalyzer@@QAE?AVArgumentMap@2@XZ 080028e0 f i bcEscapeAnalyzer.obj
 0001:000018e0       ?apop@StateInfo@BCEscapeAnalyzer@@QAE?AVArgumentMap@2@XZ 080028e0 f i bcEscapeAnalyzer.obj
 0001:00001920       ?spop@StateInfo@BCEscapeAnalyzer@@QAEXXZ 08002920 f i bcEscapeAnalyzer.obj
 0001:00001950       ?lpop@StateInfo@BCEscapeAnalyzer@@QAEXXZ 08002950 f i bcEscapeAnalyzer.obj
 0001:000019a0       ?apush@StateInfo@BCEscapeAnalyzer@@QAEXVArgumentMap@2@@Z 080029a0 f i bcEscapeAnalyzer.obj
 0001:000019a0       ?raw_push@StateInfo@BCEscapeAnalyzer@@QAEXVArgumentMap@2@@Z 080029a0 f i bcEscapeAnalyzer.obj
 0001:000019f0       ?spush@StateInfo@BCEscapeAnalyzer@@QAEXXZ 080029f0 f i bcEscapeAnalyzer.obj
 0001:00001a40       ?lpush@StateInfo@BCEscapeAnalyzer@@QAEXXZ 08002a40 f i bcEscapeAnalyzer.obj
 0001:00001ad0       ?is_argument@BCEscapeAnalyzer@@AAE_NVArgumentMap@1@@Z 08002ad0 f   bcEscapeAnalyzer.obj
 0001:00001b10       ?clear_bits@BCEscapeAnalyzer@@AAEXVArgumentMap@1@AAVVectorSet@@@Z 08002b10 f   bcEscapeAnalyzer.obj
 0001:00001b60       ?set_method_escape@BCEscapeAnalyzer@@AAEXVArgumentMap@1@@Z 08002b60 f   bcEscapeAnalyzer.obj
 0001:00001b80       ?set_global_escape@BCEscapeAnalyzer@@AAEXVArgumentMap@1@@Z 08002b80 f   bcEscapeAnalyzer.obj
 0001:00001bb0       ?set_dirty@BCEscapeAnalyzer@@AAEXVArgumentMap@1@@Z 08002bb0 f   bcEscapeAnalyzer.obj
 0001:00001bd0       ?is_loaded@ciObject@@QBE_NXZ 08002bd0 f i bcEscapeAnalyzer.obj
 0001:00001bf0       ?is_primitive_type@ciType@@QBE_NXZ 08002bf0 f i bcEscapeAnalyzer.obj
 0001:00001bf0       ?is_classless@ciType@@UBE_NXZ 08002bf0 f i ciArrayKlass.obj
 0001:00001c10       ?is_initialized@ciInstanceKlass@@QAE_NXZ 08002c10 f i bcEscapeAnalyzer.obj
 0001:00001c50       ?is_final_method@ciMethod@@QBE_NXZ 08002c50 f i bcEscapeAnalyzer.obj
 0001:00001c80       ?reset_to_method@ciBytecodeStream@@QAEXPAVciMethod@@@Z 08002c80 f i bcEscapeAnalyzer.obj
 0001:00001cf0       ?next@ciBytecodeStream@@QAE?AW4Code@Bytecodes@@XZ 08002cf0 f i bcEscapeAnalyzer.obj
 0001:00001d40       ??0Bytecode_tableswitch@@QAE@PBVciBytecodeStream@@@Z 08002d40 f i bcEscapeAnalyzer.obj
 0001:00001d40       ??0Bytecode_lookupswitch@@QAE@PBVciBytecodeStream@@@Z 08002d40 f i bcEscapeAnalyzer.obj
 0001:00001d80       ?test@VectorSet@@QBEHI@Z   08002d80 f i bcEscapeAnalyzer.obj
 0001:00001dc0       ?set@VectorSet@@QAEXI@Z    08002dc0 f i bcEscapeAnalyzer.obj
 0001:00001e00       ?is_arg_stack@BCEscapeAnalyzer@@QBE_NH@Z 08002e00 f i bcEscapeAnalyzer.obj
 0001:00001e50       ?is_arg_returned@BCEscapeAnalyzer@@QBE_NH@Z 08002e50 f i bcEscapeAnalyzer.obj
 0001:00001ea0       ?set_returned@BCEscapeAnalyzer@@AAEXVArgumentMap@1@@Z 08002ea0 f   bcEscapeAnalyzer.obj
 0001:00001f60       ?is_arg_stack@BCEscapeAnalyzer@@AAE_NVArgumentMap@1@@Z 08002f60 f   bcEscapeAnalyzer.obj
 0001:00001fe0       ?set_arg_modified@BCEscapeAnalyzer@@QAEXHHH@Z 08002fe0 f   bcEscapeAnalyzer.obj
 0001:00002060       ?merge_block_states@BCEscapeAnalyzer@@AAEXPAVStateInfo@1@PAVciBlock@@0@Z 08003060 f   bcEscapeAnalyzer.obj
 0001:000021d0       ?initialize@BCEscapeAnalyzer@@AAEXXZ 080031d0 f   bcEscapeAnalyzer.obj
 0001:00002320       ?read_escape_info@BCEscapeAnalyzer@@AAEXXZ 08003320 f   bcEscapeAnalyzer.obj
 0001:00002430       ?current@ciEnv@@SAPAV1@XZ  08003430 f i bcEscapeAnalyzer.obj
 0001:00002450       ?length@Bytecode_tableswitch@@QAEHXZ 08003450 f i bcEscapeAnalyzer.obj
 0001:00002490       ??0ciBytecodeStream@@QAE@PAVciMethod@@@Z 08003490 f i bcEscapeAnalyzer.obj
 0001:000024b0       ?get_dest@ciBytecodeStream@@QBEHXZ 080034b0 f i bcEscapeAnalyzer.obj
 0001:000024f0       ?get_far_dest@ciBytecodeStream@@QBEHXZ 080034f0 f i bcEscapeAnalyzer.obj
 0001:00002530       ?set_modified@BCEscapeAnalyzer@@AAEXVArgumentMap@1@HH@Z 08003530 f   bcEscapeAnalyzer.obj
 0001:00002590       ?clear_escape_info@BCEscapeAnalyzer@@AAEXXZ 08003590 f   bcEscapeAnalyzer.obj
 0001:00002650       ?copy_dependencies@BCEscapeAnalyzer@@QAEXPAVDependencies@@@Z 08003650 f   bcEscapeAnalyzer.obj
 0001:000026c0       ?appendAll@?$GrowableArray@PAVciObject@@@@QAEXPBV1@@Z 080036c0 f i bcEscapeAnalyzer.obj
 0001:000026c0       ?appendAll@?$GrowableArray@PAVciField@@@@QAEXPBV1@@Z 080036c0 f i ciInstanceKlass.obj
 0001:000026c0       ?appendAll@?$GrowableArray@PAVPerfData@@@@QAEXPBV1@@Z 080036c0 f i perfData.obj
 0001:00002730       ?get_index_u2@ciBytecodeStream@@QBEH_N@Z 08003730 f i bcEscapeAnalyzer.obj
 0001:00002780       ?push@?$GrowableArray@PAVRFrame@@@@QAEXABQAVRFrame@@@Z 08003780 f i compilationPolicy.obj
 0001:00002780       ?append@?$GrowableArray@PAVScopeValue@@@@QAEHABQAVScopeValue@@@Z 08003780 f i debugInfo.obj
 0001:00002780       ?append@?$GrowableArray@PAE@@QAEHABQAE@Z 08003780 f i interpreterRuntime.obj
 0001:00002780       ?push@?$GrowableArray@PAVChangeItem@@@@QAEXABQAVChangeItem@@@Z 08003780 f i relocator.obj
 0001:00002780       ?push@?$GrowableArray@PAVciBlock@@@@QAEXABQAVciBlock@@@Z 08003780 f i bcEscapeAnalyzer.obj
 0001:00002780       ?append@?$GrowableArray@PAVAbstractLockNode@@@@QAEHABQAVAbstractLockNode@@@Z 08003780 f i callnode.obj
 0001:00002780       ?append@?$GrowableArray@H@@QAEHABH@Z 08003780 f i assembler.obj
 0001:00002780       ?append@?$GrowableArray@PAVBlock@ciTypeFlow@@@@QAEHABQAVBlock@ciTypeFlow@@@Z 08003780 f i ciTypeFlow.obj
 0001:00002780       ?append@?$GrowableArray@PAVoopDesc@@@@QAEHABQAVoopDesc@@@Z 08003780 f i dump.obj
 0001:000027b0       ?get_index@ciBytecodeStream@@QBEHXZ 080037b0 f i bcEscapeAnalyzer.obj
 0001:00002820       ?invoke@BCEscapeAnalyzer@@AAEXAAVStateInfo@1@W4Code@Bytecodes@@PAVciMethod@@PAVciKlass@@@Z 08003820 f   bcEscapeAnalyzer.obj
 0001:00002df0       ?iterate_one_block@BCEscapeAnalyzer@@AAEXPAVciBlock@@AAVStateInfo@1@AAV?$GrowableArray@PAVciBlock@@@@@Z 08003df0 f   bcEscapeAnalyzer.obj
 0001:00003bc0       ?iterate_blocks@BCEscapeAnalyzer@@AAEXPAVArena@@@Z 08004bc0 f   bcEscapeAnalyzer.obj
 0001:00004010       ?compute_escape_info@BCEscapeAnalyzer@@AAEXXZ 08005010 f   bcEscapeAnalyzer.obj
 0001:000043a0       ??0BCEscapeAnalyzer@@QAE@PAVciMethod@@PAV0@@Z 080053a0 f   bcEscapeAnalyzer.obj
 0001:00004520       ?print_impl@ciArray@@MAEXPAVoutputStream@@@Z 08005520 f   ciArray.obj
 0001:00004560       ??0ciArrayKlass@@IAE@PAVciSymbol@@HPAVciKlass@@@Z 08005560 f   ciArrayKlass.obj
 0001:00004590       ?type_string@ciArrayKlass@@MAEPBDXZ 08005590 f i ciArrayKlass.obj
 0001:000045a0       ??0ciArrayKlass@@IAE@VKlassHandle@@@Z 080055a0 f   ciArrayKlass.obj
 0001:000045d0       ?element_type@ciArrayKlass@@QAEPAVciType@@XZ 080055d0 f   ciArrayKlass.obj
 0001:00004600       ?base_element_type@ciArrayKlass@@QAEPAVciType@@XZ 08005600 f   ciArrayKlass.obj
 0001:00004630       ?is_leaf_type@ciArrayKlass@@UAE_NXZ 08005630 f   ciArrayKlass.obj
 0001:00004650       ?make@ciArrayKlass@@SAPAV1@PAVciType@@@Z 08005650 f   ciArrayKlass.obj
 0001:00004680       ?write_memory_serialize_page@os@@SAXPAVJavaThread@@@Z 08005680 f i ciCallSite.obj
 0001:000046a0       ?fence@OrderAccess@@SAXXZ  080056a0 f i ciCallSite.obj
 0001:000046b0       ??1HandleMarkCleaner@@QAE@XZ 080056b0 f i ciCallSite.obj
 0001:000046e0       ?serialize_memory@InterfaceSupport@@SAXPAVJavaThread@@@Z 080056e0 f i ciCallSite.obj
 0001:00004740       ?transition_and_fence@ThreadStateTransition@@SAXPAVJavaThread@@W4JavaThreadState@@1@Z 08005740 f i ciCallSite.obj
 0001:000047a0       ?transition_from_native@ThreadStateTransition@@SAXPAVJavaThread@@W4JavaThreadState@@@Z 080057a0 f i ciCallSite.obj
 0001:00004810       ??0ThreadInVMfromNative@@QAE@PAVJavaThread@@@Z 08005810 f i ciCallSite.obj
 0001:00004830       ??1ThreadInVMfromNative@@QAE@XZ 08005830 f i ciCallSite.obj
 0001:00004840       ?get_object@ciEnv@@AAEPAVciObject@@PAVoopDesc@@@Z 08005840 f i ciCallSite.obj
 0001:00004860       ?get_target@ciCallSite@@QBEPAVciMethodHandle@@XZ 08005860 f   ciCallSite.obj
 0001:00004900       ?find@ciConstantPoolCache@@AAEHH@Z 08005900 f   ciConstantPoolCache.obj
 0001:00004940       ??0ciConstantPoolCache@@QAE@PAVArena@@H@Z 08005940 f   ciConstantPoolCache.obj
 0001:00004a00       ?get@ciConstantPoolCache@@QAEPAXH@Z 08005a00 f   ciConstantPoolCache.obj
 0001:00004a40       ?insert@ciConstantPoolCache@@QAEXHPAX@Z 08005a40 f   ciConstantPoolCache.obj
 0001:00004ba0       ?get_f1_offset@ciCPCache@@QAEIH@Z 08005ba0 f   ciCPCache.obj
 0001:00004bc0       ?is_f1_null_at@ciCPCache@@QAE_NH@Z 08005bc0 f   ciCPCache.obj
 0001:00004c40       ?get_pool_index@ciCPCache@@QAEHH@Z 08005c40 f   ciCPCache.obj
 0001:00004cf0       ?cache_dtrace_flags@ciEnv@@QAEXXZ 08005cf0 f   ciEnv.obj
 0001:00004d30       ?Amalloc_4@Arena@@QAEPAXI@Z 08005d30 f i ciEnv.obj
 0001:00004d80       ?double_at@constantPoolOopDesc@@QAENH@Z 08005d80 f i ciEnv.obj
 0001:00004da0       ?method_handle_name_ref_at@constantPoolOopDesc@@QAEPAVsymbolOopDesc@@H@Z 08005da0 f i ciEnv.obj
 0001:00004dc0       ?method_handle_signature_ref_at@constantPoolOopDesc@@QAEPAVsymbolOopDesc@@H@Z 08005dc0 f i ciEnv.obj
 0001:00004de0       ?method_handle_klass_index_at@constantPoolOopDesc@@QAEHH@Z 08005de0 f i ciEnv.obj
 0001:00004e00       ?klass_ref_index_at@constantPoolOopDesc@@QAEHH@Z 08005e00 f i ciEnv.obj
 0001:00004e20       ??0MutexLocker@@QAE@PAVMonitor@@@Z 08005e20 f i ciEnv.obj
 0001:00004e40       ??0MutexLocker@@QAE@PAVMonitor@@PAVThread@@@Z 08005e40 f i ciEnv.obj
 0001:00004e60       ??0Handle@@QAE@PAVThread@@PAVoopDesc@@@Z 08005e60 f i ciEnv.obj
 0001:00004ed0       ?get_unloaded_klass@ciEnv@@AAEPAVciKlass@@PAV2@PAVciSymbol@@@Z 08005ed0 f i ciEnv.obj
 0001:00004ef0       ?check_klass_accessibility@ciEnv@@AAE_NPAVciKlass@@PAVklassOopDesc@@@Z 08005ef0 f   ciEnv.obj
 0001:00004f60       ?get_field_by_index_impl@ciEnv@@AAEPAVciField@@PAVciInstanceKlass@@H@Z 08005f60 f   ciEnv.obj
 0001:00005000       ?name_buffer@ciEnv@@AAEPADH@Z 08006000 f   ciEnv.obj
 0001:00005050       ?comp_level@ciEnv@@QAEHXZ  08006050 f   ciEnv.obj
 0001:00005070       ?compile_id@ciEnv@@QAEIXZ  08006070 f   ciEnv.obj
 0001:00005080       ?notice_inlined_method@ciEnv@@QAEXPAVciMethod@@@Z 08006080 f   ciEnv.obj
 0001:00005090       ?record_failure@ciEnv@@QAEXPBD@Z 08006090 f   ciEnv.obj
 0001:000050c0       ?record_method_not_compilable@ciEnv@@QAEXPBD_N@Z 080060c0 f   ciEnv.obj
 0001:00005130       ?record_out_of_memory_failure@ciEnv@@QAEXXZ 08006130 f   ciEnv.obj
 0001:00005190       ?is_resolved@ConstantPoolCacheEntry@@QBE_NW4Code@Bytecodes@@@Z 08006190 f i ciEnv.obj
 0001:00005210       ?main_entry_at@constantPoolCacheOopDesc@@QBEPAVConstantPoolCacheEntry@@H@Z 08006210 f i ciEnv.obj
 0001:00005240       ?string_at@constantPoolOopDesc@@QAEPAVoopDesc@@HPAVThread@@@Z 08006240 f i ciEnv.obj
 0001:00005270       ??0ResourceMark@@QAE@XZ    08006270 f i ciEnv.obj
 0001:000052b0       ?reset_to_mark@ResourceMark@@QAEXXZ 080062b0 f i ciEnv.obj
 0001:000052b0       ??1ResourceMark@@QAE@XZ    080062b0 f i ciEnv.obj
 0001:000052b0       ??1SafeResourceMark@@QAE@XZ 080062b0 f i jvmtiEventController.obj
 0001:000052e0       ?write_ref_field@BarrierSet@@QAEXPAXPAVoopDesc@@@Z 080062e0 f i ciEnv.obj
 0001:00005300       ??0Handle@@QAE@PAVoopDesc@@@Z 08006300 f i ciEnv.obj
 0001:00005380       ?new_symbol_handle@oopFactory@@SA?AVsymbolHandle@@PBDHPAVThread@@@Z 08006380 f i ciEnv.obj
 0001:000053b0       ??0ciEnv@@QAE@PAVCompileTask@@H@Z 080063b0 f   ciEnv.obj
 0001:00005500       ??0ciEnv@@QAE@PAVArena@@@Z 08006500 f   ciEnv.obj
 0001:00005600       ??1ciEnv@@QAE@XZ           08006600 f   ciEnv.obj
 0001:00005630       ?cache_jvmti_state@ciEnv@@QAEXXZ 08006630 f   ciEnv.obj
 0001:000056c0       ?get_or_create_exception@ciEnv@@AAEPAVciInstance@@AAPAV_jobject@@VsymbolHandle@@@Z 080066c0 f   ciEnv.obj
 0001:000057b0       ?ArrayIndexOutOfBoundsException_instance@ciEnv@@QAEPAVciInstance@@XZ 080067b0 f   ciEnv.obj
 0001:000057e0       ?ArrayStoreException_instance@ciEnv@@QAEPAVciInstance@@XZ 080067e0 f   ciEnv.obj
 0001:00005810       ?ClassCastException_instance@ciEnv@@QAEPAVciInstance@@XZ 08006810 f   ciEnv.obj
 0001:00005840       ?the_null_string@ciEnv@@QAEPAVciInstance@@XZ 08006840 f   ciEnv.obj
 0001:000058d0       ?the_min_jint_string@ciEnv@@QAEPAVciInstance@@XZ 080068d0 f   ciEnv.obj
 0001:00005960       ?get_method_from_handle@ciEnv@@AAEPAVciMethod@@PAV_jobject@@@Z 08006960 f   ciEnv.obj
 0001:000059f0       ?get_klass_by_name_impl@ciEnv@@AAEPAVciKlass@@PAV2@PAVciSymbol@@_N@Z 080069f0 f   ciEnv.obj
 0001:00005d00       ?lookup_method@ciEnv@@AAEPAVmethodOopDesc@@PAVinstanceKlass@@0PAVsymbolOopDesc@@1W4Code@Bytecodes@@@Z 08006d00 f   ciEnv.obj
 0001:00005e70       ?get_fake_invokedynamic_method_impl@ciEnv@@AAEPAVciMethod@@VconstantPoolHandle@@HW4Code@Bytecodes@@@Z 08006e70 f   ciEnv.obj
 0001:00005f70       ?get_instance_klass_for_declared_method_holder@ciEnv@@SAPAVciInstanceKlass@@PAVciKlass@@@Z 08006f70 f   ciEnv.obj
 0001:00005fc0       ?is_in_vm@ciEnv@@CA_NXZ    08006fc0 f   ciEnv.obj
 0001:00005fe0       ?check_for_system_dictionary_modification@ciEnv@@AAEXPAVciMethod@@@Z 08006fe0 f   ciEnv.obj
 0001:00006070       ?register_method@ciEnv@@QAEXPAVciMethod@@HPAVCodeOffsets@@HPAVCodeBuffer@@HPAVOopMapSet@@PAVExceptionHandlerTable@@PAVImplicitExceptionTable@@PAVAbstractCompiler@@H_N7@Z 08007070 f   ciEnv.obj
 0001:00006410       ?find_system_klass@ciEnv@@QAEPAVciKlass@@PAVciSymbol@@@Z 08007410 f   ciEnv.obj
 0001:00006480       ?header_size@arrayOopDesc@@SAHW4BasicType@@@Z 08007480 f i ciEnv.obj
 0001:000064a0       ?get_klass_by_name@ciEnv@@AAEPAVciKlass@@PAV2@PAVciSymbol@@_N@Z 080074a0 f   ciEnv.obj
 0001:00006550       ?get_field_by_index@ciEnv@@AAEPAVciField@@PAVciInstanceKlass@@H@Z 08007550 f   ciEnv.obj
 0001:000065f0       ?base_offset_in_bytes@arrayOopDesc@@SAHW4BasicType@@@Z 080075f0 f i ciEnv.obj
 0001:00006620       ?base@objArrayOopDesc@@QBEPAVHeapWord@@XZ 08007620 f i ciEnv.obj
 0001:00006630       ?resolved_klass_at@constantPoolOopDesc@@QAEPAVklassOopDesc@@H@Z 08007630 f i ciEnv.obj
 0001:00006670       ??$oop_store@PAVoopDesc@@@@YAXPAPAVoopDesc@@PAV0@@Z 08007670 f i ciEnv.obj
 0001:000066c0       ?get_klass_by_index_impl@ciEnv@@AAEPAVciKlass@@VconstantPoolHandle@@HAA_NPAVciInstanceKlass@@@Z 080076c0 f   ciEnv.obj
 0001:000068a0       ?get_klass_by_index@ciEnv@@AAEPAVciKlass@@VconstantPoolHandle@@HAA_NPAVciInstanceKlass@@@Z 080078a0 f   ciEnv.obj
 0001:00006950       ?get_constant_by_index_impl@ciEnv@@AAE?AVciConstant@@VconstantPoolHandle@@HHPAVciInstanceKlass@@@Z 08007950 f   ciEnv.obj
 0001:00006bd0       ?get_constant_by_index@ciEnv@@AAE?AVciConstant@@VconstantPoolHandle@@HHPAVciInstanceKlass@@@Z 08007bd0 f   ciEnv.obj
 0001:00006c90       ?get_method_by_index_impl@ciEnv@@AAEPAVciMethod@@VconstantPoolHandle@@HW4Code@Bytecodes@@PAVciInstanceKlass@@@Z 08007c90 f   ciEnv.obj
 0001:00006d70       ?get_method_by_index@ciEnv@@AAEPAVciMethod@@VconstantPoolHandle@@HW4Code@Bytecodes@@PAVciInstanceKlass@@@Z 08007d70 f   ciEnv.obj
 0001:00006e90       ?obj_at@objArrayOopDesc@@QBEPAVoopDesc@@H@Z 08007e90 f i ciEnv.obj
 0001:00006ea0       ?obj_at_put@objArrayOopDesc@@QAEXHPAVoopDesc@@@Z 08007ea0 f i ciEnv.obj
 0001:00006ec0       ?catch_klass@ciExceptionHandler@@QAEPAVciInstanceKlass@@XZ 08007ec0 f   ciExceptionHandler.obj
 0001:00007020       ?field_type@fieldDescriptor@@QBE?AW4BasicType@@XZ 08008020 f i ciField.obj
 0001:00007090       ?obj_field@oopDesc@@QBEPAV1@H@Z 08008090 f i ciField.obj
 0001:000070a0       ?is_shared@ciField@@QAE_NXZ 080080a0 f i ciField.obj
 0001:000070c0       ?compute_type_impl@ciField@@AAEPAVciType@@XZ 080080c0 f   ciField.obj
 0001:00007140       ?will_link@ciField@@QAE_NPAVciInstanceKlass@@W4Code@Bytecodes@@@Z 08008140 f   ciField.obj
 0001:000072b0       ?compute_type@ciField@@AAEPAVciType@@XZ 080082b0 f   ciField.obj
 0001:00007330       ?initialize_from@ciField@@AAEXPAVfieldDescriptor@@@Z 08008330 f   ciField.obj
 0001:00007690       ??0ciField@@AAE@PAVciInstanceKlass@@H@Z 08008690 f   ciField.obj
 0001:00007870       ??0ciField@@AAE@PAVfieldDescriptor@@@Z 08008870 f   ciField.obj
 0001:00007950       ?print_klass_flags@ciFlags@@QAEXPAVoutputStream@@@Z 08008950 f   ciFlags.obj
 0001:000079e0       ?print_member_flags@ciFlags@@QAEXPAVoutputStream@@@Z 080089e0 f   ciFlags.obj
 0001:00007af0       ?print_impl@ciInstance@@MAEXPAVoutputStream@@@Z 08008af0 f   ciInstance.obj
 0001:00007b20       ?java_mirror_type@ciInstance@@QAEPAVciType@@XZ 08008b20 f   ciInstance.obj
 0001:00007c20       ?field_value@ciInstance@@QAE?AVciConstant@@PAVciField@@@Z 08008c20 f   ciInstance.obj
 0001:00007e60       ?field_value_by_offset@ciInstance@@QAE?AVciConstant@@H@Z 08008e60 f   ciInstance.obj
 0001:00007e90       ?loader_handle@ciInstanceKlass@@MAEPAV_jobject@@XZ 08008e90 f   ciInstanceKlass.obj
 0001:00007ea0       ?objects@ScopeDesc@@QAEPAV?$GrowableArray@PAVScopeValue@@@@XZ 08008ea0 f   scopeDesc.obj
 0001:00007ea0       ?protection_domain_handle@ciInstanceKlass@@MAEPAV_jobject@@XZ 08008ea0 f   ciInstanceKlass.obj
 0001:00007eb0       ?uses_default_loader@ciInstanceKlass@@QAE_NXZ 08008eb0 f   ciInstanceKlass.obj
 0001:00007ec0       ?java_mirror@ciInstanceKlass@@UAEPAVciInstance@@XZ 08008ec0 f   ciInstanceKlass.obj
 0001:00007ee0       ??0ciInstanceKlass@@IAE@PAVciSymbol@@PAV_jobject@@1@Z 08008ee0 f   ciInstanceKlass.obj
 0001:00007f40       ?type_string@ciInstanceKlass@@MAEPBDXZ 08008f40 f i ciInstanceKlass.obj
 0001:00007f50       ?is_interface@ciInstanceKlass@@UAE_NXZ 08008f50 f i ciInstanceKlass.obj
 0001:00007f60       ?is_abstract@ciInstanceKlass@@UAE_NXZ 08008f60 f i ciInstanceKlass.obj
 0001:00007f70       ?loader@ciInstanceKlass@@MAEPAVoopDesc@@XZ 08008f70 f   ciInstanceKlass.obj
 0001:00007f80       ?protection_domain@ciInstanceKlass@@MAEPAVoopDesc@@XZ 08008f80 f   ciInstanceKlass.obj
 0001:00007f90       ?is_in_package_impl@ciInstanceKlass@@IAE_NPBDH@Z 08008f90 f   ciInstanceKlass.obj
 0001:00008020       ?is_leaf_type@ciInstanceKlass@@UAE_NXZ 08009020 f   ciInstanceKlass.obj
 0001:00008050       ?compute_shared_init_state@ciInstanceKlass@@IAEXXZ 08009050 f   ciInstanceKlass.obj
 0001:000080d0       ?compute_shared_has_subklass@ciInstanceKlass@@IAE_NXZ 080090d0 f   ciInstanceKlass.obj
 0001:00008170       ?compute_shared_nof_implementors@ciInstanceKlass@@IAEHXZ 08009170 f   ciInstanceKlass.obj
 0001:00008200       ?field_cache@ciInstanceKlass@@IAEPAVciConstantPoolCache@@XZ 08009200 f   ciInstanceKlass.obj
 0001:00008260       ?is_java_lang_Object@ciInstanceKlass@@UAE_NXZ 08009260 f   ciInstanceKlass.obj
 0001:00008280       ?is_in_package@ciInstanceKlass@@QAE_NPBDH@Z 08009280 f   ciInstanceKlass.obj
 0001:00008320       ?super@ciInstanceKlass@@QAEPAV1@XZ 08009320 f   ciInstanceKlass.obj
 0001:00008400       ?has_finalizable_subclass@ciInstanceKlass@@QAE_NXZ 08009400 f   ciInstanceKlass.obj
 0001:00008490       ?get_field_by_name@ciInstanceKlass@@QAEPAVciField@@PAVciSymbol@@0_N@Z 08009490 f   ciInstanceKlass.obj
 0001:00008590       ?implementor@ciInstanceKlass@@QAEPAV1@H@Z 08009590 f   ciInstanceKlass.obj
 0001:00008650       ?has_subklass@ciInstanceKlass@@QAE_NXZ 08009650 f i ciInstanceKlass.obj
 0001:00008680       ??0ciInstanceKlass@@IAE@VKlassHandle@@@Z 08009680 f   ciInstanceKlass.obj
 0001:000087c0       ?print_impl@ciInstanceKlass@@MAEXPAVoutputStream@@@Z 080097c0 f   ciInstanceKlass.obj
 0001:00008980       ?unique_concrete_subklass@ciInstanceKlass@@QAEPAV1@XZ 08009980 f   ciInstanceKlass.obj
 0001:00008a50       ?do_field@NonStaticFieldFiller@@UAEXPAVfieldDescriptor@@@Z 08009a50 f i ciInstanceKlass.obj
 0001:00008ad0       ?compute_nonstatic_fields_impl@ciInstanceKlass@@IAEPAV?$GrowableArray@PAVciField@@@@PAV2@@Z 08009ad0 f   ciInstanceKlass.obj
 0001:00008c60       ?compute_nonstatic_fields@ciInstanceKlass@@IAEHXZ 08009c60 f   ciInstanceKlass.obj
 0001:00008da0       ?get_canonical_holder@ciInstanceKlass@@QAEPAV1@H@Z 08009da0 f   ciInstanceKlass.obj
 0001:00008e10       ?get_field_by_offset@ciInstanceKlass@@QAEPAVciField@@H_N@Z 08009e10 f   ciInstanceKlass.obj
 0001:00008f50       ?make@ciInstanceKlassKlass@@SAPAV1@XZ 08009f50 f   ciInstanceKlassKlass.obj
 0001:00008f70       ??0ciKlass@@IAE@VKlassHandle@@PAVciSymbol@@@Z 08009f70 f   ciKlass.obj
 0001:00008fa0       ??0ciKlass@@IAE@PAVciSymbol@@PAV0@@Z 08009fa0 f   ciKlass.obj
 0001:00008fd0       ?print_impl@ciKlass@@MAEXPAVoutputStream@@@Z 08009fd0 f   ciKlass.obj
 0001:00009000       ?is_subtype_of@Klass@@QBE_NPAVklassOopDesc@@@Z 0800a000 f i ciKlass.obj
 0001:00009030       ?type_string@ciKlass@@MAEPBDXZ 0800a030 f i ciKlass.obj
 0001:00009040       ?print_name_on@ciKlass@@UAEXPAVoutputStream@@@Z 0800a040 f   ciKlass.obj
 0001:00009050       ??0ciKlass@@QAE@VKlassHandle@@@Z 0800a050 f   ciKlass.obj
 0001:000090c0       ?is_subtype_of@ciKlass@@QAE_NPAV1@@Z 0800a0c0 f   ciKlass.obj
 0001:00009160       ?is_subclass_of@ciKlass@@QAE_NPAV1@@Z 0800a160 f   ciKlass.obj
 0001:000091e0       ?super_depth@ciKlass@@QAEIXZ 0800a1e0 f   ciKlass.obj
 0001:00009260       ?super_check_offset@ciKlass@@QAEIXZ 0800a260 f   ciKlass.obj
 0001:000092d0       ?super_of_depth@ciKlass@@QAEPAV1@I@Z 0800a2d0 f   ciKlass.obj
 0001:00009360       ?least_common_ancestor@ciKlass@@QAEPAV1@PAV1@@Z 0800a360 f   ciKlass.obj
 0001:00009460       ?java_mirror@ciKlass@@UAEPAVciInstance@@XZ 0800a460 f   ciKlass.obj
 0001:000095c0       ?modifier_flags@ciKlass@@QAEHXZ 0800a5c0 f   ciKlass.obj
 0001:00009650       ?access_flags@ciKlass@@QAEHXZ 0800a650 f   ciKlass.obj
 0001:000096e0       ?make@ciKlassKlass@@SAPAV1@XZ 0800a6e0 f   ciKlassKlass.obj
 0001:00009700       ?fill_stackmap_for_opcodes@ResolveOopMapConflicts@@EAEXPAVBytecodeStream@@PAVCellTypeState@@1H@Z 0800a700 f i rewriter.obj
 0001:00009700       ?write_prim_field@ModRefBarrierSet@@UAEXPAVHeapWord@@III@Z 0800a700 f i cardTableModRefBS.obj
 0001:00009700       ?fill_stackmap_for_opcodes@GeneratePairingInfo@@EAEXPAVBytecodeStream@@PAVCellTypeState@@1H@Z 0800a700 f i ciMethod.obj
 0001:00009700       ?interval_moved@IntervalWalker@@MAEXPAVInterval@@W4IntervalKind@@W4IntervalState@@2@Z 0800a700 f i c1_LinearScan.obj
 0001:00009710       ?add_receiver@ciCallProfile@@AAEXPAVciKlass@@H@Z 0800a710 f   ciMethod.obj
 0001:00009760       ??0HandleMark@@QAE@PAVThread@@@Z 0800a760 f i ciMethod.obj
 0001:00009780       ?has_loops@methodOopDesc@@QAE_NXZ 0800a780 f i ciMethod.obj
 0001:000097a0       ?is_not_osr_compilable@methodOopDesc@@QBE_NH@Z 0800a7a0 f i ciMethod.obj
 0001:000097d0       ??0ResourceMark@@QAE@PAVThread@@@Z 0800a7d0 f i ciMethod.obj
 0001:00009800       ?will_link@ciMethod@@QAE_NPAVciKlass@@0W4Code@Bytecodes@@@Z 0800a800 f   ciMethod.obj
 0001:00009820       ?print_impl@ciMethod@@EAEXPAVoutputStream@@@Z 0800a820 f   ciMethod.obj
 0001:000098c0       ??0ciMethod@@AAE@PAVciInstanceKlass@@PAVciSymbol@@1@Z 0800a8c0 f   ciMethod.obj
 0001:00009970       ?type_string@ciMethod@@EAEPBDXZ 0800a970 f i ciMethod.obj
 0001:00009980       ?vtable_index@ciMethod@@QAEHXZ 0800a980 f   ciMethod.obj
 0001:000099f0       ?has_balanced_monitors@ciMethod@@QAE_NXZ 0800a9f0 f   ciMethod.obj
 0001:00009ba0       ?get_flow_analysis@ciMethod@@QAEPAVciTypeFlow@@XZ 0800aba0 f   ciMethod.obj
 0001:00009c00       ?get_osr_flow_analysis@ciMethod@@QAEPAVciTypeFlow@@H@Z 0800ac00 f   ciMethod.obj
 0001:00009c80       ?raw_liveness_at_bci@ciMethod@@QAE?AVMethodLivenessResult@@H@Z 0800ac80 f   ciMethod.obj
 0001:00009ce0       ?liveness_at_bci@ciMethod@@QAE?AVMethodLivenessResult@@H@Z 0800ace0 f   ciMethod.obj
 0001:00009d40       ?bci_block_start@ciMethod@@QAE?BVBitMap@@XZ 0800ad40 f   ciMethod.obj
 0001:00009da0       ?resolve_invoke@ciMethod@@QAEPAV1@PAVciKlass@@0@Z 0800ada0 f   ciMethod.obj
 0001:00009f80       ?resolve_vtable_index@ciMethod@@QAEHPAVciKlass@@0@Z 0800af80 f   ciMethod.obj
 0001:0000a0d0       ?is_method_handle_invoke@ciMethod@@QBE_NXZ 0800b0d0 f   ciMethod.obj
 0001:0000a190       ?is_method_handle_adapter@ciMethod@@QBE_NXZ 0800b190 f   ciMethod.obj
 0001:0000a220       ?ensure_method_data@ciMethod@@AAE_NVmethodHandle@@@Z 0800b220 f   ciMethod.obj
 0001:0000a300       ?method_data@ciMethod@@QAEPAVciMethodData@@XZ 0800b300 f   ciMethod.obj
 0001:0000a410       ?method_data_or_null@ciMethod@@QAEPAVciMethodData@@XZ 0800b410 f   ciMethod.obj
 0001:0000a420       ?should_exclude@ciMethod@@QAE_NXZ 0800b420 f   ciMethod.obj
 0001:0000a4b0       ?should_inline@ciMethod@@QAE_NXZ 0800b4b0 f   ciMethod.obj
 0001:0000a530       ?should_not_inline@ciMethod@@QAE_NXZ 0800b530 f   ciMethod.obj
 0001:0000a5b0       ?should_print_assembly@ciMethod@@QAE_NXZ 0800b5b0 f   ciMethod.obj
 0001:0000a630       ?break_at_execute@ciMethod@@QAE_NXZ 0800b630 f   ciMethod.obj
 0001:0000a6b0       ?has_option@ciMethod@@QAE_NPBD@Z 0800b6b0 f   ciMethod.obj
 0001:0000a740       ?can_be_compiled@ciMethod@@QAE_NXZ 0800b740 f   ciMethod.obj
 0001:0000a770       ?has_compiled_code@ciMethod@@QAE_NXZ 0800b770 f   ciMethod.obj
 0001:0000a7e0       ?instructions_size@ciMethod@@QAEHH@Z 0800b7e0 f   ciMethod.obj
 0001:0000a8f0       ?log_nmethod_identity@ciMethod@@QAEXPAVxmlStream@@@Z 0800b8f0 f   ciMethod.obj
 0001:0000a990       ?was_executed_more_than@ciMethod@@QAE_NH@Z 0800b990 f   ciMethod.obj
 0001:0000aa00       ?has_unloaded_classes_in_signature@ciMethod@@QAE_NXZ 0800ba00 f   ciMethod.obj
 0001:0000aaf0       ?is_klass_loaded@ciMethod@@QBE_NH_N@Z 0800baf0 f   ciMethod.obj
 0001:0000ab70       ?check_call@ciMethod@@QBE_NH_N@Z 0800bb70 f   ciMethod.obj
 0001:0000acb0       ?has_loops@ciMethod@@QBE_NXZ 0800bcb0 f   ciMethod.obj
 0001:0000ad30       ?has_jsrs@ciMethod@@QBE_NXZ 0800bd30 f   ciMethod.obj
 0001:0000adb0       ?is_accessor@ciMethod@@QBE_NXZ 0800bdb0 f   ciMethod.obj
 0001:0000ae20       ?is_initializer@ciMethod@@QBE_NXZ 0800be20 f   ciMethod.obj
 0001:0000ae90       ?get_bcea@ciMethod@@QAEPAVBCEscapeAnalyzer@@XZ 0800be90 f   ciMethod.obj
 0001:0000aee0       ?get_method_blocks@ciMethod@@QAEPAVciMethodBlocks@@XZ 0800bee0 f   ciMethod.obj
 0001:0000af30       ?print_name@ciMethod@@QAEXPAVoutputStream@@@Z 0800bf30 f   ciMethod.obj
 0001:0000af90       ?print_short_name@ciMethod@@QAEXPAVoutputStream@@@Z 0800bf90 f   ciMethod.obj
 0001:0000b020       ??0methodHandle@@QAE@PAVmethodOopDesc@@@Z 0800c020 f i ciMethod.obj
 0001:0000b020       ??0symbolHandle@@QAE@PAVsymbolOopDesc@@@Z 0800c020 f i classFileParser.obj
 0001:0000b040       ??0ciMethod@@AAE@VmethodHandle@@@Z 0800c040 f   ciMethod.obj
 0001:0000b390       ?live_local_oops_at_bci@ciMethod@@QAE?AVBitMap@@H@Z 0800c390 f   ciMethod.obj
 0001:0000b4f0       ?call_profile_at_bci@ciMethod@@QAE?AVciCallProfile@@H@Z 0800c4f0 f   ciMethod.obj
 0001:0000b6c0       ?find_monomorphic_target@ciMethod@@QAEPAV1@PAVciInstanceKlass@@00@Z 0800c6c0 f   ciMethod.obj
 0001:0000b810       ?scale_count@ciMethod@@QAEHHM@Z 0800c810 f   ciMethod.obj
 0001:0000b8d0       ?ensure_method_data@ciMethod@@QAE_NXZ 0800c8d0 f   ciMethod.obj
 0001:0000b980       ?load_code@ciMethod@@AAEXXZ 0800c980 f   ciMethod.obj
 0001:0000bc40       ?interpreter_call_site_count@ciMethod@@QAEHH@Z 0800cc40 f   ciMethod.obj
 0001:0000bd10       ?block_containing@ciMethodBlocks@@QAEPAVciBlock@@H@Z 0800cd10 f   ciMethodBlocks.obj
 0001:0000bd20       ?next@ciExceptionHandlerStream@@QAEXXZ 0800cd20 f i ciMethodBlocks.obj
 0001:0000bde0       ?make_dummy_block@ciMethodBlocks@@QAEPAVciBlock@@XZ 0800cde0 f   ciMethodBlocks.obj
 0001:0000be40       ?clear_processed@ciMethodBlocks@@QAEXXZ 0800ce40 f   ciMethodBlocks.obj
 0001:0000be70       ?split_block_at@ciMethodBlocks@@QAEPAVciBlock@@H@Z 0800ce70 f   ciMethodBlocks.obj
 0001:0000bf70       ?make_block_at@ciMethodBlocks@@QAEPAVciBlock@@H@Z 0800cf70 f   ciMethodBlocks.obj
 0001:0000c000       ?do_analysis@ciMethodBlocks@@AAEXXZ 0800d000 f   ciMethodBlocks.obj
 0001:0000c380       ??0ciMethodBlocks@@QAE@PAVArena@@PAVciMethod@@@Z 0800d380 f   ciMethodBlocks.obj
 0001:0000c630       ?is_set_nth_bit@@YA_NHH@Z  0800d630 f i ciMethodData.obj
 0001:0000c660       ?cell_count@ProfileData@@UAEHXZ 0800d660 f i ciMethodData.obj
 0001:0000c680       ?oop_verify_old_oop@objArrayKlass@@UAEXPAVoopDesc@@PAPAV2@_N@Z 0800d680 f i objArrayKlass.obj
 0001:0000c680       ?contribute_scratch@Generation@@UAEXAAPAUScratchBlock@@PAV1@I@Z 0800d680 f i compactingPermGenGen.obj
 0001:0000c680       ?oop_verify_old_oop@objArrayKlass@@UAEXPAVoopDesc@@PAI_N@Z 0800d680 f i objArrayKlass.obj
 0001:0000c680       ?oop_iterate_m@ReceiverTypeData@@UAEXPAVOopClosure@@VMemRegion@@@Z 0800d680 f i methodDataOop.obj
 0001:0000c680       ?oop_verify_old_oop@Klass@@UAEXPAVoopDesc@@PAPAV2@_N@Z 0800d680 f i klass.obj
 0001:0000c680       ?oop_verify_old_oop@Klass@@UAEXPAVoopDesc@@PAI_N@Z 0800d680 f i klass.obj
 0001:0000c680       ?oop_iterate_m@ProfileData@@UAEXPAVOopClosure@@VMemRegion@@@Z 0800d680 f i ciMethodData.obj
 0001:0000c690       ?print_data_on@ProfileData@@UAEXPAVoutputStream@@@Z 0800d690 f i ciMethodData.obj
 0001:0000c6b0       ?cell_count@ReceiverTypeData@@UAEHXZ 0800d6b0 f i ciMethodData.obj
 0001:0000c6b0       ?cell_count@VirtualCallData@@UAEHXZ 0800d6b0 f i ciMethodData.obj
 0001:0000c6c0       ?cell_count@ArrayData@@UAEHXZ 0800d6c0 f i ciMethodData.obj
 0001:0000c6d0       ?data_at@ciMethodData@@QAEPAVProfileData@@H@Z 0800d6d0 f   ciMethodData.obj
 0001:0000c850       ?has_trap_at@ciMethodData@@QAEHPAVProfileData@@H@Z 0800d850 f   ciMethodData.obj
 0001:0000c8c0       ?trap_recompiled_at@ciMethodData@@QAEHPAVProfileData@@@Z 0800d8c0 f   ciMethodData.obj
 0001:0000c900       ?set_eflag@ciMethodData@@QAEXW4EscapeFlag@methodDataOopDesc@@@Z 0800d900 f   ciMethodData.obj
 0001:0000c920       ?eflag_set@ciMethodData@@QBE_NW4EscapeFlag@methodDataOopDesc@@@Z 0800d920 f   ciMethodData.obj
 0001:0000c940       ?set_arg_local@ciMethodData@@QAEXH@Z 0800d940 f   ciMethodData.obj
 0001:0000c970       ?set_arg_stack@ciMethodData@@QAEXH@Z 0800d970 f   ciMethodData.obj
 0001:0000c9a0       ?set_arg_returned@ciMethodData@@QAEXH@Z 0800d9a0 f   ciMethodData.obj
 0001:0000c9d0       ?is_arg_local@ciMethodData@@QBE_NH@Z 0800d9d0 f   ciMethodData.obj
 0001:0000ca10       ?is_arg_stack@ciMethodData@@QBE_NH@Z 0800da10 f   ciMethodData.obj
 0001:0000ca50       ?is_arg_returned@ciMethodData@@QBE_NH@Z 0800da50 f   ciMethodData.obj
 0001:0000ca90       ?offset_of_slot@ciMethodData@@QAEHPAVProfileData@@H@Z 0800da90 f   ciMethodData.obj
 0001:0000cab0       ?arg_info@ciMethodData@@ABEPAVciArgInfoData@@XZ 0800dab0 f   ciMethodData.obj
 0001:0000cb00       ?invocation_count@methodDataOopDesc@@QAEHXZ 0800db00 f i ciMethodData.obj
 0001:0000cb20       ?backedge_count@methodDataOopDesc@@QAEHXZ 0800db20 f i ciMethodData.obj
 0001:0000cb40       ??0ciMethodData@@AAE@VmethodDataHandle@@@Z 0800db40 f   ciMethodData.obj
 0001:0000cbf0       ?type_string@ciMethodData@@EAEPBDXZ 0800dbf0 f i ciMethodData.obj
 0001:0000cc00       ??0ciMethodData@@AAE@XZ    0800dc00 f   ciMethodData.obj
 0001:0000cca0       ?load_data@ciMethodData@@QAEXXZ 0800dca0 f   ciMethodData.obj
 0001:0000ce50       ?translate_receiver_data_from@ciReceiverTypeData@@QAEXPAVProfileData@@@Z 0800de50 f   ciMethodData.obj
 0001:0000cec0       ?set_compilation_stats@ciMethodData@@QAEXFF@Z 0800dec0 f   ciMethodData.obj
 0001:0000cf40       ?set_would_profile@ciMethodData@@QAEX_N@Z 0800df40 f   ciMethodData.obj
 0001:0000cfb0       ?has_escape_info@ciMethodData@@QAE_NXZ 0800dfb0 f   ciMethodData.obj
 0001:0000cfc0       ?set_arg_modified@ciMethodData@@QAEXHI@Z 0800dfc0 f   ciMethodData.obj
 0001:0000d020       ?arg_modified@ciMethodData@@QBEIH@Z 0800e020 f   ciMethodData.obj
 0001:0000d080       ?translate_from@ciReceiverTypeData@@UAEXPAVProfileData@@@Z 0800e080 f i ciMethodData.obj
 0001:0000d080       ?translate_from@ciVirtualCallData@@UAEXPAVProfileData@@@Z 0800e080 f i ciMethodData.obj
 0001:0000d090       ?bci_to_data@ciMethodData@@QAEPAVProfileData@@H@Z 0800e090 f   ciMethodData.obj
 0001:0000d160       ?clear_escape_info@ciMethodData@@QAEXXZ 0800e160 f   ciMethodData.obj
 0001:0000d260       ?update_escape_info@ciMethodData@@QAEXXZ 0800e260 f   ciMethodData.obj
 0001:0000d370       ?print_impl@ciMethodHandle@@MAEXPAVoutputStream@@@Z 0800e370 f   ciMethodHandle.obj
 0001:0000d3a0       ??1MethodHandleCompiler@@QAE@XZ 0800e3a0 f i ciMethodHandle.obj
 0001:0000d400       ?get_adapter@ciMethodHandle@@ABEPAVciMethod@@_N@Z 0800e400 f   ciMethodHandle.obj
 0001:0000d540       ?make@ciMethodKlass@@SAPAV1@XZ 0800e540 f   ciMethodKlass.obj
 0001:0000d560       ?print_impl@ciNullObject@@EAEXPAVoutputStream@@@Z 0800e560 f   ciNullObject.obj
 0001:0000d580       ?make@ciNullObject@@SAPAV1@XZ 0800e580 f   ciNullObject.obj
 0001:0000d5a0       ?obj_at@ciObjArray@@QAEPAVciObject@@H@Z 0800e5a0 f   ciObjArray.obj
 0001:0000d680       ??0ciObjArrayKlass@@IAE@PAVciSymbol@@PAVciKlass@@H@Z 0800e680 f   ciObjArrayKlass.obj
 0001:0000d6c0       ?type_string@ciObjArrayKlass@@MAEPBDXZ 0800e6c0 f i ciObjArrayKlass.obj
 0001:0000d6d0       ?loader@ciObjArrayKlass@@MAEPAVoopDesc@@XZ 0800e6d0 f i ciObjArrayKlass.obj
 0001:0000d6e0       ?loader_handle@ciObjArrayKlass@@MAEPAV_jobject@@XZ 0800e6e0 f i ciObjArrayKlass.obj
 0001:0000d6f0       ?protection_domain@ciObjArrayKlass@@MAEPAVoopDesc@@XZ 0800e6f0 f i ciObjArrayKlass.obj
 0001:0000d700       ?protection_domain_handle@ciObjArrayKlass@@MAEPAV_jobject@@XZ 0800e700 f i ciObjArrayKlass.obj
 0001:0000d710       ??0ciObjArrayKlass@@IAE@VKlassHandle@@@Z 0800e710 f   ciObjArrayKlass.obj
 0001:0000d780       ?construct_array_name@ciObjArrayKlass@@KAPAVciSymbol@@PAV2@H@Z 0800e780 f   ciObjArrayKlass.obj
 0001:0000d8a0       ?make_impl@ciObjArrayKlass@@KAPAV1@PAVciKlass@@@Z 0800e8a0 f   ciObjArrayKlass.obj
 0001:0000d960       ?make@ciObjArrayKlass@@SAPAV1@PAVciKlass@@@Z 0800e960 f   ciObjArrayKlass.obj
 0001:0000d9f0       ?element_klass@ciObjArrayKlass@@QAEPAVciKlass@@XZ 0800e9f0 f   ciObjArrayKlass.obj
 0001:0000db20       ?make@ciObjArrayKlassKlass@@SAPAV1@XZ 0800eb20 f   ciObjArrayKlassKlass.obj
 0001:0000db40       ??0ciObject@@IAE@PAVciKlass@@@Z 0800eb40 f   ciObject.obj
 0001:0000db60       ??0ciObject@@IAE@XZ        0800eb60 f   ciObject.obj
 0001:0000db80       ?set_ident@ciObject@@IAEXI@Z 0800eb80 f   ciObject.obj
 0001:0000dba0       ?ident@ciObject@@QAEIXZ    0800eba0 f   ciObject.obj
 0001:0000dbb0       ?equals@ciObject@@QAE_NPAV1@@Z 0800ebb0 f   ciObject.obj
 0001:0000dbd0       ?hash@ciObject@@QAEHXZ     0800ebd0 f   ciObject.obj
 0001:0000dbe0       ?type_string@ciObject@@MAEPBDXZ 0800ebe0 f i ciObject.obj
 0001:0000dbf0       ?is_scavengable@oopDesc@@QBE_NXZ 0800ebf0 f i ciObject.obj
 0001:0000dc30       ?can_be_constant@ciObject@@QAE_NXZ 0800ec30 f   ciObject.obj
 0001:0000dc60       ?should_be_constant@ciObject@@QAE_NXZ 0800ec60 f   ciObject.obj
 0001:0000dc90       ?init_flags_from@ciObject@@IAEXPAVoopDesc@@@Z 0800ec90 f i ciObject.obj
 0001:0000dcf0       ??0ciObject@@IAE@VHandle@@@Z 0800ecf0 f   ciObject.obj
 0001:0000dd70       ?klass@ciObject@@QAEPAVciKlass@@XZ 0800ed70 f   ciObject.obj
 0001:0000de60       ?print@ciObject@@QAEXPAVoutputStream@@@Z 0800ee60 f   ciObject.obj
 0001:0000df40       ??0ciCPCache@@QAE@VconstantPoolCacheHandle@@@Z 0800ef40 f i ciObjectFactory.obj
 0001:0000df60       ?vm_symbol_at@ciObjectFactory@@SAPAVciSymbol@@H@Z 0800ef60 f   ciObjectFactory.obj
 0001:0000df70       ?type2name@@YAPBDW4BasicType@@@Z 0800ef70 f i ciObjectFactory.obj
 0001:0000df90       ??0ciKlassKlass@@IAE@VKlassHandle@@@Z 0800ef90 f i ciObjectFactory.obj
 0001:0000dfc0       ?type_string@ciKlassKlass@@MAEPBDXZ 0800efc0 f i ciObjectFactory.obj
 0001:0000dfd0       ??0ciInstanceKlassKlass@@AAE@VKlassHandle@@@Z 0800efd0 f i ciObjectFactory.obj
 0001:0000e000       ?type_string@ciInstanceKlassKlass@@EAEPBDXZ 0800f000 f i ciObjectFactory.obj
 0001:0000e010       ?type_string@ciNullObject@@EAEPBDXZ 0800f010 f i ciObjectFactory.obj
 0001:0000e020       ??0ciInstance@@IAE@VinstanceHandle@@@Z 0800f020 f i ciObjectFactory.obj
 0001:0000e040       ?type_string@ciInstance@@MAEPBDXZ 0800f040 f i ciObjectFactory.obj
 0001:0000e050       ?type_string@ciArrayKlassKlass@@MAEPBDXZ 0800f050 f i ciObjectFactory.obj
 0001:0000e060       ??0ciMethodKlass@@IAE@VKlassHandle@@@Z 0800f060 f i ciObjectFactory.obj
 0001:0000e090       ?type_string@ciMethodKlass@@MAEPBDXZ 0800f090 f i ciObjectFactory.obj
 0001:0000e0a0       ??0ciObjArrayKlassKlass@@AAE@VKlassHandle@@@Z 0800f0a0 f i ciObjectFactory.obj
 0001:0000e0d0       ?type_string@ciObjArrayKlassKlass@@EAEPBDXZ 0800f0d0 f i ciObjectFactory.obj
 0001:0000e0e0       ??0ciSymbolKlass@@IAE@VKlassHandle@@@Z 0800f0e0 f i ciObjectFactory.obj
 0001:0000e110       ?type_string@ciSymbolKlass@@MAEPBDXZ 0800f110 f i ciObjectFactory.obj
 0001:0000e120       ??0ciTypeArrayKlassKlass@@AAE@VKlassHandle@@@Z 0800f120 f i ciObjectFactory.obj
 0001:0000e150       ?type_string@ciTypeArrayKlassKlass@@EAEPBDXZ 0800f150 f i ciObjectFactory.obj
 0001:0000e160       ??0ciCallSite@@QAE@VinstanceHandle@@@Z 0800f160 f i ciObjectFactory.obj
 0001:0000e180       ??0ciMethodHandle@@QAE@VinstanceHandle@@@Z 0800f180 f i ciObjectFactory.obj
 0001:0000e1a0       ?get_empty_methodData@ciObjectFactory@@QAEPAVciMethodData@@XZ 0800f1a0 f   ciObjectFactory.obj
 0001:0000e210       ?find@ciObjectFactory@@AAEHPAVoopDesc@@PAV?$GrowableArray@PAVciObject@@@@@Z 0800f210 f   ciObjectFactory.obj
 0001:0000e260       ?insert_non_perm@ciObjectFactory@@AAEXAAPAUNonPermObject@1@PAVoopDesc@@PAVciObject@@@Z 0800f260 f   ciObjectFactory.obj
 0001:0000e2c0       ?type_string@ciArray@@MAEPBDXZ 0800f2c0 f i ciObjectFactory.obj
 0001:0000e2d0       ?is_instance@oopDesc@@QBE_NXZ 0800f2d0 f i ciObjectFactory.obj
 0001:0000e2e0       ?is_objArray@oopDesc@@QBE_NXZ 0800f2e0 f i ciObjectFactory.obj
 0001:0000e300       ?is_klass@oopDesc@@QBE_NXZ 0800f300 f i ciObjectFactory.obj
 0001:0000e310       ?is_method@oopDesc@@QBE_NXZ 0800f310 f i ciObjectFactory.obj
 0001:0000e320       ?is_methodData@oopDesc@@QBE_NXZ 0800f320 f i ciObjectFactory.obj
 0001:0000e330       ?is_instance@java_dyn_MethodHandle@@SA_NPAVoopDesc@@@Z 0800f330 f i ciObjectFactory.obj
 0001:0000e360       ?is_instance@java_dyn_CallSite@@SA_NPAVoopDesc@@@Z 0800f360 f i ciObjectFactory.obj
 0001:0000e390       ??0ciObjArray@@IAE@VobjArrayHandle@@@Z 0800f390 f i ciObjectFactory.obj
 0001:0000e3e0       ?type_string@ciObjArray@@MAEPBDXZ 0800f3e0 f i ciObjectFactory.obj
 0001:0000e3f0       ??0ciTypeArray@@IAE@VtypeArrayHandle@@@Z 0800f3f0 f i ciObjectFactory.obj
 0001:0000e440       ?type_string@ciTypeArray@@MAEPBDXZ 0800f440 f i ciObjectFactory.obj
 0001:0000e450       ?create_new_object@ciObjectFactory@@AAEPAVciObject@@PAVoopDesc@@@Z 0800f450 f   ciObjectFactory.obj
 0001:0000e890       ?find_non_perm@ciObjectFactory@@AAEAAPAUNonPermObject@1@PAVoopDesc@@@Z 0800f890 f   ciObjectFactory.obj
 0001:0000e920       ??0ciObjectFactory@@QAE@PAVArena@@H@Z 0800f920 f   ciObjectFactory.obj
 0001:0000eaf0       ?get_unloaded_method@ciObjectFactory@@QAEPAVciMethod@@PAVciInstanceKlass@@PAVciSymbol@@1@Z 0800faf0 f   ciObjectFactory.obj
 0001:0000ebe0       ?get_unloaded_instance@ciObjectFactory@@AAEPAVciInstance@@PAVciInstanceKlass@@@Z 0800fbe0 f   ciObjectFactory.obj
 0001:0000ecb0       ?get_unloaded_klass_mirror@ciObjectFactory@@QAEPAVciInstance@@PAVciKlass@@@Z 0800fcb0 f   ciObjectFactory.obj
 0001:0000ecc0       ?get_unloaded_method_handle_constant@ciObjectFactory@@QAEPAVciInstance@@PAVciKlass@@PAVciSymbol@@1H@Z 0800fcc0 f   ciObjectFactory.obj
 0001:0000ece0       ?get_unloaded_method_type_constant@ciObjectFactory@@QAEPAVciInstance@@PAVciSymbol@@@Z 0800fce0 f   ciObjectFactory.obj
 0001:0000ed00       ?get_return_address@ciObjectFactory@@QAEPAVciReturnAddress@@H@Z 0800fd00 f   ciObjectFactory.obj
 0001:0000edc0       ?insert@ciObjectFactory@@AAEXHPAVciObject@@PAV?$GrowableArray@PAVciObject@@@@@Z 0800fdc0 f   ciObjectFactory.obj
 0001:0000ee50       ?get@ciObjectFactory@@QAEPAVciObject@@PAVoopDesc@@@Z 0800fe50 f   ciObjectFactory.obj
 0001:0000efc0       ?init_shared_objects@ciObjectFactory@@QAEXXZ 0800ffc0 f   ciObjectFactory.obj
 0001:0000f990       ?get_unloaded_klass@ciObjectFactory@@QAEPAVciKlass@@PAV2@PAVciSymbol@@_N@Z 08010990 f   ciObjectFactory.obj
 0001:0000fbf0       ?initialize@ciObjectFactory@@SAXXZ 08010bf0 f   ciObjectFactory.obj
 0001:0000fc70       ?next@SignatureStream@@QAEXXZ 08010c70 f i ciSignature.obj
 0001:0000fd80       ??0SignatureStream@@QAE@VsymbolHandle@@_N@Z 08010d80 f i ciSignature.obj
 0001:0000fdb0       ?return_type@ciSignature@@QBEPAVciType@@XZ 08010db0 f   ciSignature.obj
 0001:0000fdc0       ?type_at@ciSignature@@QBEPAVciType@@H@Z 08010dc0 f   ciSignature.obj
 0001:0000fde0       ??0ciSignature@@AAE@PAVciKlass@@PAVciSymbol@@@Z 08010de0 f   ciSignature.obj
 0001:0000ff90       ?reset_to_bci@ciBytecodeStream@@QAEXH@Z 08010f90 f   ciStreams.obj
 0001:0000ffb0       ?count@ciExceptionHandlerStream@@QAEHXZ 08010fb0 f   ciStreams.obj
 0001:00010010       ?count_remaining@ciExceptionHandlerStream@@QAEHXZ 08011010 f   ciStreams.obj
 0001:00010050       ?get_index_u2_cpcache@ciBytecodeStream@@QBEHXZ 08011050 f i ciStreams.obj
 0001:00010070       ?next_wide_or_table@ciBytecodeStream@@AAE?AW4Code@Bytecodes@@W423@@Z 08011070 f   ciStreams.obj
 0001:00010150       ?get_field@ciBytecodeStream@@QAEPAVciField@@AA_N@Z 08011150 f   ciStreams.obj
 0001:000101b0       ?get_field_holder_index@ciBytecodeStream@@QAEHXZ 080111b0 f   ciStreams.obj
 0001:00010290       ?get_method_index@ciBytecodeStream@@QAEHXZ 08011290 f   ciStreams.obj
 0001:000102f0       ?get_method_holder_index@ciBytecodeStream@@QAEHXZ 080112f0 f   ciStreams.obj
 0001:00010310       ?get_cpcache@ciBytecodeStream@@QBEPAVciCPCache@@XZ 08011310 f   ciStreams.obj
 0001:000103c0       ?get_call_site@ciBytecodeStream@@QAEPAVciCallSite@@XZ 080113c0 f   ciStreams.obj
 0001:00010480       ?force_bci@ciBytecodeStream@@QAEXH@Z 08011480 f   ciStreams.obj
 0001:000104c0       ?get_klass_index@ciBytecodeStream@@QBEHXZ 080114c0 f   ciStreams.obj
 0001:00010620       ?get_klass@ciBytecodeStream@@QAEPAVciKlass@@AA_N@Z 08011620 f   ciStreams.obj
 0001:000106d0       ?get_constant_raw_index@ciBytecodeStream@@QBEHXZ 080116d0 f   ciStreams.obj
 0001:00010770       ?get_constant_pool_index@ciBytecodeStream@@QBEHXZ 08011770 f   ciStreams.obj
 0001:000107a0       ?get_constant@ciBytecodeStream@@QAE?AVciConstant@@XZ 080117a0 f   ciStreams.obj
 0001:00010870       ?get_declared_field_holder@ciBytecodeStream@@QAEPAVciInstanceKlass@@XZ 08011870 f   ciStreams.obj
 0001:00010920       ?get_method@ciBytecodeStream@@QAEPAVciMethod@@AA_N@Z 08011920 f   ciStreams.obj
 0001:000109f0       ?get_declared_method_holder@ciBytecodeStream@@QAEPAVciKlass@@XZ 080119f0 f   ciStreams.obj
 0001:00010b30       ?get_constant_pool_tag@ciBytecodeStream@@QBE?AVconstantTag@@H@Z 08011b30 f   ciStreams.obj
 0001:00010bb0       ??0ciSymbol@@AAE@VsymbolHandle@@W4SID@vmSymbols@@@Z 08011bb0 f   ciSymbol.obj
 0001:00010be0       ?type_string@ciSymbol@@EAEPBDXZ 08011be0 f i ciSymbol.obj
 0001:00010bf0       ?as_utf8@ciSymbol@@QAEPBDXZ 08011bf0 f   ciSymbol.obj
 0001:00010c30       ?base@ciSymbol@@AAEPACXZ   08011c30 f   ciSymbol.obj
 0001:00010cc0       ?byte_at@ciSymbol@@QAEHH@Z 08011cc0 f   ciSymbol.obj
 0001:00010d50       ?starts_with@ciSymbol@@QBE_NPBDH@Z 08011d50 f   ciSymbol.obj
 0001:00010de0       ?index_of_at@ciSymbol@@QBEHHPBDH@Z 08011de0 f   ciSymbol.obj
 0001:00010e70       ?utf8_length@ciSymbol@@QAEHXZ 08011e70 f   ciSymbol.obj
 0001:00010f00       ?print_symbol_on@ciSymbol@@QAEXPAVoutputStream@@@Z 08011f00 f   ciSymbol.obj
 0001:00010f90       ?make_impl@ciSymbol@@CAPAV1@PBD@Z 08011f90 f   ciSymbol.obj
 0001:00011010       ?make@ciSymbol@@SAPAV1@PBD@Z 08012010 f   ciSymbol.obj
 0001:000110a0       ?print_impl@ciSymbol@@EAEXPAVoutputStream@@@Z 080120a0 f   ciSymbol.obj
 0001:000110d0       ??0ciType@@AAE@W4BasicType@@@Z 080120d0 f   ciType.obj
 0001:000110f0       ??0ciType@@AAE@PAVciKlass@@@Z 080120f0 f   ciType.obj
 0001:00011130       ?print_impl@ciType@@EAEXPAVoutputStream@@@Z 08012130 f   ciType.obj
 0001:00011160       ?make@ciType@@SAPAV1@W4BasicType@@@Z 08012160 f   ciType.obj
 0001:00011180       ??0ciReturnAddress@@AAE@H@Z 08012180 f   ciType.obj
 0001:000111b0       ?print_impl@ciReturnAddress@@EAEXPAVoutputStream@@@Z 080121b0 f   ciType.obj
 0001:000111d0       ?type_string@ciType@@EAEPBDXZ 080121d0 f i ciType.obj
 0001:000111e0       ?type_string@ciReturnAddress@@EAEPBDXZ 080121e0 f i ciType.obj
 0001:000111f0       ??0ciType@@AAE@VKlassHandle@@@Z 080121f0 f   ciType.obj
 0001:00011230       ?is_subtype_of@ciType@@QAE_NPAV1@@Z 08012230 f   ciType.obj
 0001:00011280       ?print_name_on@ciType@@UAEXPAVoutputStream@@@Z 08012280 f   ciType.obj
 0001:000112c0       ?java_mirror@ciType@@UAEPAVciInstance@@XZ 080122c0 f   ciType.obj
 0001:00011350       ?make@ciReturnAddress@@SAPAV1@H@Z 08012350 f   ciType.obj
 0001:00011400       ?char_at@ciTypeArray@@QAEGH@Z 08012400 f   ciTypeArray.obj
 0001:00011470       ??0ciTypeArrayKlass@@IAE@VKlassHandle@@@Z 08012470 f   ciTypeArrayKlass.obj
 0001:00011490       ?type_string@ciTypeArrayKlass@@MAEPBDXZ 08012490 f i ciTypeArrayKlass.obj
 0001:000114a0       ?make@ciTypeArrayKlass@@SAPAV1@W4BasicType@@@Z 080124a0 f   ciTypeArrayKlass.obj
 0001:00011580       ?store_to_local@StateVector@ciTypeFlow@@QAEXH@Z 08012580 f i ciTypeFlow.obj
 0001:000115b0       ?push_int@StateVector@ciTypeFlow@@QAEXXZ 080125b0 f i ciTypeFlow.obj
 0001:000115e0       ?push_double@StateVector@ciTypeFlow@@QAEXXZ 080125e0 f i ciTypeFlow.obj
 0001:00011620       ?push_float@StateVector@ciTypeFlow@@QAEXXZ 08012620 f i ciTypeFlow.obj
 0001:00011650       ?push_long@StateVector@ciTypeFlow@@QAEXXZ 08012650 f i ciTypeFlow.obj
 0001:00011690       ?push@StateVector@ciTypeFlow@@QAEXPAVciType@@@Z 08012690 f i ciTypeFlow.obj
 0001:00011690       ?push_object@StateVector@ciTypeFlow@@QAEXPAVciKlass@@@Z 08012690 f i ciTypeFlow.obj
 0001:000116b0       ?push_null@StateVector@ciTypeFlow@@QAEXXZ 080126b0 f i ciTypeFlow.obj
 0001:000116e0       ?load_local_double@StateVector@ciTypeFlow@@QAEXH@Z 080126e0 f i ciTypeFlow.obj
 0001:00011730       ?load_local_float@StateVector@ciTypeFlow@@QAEXH@Z 08012730 f i ciTypeFlow.obj
 0001:00011730       ?load_local_object@StateVector@ciTypeFlow@@QAEXH@Z 08012730 f i ciTypeFlow.obj
 0001:00011730       ?load_local_int@StateVector@ciTypeFlow@@QAEXH@Z 08012730 f i ciTypeFlow.obj
 0001:00011760       ?load_local_long@StateVector@ciTypeFlow@@QAEXH@Z 08012760 f i ciTypeFlow.obj
 0001:000117b0       ?copy_into@StateVector@ciTypeFlow@@QBEXPAV12@@Z 080127b0 f   ciTypeFlow.obj
 0001:000117f0       ?add_to_work_list@ciTypeFlow@@AAEXPAVBlock@1@@Z 080127f0 f   ciTypeFlow.obj
 0001:00011850       ?sorted_merge@Loop@ciTypeFlow@@QAEPAV12@PAV12@@Z 08012850 f   ciTypeFlow.obj
 0001:000118c0       ?is_unresolved_klass@ciBytecodeStream@@QBE_NXZ 080128c0 f i ciTypeFlow.obj
 0001:00011900       ?half_type@StateVector@ciTypeFlow@@SAPAVciType@@PAV3@@Z 08012900 f i ciTypeFlow.obj
 0001:00011950       ?pop_typeArray@StateVector@ciTypeFlow@@QAEPAVciTypeArrayKlass@@XZ 08012950 f i ciTypeFlow.obj
 0001:00011950       ?pop_objArray@StateVector@ciTypeFlow@@QAEPAVciObjArrayKlass@@XZ 08012950 f i ciTypeFlow.obj
 0001:00011980       ?store_local_float@StateVector@ciTypeFlow@@QAEXH@Z 08012980 f i ciTypeFlow.obj
 0001:00011980       ?store_local_object@StateVector@ciTypeFlow@@QAEXH@Z 08012980 f i ciTypeFlow.obj
 0001:00011980       ?store_local_int@StateVector@ciTypeFlow@@QAEXH@Z 08012980 f i ciTypeFlow.obj
 0001:00011a00       ?store_local_long@StateVector@ciTypeFlow@@QAEXH@Z 08012a00 f i ciTypeFlow.obj
 0001:00011a00       ?store_local_double@StateVector@ciTypeFlow@@QAEXH@Z 08012a00 f i ciTypeFlow.obj
 0001:00011ac0       ?is_compatible_with@JsrSet@ciTypeFlow@@QAE_NPAV12@@Z 08012ac0 f   ciTypeFlow.obj
 0001:00011b30       ?remove_jsr_record@JsrSet@ciTypeFlow@@AAEXH@Z 08012b30 f   ciTypeFlow.obj
 0001:00011b80       ?type_meet_internal@StateVector@ciTypeFlow@@CAPAVciType@@PAV3@0PAV2@@Z 08012b80 f   ciTypeFlow.obj
 0001:00011d60       ??0StateVector@ciTypeFlow@@QAE@PAV1@@Z 08012d60 f   ciTypeFlow.obj
 0001:00011e00       ?push_translate@StateVector@ciTypeFlow@@QAEXPAVciType@@@Z 08012e00 f   ciTypeFlow.obj
 0001:00011e80       ?do_jsr@StateVector@ciTypeFlow@@QAEXPAVciBytecodeStream@@@Z 08012e80 f   ciTypeFlow.obj
 0001:00011ec0       ?trap@StateVector@ciTypeFlow@@QAEXPAVciBytecodeStream@@PAVciKlass@@H@Z 08012ec0 f   ciTypeFlow.obj
 0001:00011f70       ?do_null_assert@StateVector@ciTypeFlow@@QAEXPAVciKlass@@@Z 08012f70 f   ciTypeFlow.obj
 0001:00011fd0       ??0ciTypeFlow@@QAE@PAVciEnv@@PAVciMethod@@H@Z 08012fd0 f   ciTypeFlow.obj
 0001:00012090       ?contains@Loop@ciTypeFlow@@QBE_NPAV12@@Z 08013090 f   ciTypeFlow.obj
 0001:000120f0       ?record_failure@ciTypeFlow@@QAEXPBD@Z 080130f0 f   ciTypeFlow.obj
 0001:00012130       ??0ciExceptionHandlerStream@@QAE@PAVciMethod@@HPAVciInstanceKlass@@_N@Z 08013130 f i ciTypeFlow.obj
 0001:000121a0       ??0JsrSet@ciTypeFlow@@QAE@PAVArena@@H@Z 080131a0 f   ciTypeFlow.obj
 0001:00012220       ?meet@StateVector@ciTypeFlow@@QAE_NPBV12@@Z 08013220 f   ciTypeFlow.obj
 0001:000122f0       ?meet_exception@StateVector@ciTypeFlow@@QAE_NPAVciInstanceKlass@@PBV12@@Z 080132f0 f   ciTypeFlow.obj
 0001:000123f0       ?do_aaload@StateVector@ciTypeFlow@@QAEXPAVciBytecodeStream@@@Z 080133f0 f   ciTypeFlow.obj
 0001:000124e0       ?do_checkcast@StateVector@ciTypeFlow@@QAEXPAVciBytecodeStream@@@Z 080134e0 f   ciTypeFlow.obj
 0001:00012530       ?do_getstatic@StateVector@ciTypeFlow@@QAEXPAVciBytecodeStream@@@Z 08013530 f   ciTypeFlow.obj
 0001:000125b0       ?do_invoke@StateVector@ciTypeFlow@@QAEXPAVciBytecodeStream@@_N@Z 080135b0 f   ciTypeFlow.obj
 0001:00012700       ?do_ldc@StateVector@ciTypeFlow@@QAEXPAVciBytecodeStream@@@Z 08013700 f   ciTypeFlow.obj
 0001:000127e0       ?do_multianewarray@StateVector@ciTypeFlow@@QAEXPAVciBytecodeStream@@@Z 080137e0 f   ciTypeFlow.obj
 0001:00012860       ?do_new@StateVector@ciTypeFlow@@QAEXPAVciBytecodeStream@@@Z 08013860 f   ciTypeFlow.obj
 0001:000128e0       ?do_putstatic@StateVector@ciTypeFlow@@QAEXPAVciBytecodeStream@@@Z 080138e0 f   ciTypeFlow.obj
 0001:00012950       ?can_trap@ciTypeFlow@@AAE_NAAVciBytecodeStream@@@Z 08013950 f   ciTypeFlow.obj
 0001:00012a50       ?backedge_copy_count@ciTypeFlow@@QBEHHPAVJsrSet@1@@Z 08013a50 f   ciTypeFlow.obj
 0001:00012ab0       ?copy_into@JsrSet@ciTypeFlow@@QAEXPAV12@@Z 08013ab0 f   ciTypeFlow.obj
 0001:00012b20       ?insert_jsr_record@JsrSet@ciTypeFlow@@AAEXPAVJsrRecord@2@@Z 08013b20 f   ciTypeFlow.obj
 0001:00012bb0       ?do_putfield@StateVector@ciTypeFlow@@QAEXPAVciBytecodeStream@@@Z 08013bb0 f   ciTypeFlow.obj
 0001:00012bd0       ??0Block@ciTypeFlow@@QAE@PAV1@PAVciBlock@@PAVJsrSet@1@@Z 08013bd0 f   ciTypeFlow.obj
 0001:00012cc0       ?make_jsr_record@ciTypeFlow@@QAEPAVJsrRecord@1@HH@Z 08013cc0 f   ciTypeFlow.obj
 0001:00012da0       ?flow_exceptions@ciTypeFlow@@AAEXPAV?$GrowableArray@PAVBlock@ciTypeFlow@@@@PAV?$GrowableArray@PAVciInstanceKlass@@@@PAVStateVector@1@@Z 08013da0 f   ciTypeFlow.obj
 0001:00012e20       ?flow_successors@ciTypeFlow@@AAEXPAV?$GrowableArray@PAVBlock@ciTypeFlow@@@@PAVStateVector@1@@Z 08013e20 f   ciTypeFlow.obj
 0001:00012e80       ?get_block_for@ciTypeFlow@@QAEPAVBlock@1@HPAVJsrSet@1@W4CreateOption@1@@Z 08013e80 f   ciTypeFlow.obj
 0001:00012fd0       ?apply_control@JsrSet@ciTypeFlow@@QAEXPAV2@PAVciBytecodeStream@@PAVStateVector@2@@Z 08013fd0 f   ciTypeFlow.obj
 0001:000130a0       ?do_newarray@StateVector@ciTypeFlow@@QAEXPAVciBytecodeStream@@@Z 080140a0 f   ciTypeFlow.obj
 0001:000130e0       ?do_ret@StateVector@ciTypeFlow@@QAEXPAVciBytecodeStream@@@Z 080140e0 f   ciTypeFlow.obj
 0001:00013110       ?apply_one_bytecode@StateVector@ciTypeFlow@@QAE_NPAVciBytecodeStream@@@Z 08014110 f   ciTypeFlow.obj
 0001:000140f0       ?block_at@ciTypeFlow@@QAEPAVBlock@1@HPAVJsrSet@1@W4CreateOption@1@@Z 080150f0 f   ciTypeFlow.obj
 0001:00014120       ?existing_block_at@ciTypeFlow@@QAEPAVBlock@1@HPAVJsrSet@1@@Z 08015120 f i ciTypeFlow.obj
 0001:00014190       ?successors@Block@ciTypeFlow@@QAEPAV?$GrowableArray@PAVBlock@ciTypeFlow@@@@PAVciBytecodeStream@@PAVStateVector@2@PAVJsrSet@2@@Z 08015190 f   ciTypeFlow.obj
 0001:000146c0       ?compute_exceptions@Block@ciTypeFlow@@AAEXXZ 080156c0 f   ciTypeFlow.obj
 0001:00014880       ?next@SuccIter@ciTypeFlow@@QAEXXZ 08015880 f   ciTypeFlow.obj
 0001:00014940       ?flow_block@ciTypeFlow@@AAEXPAVBlock@1@PAVStateVector@1@PAVJsrSet@1@@Z 08015940 f   ciTypeFlow.obj
 0001:00014b80       ?map_blocks@ciTypeFlow@@AAEXXZ 08015b80 f   ciTypeFlow.obj
 0001:00014cd0       ?get_start_state@ciTypeFlow@@AAEPBVStateVector@1@XZ 08015cd0 f   ciTypeFlow.obj
 0001:00014ee0       ?is_clonable_exit@Block@ciTypeFlow@@QAE_NPAVLoop@2@@Z 08015ee0 f   ciTypeFlow.obj
 0001:00014f80       ?looping_succ@Block@ciTypeFlow@@QAEPAV12@PAVLoop@2@@Z 08015f80 f   ciTypeFlow.obj
 0001:00014ff0       ?clone_loop_head@ciTypeFlow@@AAEPAVBlock@1@PAVLoop@1@PAVStateVector@1@PAVJsrSet@1@@Z 08015ff0 f   ciTypeFlow.obj
 0001:00015160       ?build_loop_tree@ciTypeFlow@@AAEXPAVBlock@1@@Z 08016160 f   ciTypeFlow.obj
 0001:00015330       ?df_flow_types@ciTypeFlow@@AAEXPAVBlock@1@_NPAVStateVector@1@PAVJsrSet@1@@Z 08016330 f   ciTypeFlow.obj
 0001:00015690       ?clone_loop_heads@ciTypeFlow@@AAE_NPAVLoop@1@PAVStateVector@1@PAVJsrSet@1@@Z 08016690 f   ciTypeFlow.obj
 0001:00015790       ?flow_types@ciTypeFlow@@AAEXXZ 08016790 f   ciTypeFlow.obj
 0001:000159a0       ?do_flow@ciTypeFlow@@QAEXXZ 080169a0 f   ciTypeFlow.obj
 0001:000159d0       ?classfile_parse_error@ClassFileParser@@AAEXPBDPAVThread@@@Z 080169d0 f   classFileError.obj
 0001:00015a40       ?classfile_parse_error@ClassFileParser@@AAEXPBDHPAVThread@@@Z 08016a40 f   classFileError.obj
 0001:00015ab0       ?classfile_parse_error@ClassFileParser@@AAEXPBD0PAVThread@@@Z 08016ab0 f   classFileError.obj
 0001:00015b20       ?classfile_parse_error@ClassFileParser@@AAEXPBDH0PAVThread@@@Z 08016b20 f   classFileError.obj
 0001:00015ba0       ?stackmap_format_error@StackMapStream@@SAXPBDPAVThread@@@Z 08016ba0 f   classFileError.obj
 0001:00015c00       ?valid_cp_range@@YA_NHH@Z  08016c00 f i classFileParser.obj
 0001:00015c20       ?hash@@YAIPAVLocalVariableTableElement@@@Z 08016c20 f   classFileParser.obj
 0001:00015c60       ?clear_hashtable@@YAXPAPAVLVT_Hash@@@Z 08016c60 f   classFileParser.obj
 0001:00015cb0       ?LVT_lookup@@YAPAVLVT_Hash@@PAVLocalVariableTableElement@@HPAPAV1@@Z 08016cb0 f   classFileParser.obj
 0001:00015d00       ?LVT_put_after_lookup@@YA_NPAVLocalVariableTableElement@@PAPAVLVT_Hash@@@Z 08016d00 f   classFileParser.obj
 0001:00015d80       ?set_has_miranda_methods@Klass@@QAEXXZ 08016d80 f i classFileParser.obj
 0001:00015d90       ??8Handle@@QBE_NPAVoopDesc@@@Z 08016d90 f i classFileParser.obj
 0001:00015dc0       ?has_illegal_visibility@ClassFileParser@@AAE_NH@Z 08016dc0 f   classFileParser.obj
 0001:00015e00       ??CinstanceKlassHandle@@QBEPAVinstanceKlass@@XZ 08016e00 f i classFileParser.obj
 0001:00015e20       ?verify_unqualified_name@ClassFileParser@@AAE_NPADIH@Z 08016e20 f   classFileParser.obj
 0001:00015ea0       ?field_type_should_be_aligned@Universe@@SA_NW4BasicType@@@Z 08016ea0 f i classFileParser.obj
 0001:00015ec0       ?guarantee_more@ClassFileStream@@QAEXHPAVThread@@@Z 08016ec0 f i classFileParser.obj
 0001:00015ee0       ?inc@PerfLongVariant@@QAEX_J@Z 08016ee0 f i classFileParser.obj
 0001:00015f00       ?equals@symbolOopDesc@@QBE_NPBD@Z 08016f00 f i classFileParser.obj
 0001:00015f30       ?write@CompressedWriteStream@@AAEXE@Z 08016f30 f i classFileParser.obj
 0001:00015f30       ?write_byte@CompressedWriteStream@@QAEXC@Z 08016f30 f i classFileParser.obj
 0001:00015f60       ?is_within_bounds@constantPoolOopDesc@@QBE_NH@Z 08016f60 f i classFileParser.obj
 0001:00015f80       ?set_cached_class_file@instanceKlass@@QAEXPAEH@Z 08016f80 f i classFileParser.obj
 0001:00015fa0       ?start_of_nonstatic_oop_maps@instanceKlass@@QBEPAVOopMapBlock@@XZ 08016fa0 f i classFileParser.obj
 0001:00015fd0       ??0CompressedLineNumberWriteStream@@QAE@H@Z 08016fd0 f i classFileParser.obj
 0001:00015ff0       ?write_pair_inline@CompressedLineNumberWriteStream@@QAEXHH@Z 08016ff0 f i classFileParser.obj
 0001:00016060       ?write_terminator@CompressedLineNumberWriteStream@@QAEXXZ 08017060 f i classFileParser.obj
 0001:00016080       ?long_field_put@oopDesc@@QAEXH_J@Z 08017080 f i classFileParser.obj
 0001:000160a0       ?guarantee_property@ClassFileParser@@AAEX_NPBDPAVThread@@@Z 080170a0 f i classFileParser.obj
 0001:000160c0       ?guarantee_property@ClassFileParser@@AAEX_NPBDHPAVThread@@@Z 080170c0 f i classFileParser.obj
 0001:000160e0       ?guarantee_property@ClassFileParser@@AAEX_NPBDH1PAVThread@@@Z 080170e0 f i classFileParser.obj
 0001:00016110       ?current@JDK_Version@@SA?AV1@XZ 08017110 f i classFileParser.obj
 0001:00016140       ?is_gte_jdk16x_version@JDK_Version@@SA_NXZ 08017140 f i classFileParser.obj
 0001:00016190       ?is_gte_jdk17x_version@JDK_Version@@SA_NXZ 08017190 f i classFileParser.obj
 0001:000161e0       ?push_int@JavaCallArguments@@QAEXH@Z 080171e0 f i classFileParser.obj
 0001:00016210       ?add_class_method_size@ClassLoadingService@@SAXH@Z 08017210 f i classFileParser.obj
 0001:00016240       ?put_after_lookup@@YA_NPAVsymbolOopDesc@@0PAPAVNameSigHash@@@Z 08017240 f   classFileParser.obj
 0001:000162c0       ?compute_oop_map_count@ClassFileParser@@AAEIVinstanceKlassHandle@@IH@Z 080172c0 f   classFileParser.obj
 0001:00016340       ?fill_oop_maps@ClassFileParser@@AAEXVinstanceKlassHandle@@IPAHPAI@Z 08017340 f   classFileParser.obj
 0001:00016440       ?set_precomputed_flags@ClassFileParser@@AAEXVinstanceKlassHandle@@@Z 08017440 f   classFileParser.obj
 0001:000165c0       ?is_supported_version@ClassFileParser@@AAE_NGG@Z 080175c0 f   classFileParser.obj
 0001:00016610       ?verify_legal_utf8@ClassFileParser@@AAEXPBEHPAVThread@@@Z 08017610 f   classFileParser.obj
 0001:00016840       ??0symbolHandle@@QAE@PAVThread@@PAVsymbolOopDesc@@@Z 08017840 f i ciEnv.obj
 0001:00016840       ??0instanceKlassHandle@@QAE@PAVThread@@PAVklassOopDesc@@@Z 08017840 f i classFileParser.obj
 0001:00016840       ??0constantPoolCacheHandle@@QAE@PAVThread@@PAVconstantPoolCacheOopDesc@@@Z 08017840 f i ciObjectFactory.obj
 0001:00016840       ??0typeArrayHandle@@QAE@PAVThread@@PAVtypeArrayOopDesc@@@Z 08017840 f i ciObjectFactory.obj
 0001:00016840       ??0instanceHandle@@QAE@PAVThread@@PAVinstanceOopDesc@@@Z 08017840 f i ciObjectFactory.obj
 0001:00016840       ??0KlassHandle@@QAE@PAVThread@@PAVoopDesc@@@Z 08017840 f i ciEnv.obj
 0001:00016840       ??0constantPoolHandle@@QAE@PAVThread@@PAVconstantPoolOopDesc@@@Z 08017840 f i ciEnv.obj
 0001:00016840       ??0objArrayHandle@@QAE@PAVThread@@PAVobjArrayOopDesc@@@Z 08017840 f i ciObjectFactory.obj
 0001:00016840       ??0methodHandle@@QAE@PAVThread@@PAVmethodOopDesc@@@Z 08017840 f i ciEnv.obj
 0001:00016840       ??0objArrayKlassHandle@@QAE@PAVThread@@PAVklassOopDesc@@@Z 08017840 f i objArrayKlass.obj
 0001:00016860       ?get_u2_fast@ClassFileStream@@QAEGXZ 08017860 f i classFileParser.obj
 0001:00016880       ?get_u8_fast@ClassFileStream@@QAE_KXZ 08017880 f i classFileParser.obj
 0001:000168b0       ?set_code@methodOopDesc@@QAEXPAE@Z 080178b0 f i classFileParser.obj
 0001:000168e0       ?size_given_klass@oopDesc@@QAEHPAVKlass@@@Z 080178e0 f i classFileParser.obj
 0001:00016940       ?size@oopDesc@@QAEHXZ      08017940 f i classFileParser.obj
 0001:00016950       ?check_property@ClassFileParser@@AAEX_NPBDHPAVThread@@@Z 08017950 f i classFileParser.obj
 0001:00016980       ?has_cp_patch_at@ClassFileParser@@AAE_NH@Z 08017980 f i classFileParser.obj
 0001:000169b0       ??0PerfClassTraceTime@@QAE@PAVPerfLongCounter@@00PAHPAVelapsedTimer@@H@Z 080179b0 f i classFileParser.obj
 0001:00016a00       ?is_instance@java_lang_String@@SA_NPAVoopDesc@@@Z 08017a00 f i classFileParser.obj
 0001:00016a20       ?is_instance@java_lang_Class@@SA_NPAVoopDesc@@@Z 08017a20 f i classFileParser.obj
 0001:00016a40       ?parse_linenumber_table@ClassFileParser@@AAEXIIPAPAVCompressedLineNumberWriteStream@@PAVThread@@@Z 08017a40 f   classFileParser.obj
 0001:00016bb0       ?copy_lvt_element@@YAXPAVClassfile_LVT_Element@@PAVLocalVariableTableElement@@@Z 08017bb0 f   classFileParser.obj
 0001:00016c20       ?check_super_class_access@ClassFileParser@@SAXVinstanceKlassHandle@@PAVThread@@@Z 08017c20 f   classFileParser.obj
 0001:00016ce0       ?verify_legal_class_modifiers@ClassFileParser@@AAEXHPAVThread@@@Z 08017ce0 f   classFileParser.obj
 0001:00016de0       ?verify_legal_field_modifiers@ClassFileParser@@AAEXH_NPAVThread@@@Z 08017de0 f   classFileParser.obj
 0001:00016ef0       ?verify_legal_method_modifiers@ClassFileParser@@AAEXH_NVsymbolHandle@@PAVThread@@@Z 08017ef0 f   classFileParser.obj
 0001:000170d0       ?skip_over_field_name@ClassFileParser@@AAEPADPAD_NI@Z 080180d0 f   classFileParser.obj
 0001:00017290       ?skip_over_field_signature@ClassFileParser@@AAEPADPAD_NIPAVThread@@@Z 08018290 f   classFileParser.obj
 0001:000173c0       ??$oop_store_without_check@PAVoopDesc@@@@YAXPCRAVoopDesc@@PAV0@@Z 080183c0 f i classFileParser.obj
 0001:00017420       ?throwIllegalSignature@ClassFileParser@@AAEXPBDVsymbolHandle@@1PAVThread@@@Z 08018420 f   classFileParser.obj
 0001:000174d0       ?verify_legal_class_name@ClassFileParser@@AAEXVsymbolHandle@@PAVThread@@@Z 080184d0 f   classFileParser.obj
 0001:000175d0       ?verify_legal_field_name@ClassFileParser@@AAEXVsymbolHandle@@PAVThread@@@Z 080185d0 f   classFileParser.obj
 0001:000176c0       ?verify_legal_method_name@ClassFileParser@@AAEXVsymbolHandle@@PAVThread@@@Z 080186c0 f   classFileParser.obj
 0001:000177d0       ?verify_legal_field_signature@ClassFileParser@@AAEXVsymbolHandle@@0PAVThread@@@Z 080187d0 f   classFileParser.obj
 0001:00017850       ?verify_legal_method_signature@ClassFileParser@@AAEHVsymbolHandle@@0PAVThread@@@Z 08018850 f   classFileParser.obj
 0001:00017980       ?klass_at_put@constantPoolOopDesc@@QAEXHPAVklassOopDesc@@@Z 08018980 f i classFileParser.obj
 0001:000179d0       ?method_handle_index_at_put@constantPoolOopDesc@@QAEXHHH@Z 080189d0 f i classFileParser.obj
 0001:00017a00       ?invoke_dynamic_at_put@constantPoolOopDesc@@QAEXHHH@Z 08018a00 f i classFileParser.obj
 0001:00017a30       ?invoke_dynamic_trans_at_put@constantPoolOopDesc@@QAEXHHH@Z 08018a30 f i classFileParser.obj
 0001:00017a60       ?long_at_put@constantPoolOopDesc@@QAEXH_J@Z 08018a60 f i classFileParser.obj
 0001:00017a80       ?double_at_put@constantPoolOopDesc@@QAEXHN@Z 08018a80 f i classFileParser.obj
 0001:00017aa0       ?string_at_put@constantPoolOopDesc@@QAEXHPAVoopDesc@@@Z 08018aa0 f i classFileParser.obj
 0001:00017b10       ?field_at_put@constantPoolOopDesc@@QAEXHHH@Z 08018b10 f i classFileParser.obj
 0001:00017b40       ?method_at_put@constantPoolOopDesc@@QAEXHHH@Z 08018b40 f i classFileParser.obj
 0001:00017b70       ?interface_method_at_put@constantPoolOopDesc@@QAEXHHH@Z 08018b70 f i classFileParser.obj
 0001:00017ba0       ?name_and_type_at_put@constantPoolOopDesc@@QAEXHHH@Z 08018ba0 f i classFileParser.obj
 0001:00017bd0       ?pseudo_string_at_put@constantPoolOopDesc@@QAEXHPAVoopDesc@@@Z 08018bd0 f i classFileParser.obj
 0001:00017c00       ?is_klass_reference@ClassFileParser@@AAE_NVconstantPoolHandle@@H@Z 08018c00 f i classFileParser.obj
 0001:00017c60       ?verify_constantvalue@ClassFileParser@@AAEXHHVconstantPoolHandle@@PAVThread@@@Z 08018c60 f   classFileParser.obj
 0001:00017db0       ?parse_exception_table@ClassFileParser@@AAE?AVtypeArrayHandle@@IIVconstantPoolHandle@@PAVThread@@@Z 08018db0 f   classFileParser.obj
 0001:00017fb0       ?parse_localvariable_table@ClassFileParser@@AAEPAGIGIVconstantPoolHandle@@PAG_NPAVThread@@@Z 08018fb0 f   classFileParser.obj
 0001:000182c0       ?parse_stackmap_table@ClassFileParser@@AAEPAVtypeArrayOopDesc@@IPAVThread@@@Z 080192c0 f   classFileParser.obj
 0001:00018340       ?parse_checked_exceptions@ClassFileParser@@AAEPAGPAGIVconstantPoolHandle@@PAVThread@@@Z 08019340 f   classFileParser.obj
 0001:000184a0       ?assemble_annotations@ClassFileParser@@AAE?AVtypeArrayHandle@@PAEH0HPAVThread@@@Z 080194a0 f   classFileParser.obj
 0001:00018540       ?java_lang_ref_Reference_fix_pre@ClassFileParser@@AAEXPAVtypeArrayHandle@@VconstantPoolHandle@@PAUFieldAllocationCount@@PAVThread@@@Z 08019540 f   classFileParser.obj
 0001:000186b0       ?java_dyn_MethodHandle_fix_pre@ClassFileParser@@AAEXVconstantPoolHandle@@VtypeArrayHandle@@PAUFieldAllocationCount@@PAVThread@@@Z 080196b0 f   classFileParser.obj
 0001:000187e0       ?invoke_dynamic_bootstrap_method_ref_index_at@constantPoolOopDesc@@QAEHH@Z 080197e0 f i classFileParser.obj
 0001:00018830       ?set_class_loader@instanceKlass@@QAEXPAVoopDesc@@@Z 08019830 f i classFileParser.obj
 0001:00018890       ?set_protection_domain@instanceKlass@@QAEXPAVoopDesc@@@Z 08019890 f i classFileParser.obj
 0001:000188f0       ?obj_field_put@oopDesc@@QAEXHPAV1@@Z 080198f0 f i classFileParser.obj
 0001:00018910       ?parse_interfaces@ClassFileParser@@AAE?AVobjArrayHandle@@VconstantPoolHandle@@HVHandle@@1VsymbolHandle@@PAVThread@@@Z 08019910 f   classFileParser.obj
 0001:00018c20       ?parse_field_attributes@ClassFileParser@@AAEXVconstantPoolHandle@@G_NGPAGPA_N2PAVtypeArrayHandle@@PAVThread@@@Z 08019c20 f   classFileParser.obj
 0001:00018ec0       ?parse_fields@ClassFileParser@@AAE?AVtypeArrayHandle@@VconstantPoolHandle@@_NPAUFieldAllocationCount@@PAVobjArrayHandle@@PAVThread@@@Z 08019ec0 f   classFileParser.obj
 0001:00019480       ?sort_methods@ClassFileParser@@AAE?AVtypeArrayHandle@@VobjArrayHandle@@000PAVThread@@@Z 0801a480 f   classFileParser.obj
 0001:00019770       ?set_name@Klass@@QAEXPAVsymbolOopDesc@@@Z 0801a770 f i classFileParser.obj
 0001:000197a0       ?append_interfaces@@YAXVobjArrayHandle@@AAHPAVobjArrayOopDesc@@@Z 0801a7a0 f   classFileParser.obj
 0001:000198a0       ?compute_transitive_interfaces@ClassFileParser@@AAE?AVobjArrayHandle@@VinstanceKlassHandle@@V2@PAVThread@@@Z 0801a8a0 f   classFileParser.obj
 0001:00019ae0       ?check_super_interface_access@ClassFileParser@@SAXVinstanceKlassHandle@@PAVThread@@@Z 0801aae0 f   classFileParser.obj
 0001:00019be0       ?check_final_method_override@ClassFileParser@@SAXVinstanceKlassHandle@@PAVThread@@@Z 0801abe0 f   classFileParser.obj
 0001:00019da0       ?check_illegal_static_method@ClassFileParser@@SAXVinstanceKlassHandle@@PAVThread@@@Z 0801ada0 f   classFileParser.obj
 0001:00019ea0       ?set_stackmap_data@constMethodOopDesc@@QAEXPAVtypeArrayOopDesc@@@Z 0801aea0 f i classFileParser.obj
 0001:00019ed0       ?set_operands@constantPoolOopDesc@@AAEXPAVtypeArrayOopDesc@@@Z 0801aed0 f i classFileParser.obj
 0001:00019f00       ?unresolved_klass_at_put@constantPoolOopDesc@@QAEXHPAVsymbolOopDesc@@@Z 0801af00 f i classFileParser.obj
 0001:00019f40       ?unresolved_string_at_put@constantPoolOopDesc@@QAEXHPAVsymbolOopDesc@@@Z 0801af40 f i classFileParser.obj
 0001:00019f80       ?symbol_at_put@constantPoolOopDesc@@QAEXHPAVsymbolOopDesc@@@Z 0801af80 f i classFileParser.obj
 0001:00019fc0       ?set_local_interfaces@instanceKlass@@QAEXPAVobjArrayOopDesc@@@Z 0801afc0 f i classFileParser.obj
 0001:00019ff0       ?set_transitive_interfaces@instanceKlass@@QAEXPAVobjArrayOopDesc@@@Z 0801aff0 f i classFileParser.obj
 0001:0001a020       ?set_fields@instanceKlass@@QAEXPAVtypeArrayOopDesc@@@Z 0801b020 f i classFileParser.obj
 0001:0001a050       ?set_constants@instanceKlass@@QAEXPAVconstantPoolOopDesc@@@Z 0801b050 f i classFileParser.obj
 0001:0001a050       ?set_element_klass@objArrayKlass@@QAEXPAVklassOopDesc@@@Z 0801b050 f i universe.obj
 0001:0001a080       ?set_class_annotations@instanceKlass@@QAEXPAVtypeArrayOopDesc@@@Z 0801b080 f i classFileParser.obj
 0001:0001a0b0       ?set_constants@methodOopDesc@@QAEXPAVconstantPoolOopDesc@@@Z 0801b0b0 f i classFileParser.obj
 0001:0001a0e0       ?set_exception_table@methodOopDesc@@QAEXPAVtypeArrayOopDesc@@@Z 0801b0e0 f i classFileParser.obj
 0001:0001a110       ?parse_constant_pool_entries@ClassFileParser@@AAEXVconstantPoolHandle@@HPAVThread@@@Z 0801b110 f   classFileParser.obj
 0001:0001a9b0       ?patch_constant_pool@ClassFileParser@@AAEXVconstantPoolHandle@@HVHandle@@PAVThread@@@Z 0801b9b0 f   classFileParser.obj
 0001:0001aca0       ?parse_method@ClassFileParser@@AAE?AVmethodHandle@@VconstantPoolHandle@@_NPAVAccessFlags@@PAVtypeArrayHandle@@33PAVThread@@@Z 0801bca0 f   classFileParser.obj
 0001:0001beb0       ?parse_methods@ClassFileParser@@AAE?AVobjArrayHandle@@VconstantPoolHandle@@_NPAVAccessFlags@@PA_NPAPAVobjArrayOopDesc@@44PAVThread@@@Z 0801ceb0 f   classFileParser.obj
 0001:0001c260       ?parse_classfile_sourcefile_attribute@ClassFileParser@@AAEXVconstantPoolHandle@@VinstanceKlassHandle@@PAVThread@@@Z 0801d260 f   classFileParser.obj
 0001:0001c330       ?parse_classfile_source_debug_extension_attribute@ClassFileParser@@AAEXVconstantPoolHandle@@VinstanceKlassHandle@@HPAVThread@@@Z 0801d330 f   classFileParser.obj
 0001:0001c3b0       ?parse_classfile_inner_classes_attribute@ClassFileParser@@AAEGVconstantPoolHandle@@VinstanceKlassHandle@@PAVThread@@@Z 0801d3b0 f   classFileParser.obj
 0001:0001c7a0       ?parse_classfile_signature_attribute@ClassFileParser@@AAEXVconstantPoolHandle@@VinstanceKlassHandle@@PAVThread@@@Z 0801d7a0 f   classFileParser.obj
 0001:0001c840       ?parse_classfile_bootstrap_methods_attribute@ClassFileParser@@AAEXVconstantPoolHandle@@VinstanceKlassHandle@@IPAVThread@@@Z 0801d840 f   classFileParser.obj
 0001:0001cb60       ?parse_classfile_attributes@ClassFileParser@@AAEXVconstantPoolHandle@@VinstanceKlassHandle@@PAVThread@@@Z 0801db60 f   classFileParser.obj
 0001:0001d0b0       ?set_fields_annotations@instanceKlass@@QAEXPAVobjArrayOopDesc@@@Z 0801e0b0 f i classFileParser.obj
 0001:0001d0e0       ?set_methods_annotations@instanceKlass@@QAEXPAVobjArrayOopDesc@@@Z 0801e0e0 f i classFileParser.obj
 0001:0001d110       ?set_methods_parameter_annotations@instanceKlass@@QAEXPAVobjArrayOopDesc@@@Z 0801e110 f i classFileParser.obj
 0001:0001d140       ?set_methods_default_annotations@instanceKlass@@QAEXPAVobjArrayOopDesc@@@Z 0801e140 f i classFileParser.obj
 0001:0001d170       ?parse_constant_pool@ClassFileParser@@AAE?AVconstantPoolHandle@@PAVThread@@@Z 0801e170 f   classFileParser.obj
 0001:0001dd00       ?parseClassFile@ClassFileParser@@QAE?AVinstanceKlassHandle@@VsymbolHandle@@VHandle@@1VKlassHandle@@PAV?$GrowableArray@VHandle@@@@AAV3@_NPAVThread@@@Z 0801ed00 f   classFileParser.obj
 0001:0001f620       ??0ClassFileStream@@QAE@PAEHPAD@Z 08020620 f   classFileStream.obj
 0001:0001f650       ?truncated_file_error@ClassFileStream@@AAEXPAVThread@@@Z 08020650 f   classFileStream.obj
 0001:0001f680       ?get_u2@ClassFileStream@@QAEGPAVThread@@@Z 08020680 f   classFileStream.obj
 0001:0001f6f0       ?skip_u1@ClassFileStream@@QAEXHPAVThread@@@Z 080206f0 f   classFileStream.obj
 0001:0001f740       ?is_jar_file@LazyClassPathEntry@@UAE_NXZ 08020740 f   classLoader.obj
 0001:0001f760       ?new_entry@PackageHashtable@@QAEPAVPackageInfo@@PADH@Z 08020760 f i classLoader.obj
 0001:0001f790       ?copy_package_info_buckets@ClassLoader@@SAXPAPADPAD@Z 08020790 f   classLoader.obj
 0001:0001f7b0       ?AllocateHeap@@YAPADIPBD@Z 080207b0 f i classLoader.obj
 0001:0001f7f0       ?create_counter@PerfDataManager@@SAPAVPerfLongCounter@@W4CounterNS@@PBDW4Units@PerfData@@PAVThread@@@Z 080207f0 f i classLoader.obj
 0001:0001f820       ?classpath_entry@ClassLoader@@SAPAVClassPathEntry@@H@Z 08020820 f i classLoader.obj
 0001:0001f840       ??0ThreadToNativeFromVM@@QAE@PAVJavaThread@@@Z 08020840 f i classLoader.obj
 0001:0001f880       ??0BasicHashtable@@QAE@HH@Z 08020880 f i classLoader.obj
 0001:0001f900       ??0MetaIndex@@QAE@PAPADH@Z 08020900 f   classLoader.obj
 0001:0001f970       ?may_contain@MetaIndex@@QAE_NPBD@Z 08020970 f   classLoader.obj
 0001:0001fa00       ??0ClassPathDirEntry@@QAE@PAD@Z 08020a00 f   classLoader.obj
 0001:0001fa80       ?open_stream@ClassPathDirEntry@@UAEPAVClassFileStream@@PBD@Z 08020a80 f   classLoader.obj
 0001:0001fb70       ??0ClassPathZipEntry@@QAE@PAPAXPBD@Z 08020b70 f   classLoader.obj
 0001:0001fbf0       ??1ClassPathZipEntry@@QAE@XZ 08020bf0 f   classLoader.obj
 0001:0001fc20       ??0LazyClassPathEntry@@QAE@PADUstat@@@Z 08020c20 f   classLoader.obj
 0001:0001fc70       ?add_to_list@ClassLoader@@SAXPAVClassPathEntry@@@Z 08020c70 f   classLoader.obj
 0001:0001fca0       ?load_zip_library@ClassLoader@@CAXXZ 08020ca0 f   classLoader.obj
 0001:0001fdb0       ?create_package_info_table@ClassLoader@@SAXPAVHashtableBucket@@HH@Z 08020db0 f   classLoader.obj
 0001:0001fe00       ?create_package_info_table@ClassLoader@@SAXXZ 08020e00 f   classLoader.obj
 0001:0001fe30       ?classloader_time_ms@ClassLoader@@SA_JXZ 08020e30 f   classLoader.obj
 0001:0001fe60       ?class_init_count@ClassLoader@@SA_JXZ 08020e60 f   classLoader.obj
 0001:0001fe80       ?class_init_time_ms@ClassLoader@@SA_JXZ 08020e80 f   classLoader.obj
 0001:0001feb0       ?class_verify_time_ms@ClassLoader@@SA_JXZ 08020eb0 f   classLoader.obj
 0001:0001fee0       ?initialize@PerfClassTraceTime@@QAEXXZ 08020ee0 f   classLoader.obj
 0001:0001ff80       ??1PerfClassTraceTime@@QAE@XZ 08020f80 f   classLoader.obj
 0001:00020050       ?open_stream@ClassPathZipEntry@@UAEPAVClassFileStream@@PBD@Z 08021050 f   classLoader.obj
 0001:000201a0       ?get_entry@PackageHashtable@@AAEPAVPackageInfo@@HIPBDI@Z 080211a0 f i classLoader.obj
 0001:00020200       ?get_entry@PackageHashtable@@QAEPAVPackageInfo@@PBDH@Z 08021200 f i classLoader.obj
 0001:00020240       ?copy_pkgnames@PackageHashtable@@QAEXPAPBD@Z 08021240 f i classLoader.obj
 0001:00020280       ?copy_table@PackageHashtable@@QAEXPAPADPADPAV1@@Z 08021280 f   classLoader.obj
 0001:000203b0       ?copy_package_info_table@ClassLoader@@SAXPAPADPAD@Z 080213b0 f   classLoader.obj
 0001:000203d0       ?add_package@ClassLoader@@CA_NPBDHPAVThread@@@Z 080213d0 f   classLoader.obj
 0001:000204e0       ?get_system_package@ClassLoader@@SAPAVoopDesc@@PBDPAVThread@@@Z 080214e0 f   classLoader.obj
 0001:00020580       ?load_classfile@ClassLoader@@SA?AVinstanceKlassHandle@@VsymbolHandle@@PAVThread@@@Z 08021580 f   classLoader.obj
 0001:00020770       ?get_canonical_path@ClassLoader@@CA_NPAD0H@Z 08021770 f   classLoader.obj
 0001:000207e0       ?setup_meta_index@ClassLoader@@CAXXZ 080217e0 f   classLoader.obj
 0001:00020b80       ?create_class_path_entry@ClassLoader@@CAXPADUstat@@PAPAVClassPathEntry@@_N@Z 08021b80 f   classLoader.obj
 0001:00020e00       ?create_class_path_zip_entry@ClassLoader@@SAPAVClassPathZipEntry@@PBD@Z 08021e00 f   classLoader.obj
 0001:00020ef0       ?resolve_entry@LazyClassPathEntry@@AAEPAVClassPathEntry@@XZ 08021ef0 f   classLoader.obj
 0001:00020f70       ?open_stream@LazyClassPathEntry@@UAEPAVClassFileStream@@PBD@Z 08021f70 f   classLoader.obj
 0001:00020fb0       ?setup_bootstrap_search_path@ClassLoader@@CAXXZ 08021fb0 f   classLoader.obj
 0001:000210f0       ?initialize@ClassLoader@@SAXXZ 080220f0 f   classLoader.obj
 0001:000215e0       ?classLoader_init@@YAXXZ   080225e0 f   classLoader.obj
 0001:000215f0       ?get_system_packages@ClassLoader@@SAPAVobjArrayOopDesc@@PAVThread@@@Z 080225f0 f   classLoader.obj
 0001:00021750       ?contains_protection_domain@DictionaryEntry@@QBE_NPAVoopDesc@@@Z 08022750 f   dictionary.obj
 0001:00021790       ?add_protection_domain@DictionaryEntry@@QAEXPAVoopDesc@@@Z 08022790 f   dictionary.obj
 0001:000217f0       ?compute_hash@TwoOopHashtable@@QAEIVsymbolHandle@@VHandle@@@Z 080227f0 f i dictionary.obj
 0001:00021880       ??0Dictionary@@QAE@H@Z     08022880 f   dictionary.obj
 0001:000218b0       ??0Dictionary@@QAE@HPAVHashtableBucket@@H@Z 080228b0 f   dictionary.obj
 0001:000218f0       ?do_unloading@Dictionary@@QAE_NPAVBoolObjectClosure@@@Z 080228f0 f   dictionary.obj
 0001:00021ee0       ??0SymbolPropertyTable@@QAE@H@Z 08022ee0 f   dictionary.obj
 0001:00021f00       ?add_entry@SymbolPropertyTable@@QAEPAVSymbolPropertyEntry@@HIVsymbolHandle@@H@Z 08022f00 f   dictionary.obj
 0001:00021f50       ?always_strong_classes_do@Dictionary@@QAEXPAVOopClosure@@@Z 08022f50 f   dictionary.obj
 0001:00021ff0       ?classes_do@Dictionary@@QAEXP6AXPAVklassOopDesc@@@Z@Z 08022ff0 f   dictionary.obj
 0001:00022050       ?classes_do@Dictionary@@QAEXP6AXPAVklassOopDesc@@PAVThread@@@Z1@Z 08023050 f   dictionary.obj
 0001:000220c0       ?classes_do@Dictionary@@QAEXP6AXPAVklassOopDesc@@PAVoopDesc@@PAVThread@@@Z2@Z 080230c0 f   dictionary.obj
 0001:00022120       ?classes_do@Dictionary@@QAEXP6AXPAVklassOopDesc@@PAVoopDesc@@@Z@Z 08023120 f   dictionary.obj
 0001:00022170       ?oops_do@Dictionary@@QAEXPAVOopClosure@@@Z 08023170 f   dictionary.obj
 0001:00022200       ?try_get_next_class@Dictionary@@QAEPAVklassOopDesc@@XZ 08023200 f   dictionary.obj
 0001:00022250       ?add_klass@Dictionary@@QAEXVsymbolHandle@@VHandle@@VKlassHandle@@@Z 08023250 f   dictionary.obj
 0001:000222c0       ?get_entry@Dictionary@@AAEPAVDictionaryEntry@@HIVsymbolHandle@@VHandle@@@Z 080232c0 f   dictionary.obj
 0001:00022320       ?find@Dictionary@@QAEPAVklassOopDesc@@HIVsymbolHandle@@VHandle@@1PAVThread@@@Z 08023320 f   dictionary.obj
 0001:00022370       ?find_class@Dictionary@@QAEPAVklassOopDesc@@HIVsymbolHandle@@VHandle@@@Z 08023370 f   dictionary.obj
 0001:000223a0       ?find_shared_class@Dictionary@@QAEPAVklassOopDesc@@HIVsymbolHandle@@@Z 080233a0 f   dictionary.obj
 0001:000223d0       ?add_protection_domain@Dictionary@@QAEXHIVinstanceKlassHandle@@VHandle@@1PAVThread@@@Z 080233d0 f   dictionary.obj
 0001:00022430       ?is_valid_protection_domain@Dictionary@@QAE_NHIVsymbolHandle@@VHandle@@1@Z 08023430 f   dictionary.obj
 0001:00022480       ?reorder_dictionary@Dictionary@@QAEXXZ 08023480 f   dictionary.obj
 0001:000225f0       ?find_entry@SymbolPropertyTable@@QAEPAVSymbolPropertyEntry@@HIVsymbolHandle@@H@Z 080235f0 f   dictionary.obj
 0001:00022640       ?oops_do@SymbolPropertyTable@@QAEXPAVOopClosure@@@Z 08023640 f   dictionary.obj
 0001:000226a0       ?verify@Dictionary@@QAEXXZ 080236a0 f   dictionary.obj
 0001:000227d0       ?count@OptionList@JavaAssertions@@SAHPAV12@@Z 080237d0 f   javaAssertions.obj
 0001:000227f0       ?match_class@JavaAssertions@@CAPAVOptionList@1@PBD@Z 080237f0 f i javaAssertions.obj
 0001:00022850       ?match_package@JavaAssertions@@CAPAVOptionList@1@PBD@Z 08023850 f   javaAssertions.obj
 0001:000228e0       ?enabled@JavaAssertions@@SA_NPBD_N@Z 080238e0 f   javaAssertions.obj
 0001:00022920       ?addOption@JavaAssertions@@SAXPBD_N@Z 08023920 f   javaAssertions.obj
 0001:00022a00       ?allocate_instance_handle@instanceKlass@@QAE?AVinstanceHandle@@PAVThread@@@Z 08023a00 f i javaAssertions.obj
 0001:00022a20       ?fillJavaArrays@JavaAssertions@@CAXPBVOptionList@1@HVobjArrayHandle@@VtypeArrayHandle@@PAVThread@@@Z 08023a20 f   javaAssertions.obj
 0001:00022ac0       ?createAssertionStatusDirectives@JavaAssertions@@SAPAVoopDesc@@PAVThread@@@Z 08023ac0 f   javaAssertions.obj
 0001:00022cf0       ?has_signature_field@java_lang_reflect_Method@@SA_NXZ 08023cf0 f   javaClasses.obj
 0001:00022d00       ?has_annotations_field@java_lang_reflect_Method@@SA_NXZ 08023d00 f   javaClasses.obj
 0001:00022d10       ?has_parameter_annotations_field@java_lang_reflect_Method@@SA_NXZ 08023d10 f   javaClasses.obj
 0001:00022d20       ?has_annotation_default_field@java_lang_reflect_Method@@SA_NXZ 08023d20 f   javaClasses.obj
 0001:00022d30       ?has_signature_field@java_lang_reflect_Constructor@@SA_NXZ 08023d30 f   javaClasses.obj
 0001:00022d40       ?has_annotations_field@java_lang_reflect_Constructor@@SA_NXZ 08023d40 f   javaClasses.obj
 0001:00022d50       ?has_parameter_annotations_field@java_lang_reflect_Constructor@@SA_NXZ 08023d50 f   javaClasses.obj
 0001:00022d60       ?has_signature_field@java_lang_reflect_Field@@SA_NXZ 08023d60 f   javaClasses.obj
 0001:00022d70       ?has_annotations_field@java_lang_reflect_Field@@SA_NXZ 08023d70 f   javaClasses.obj
 0001:00022d80       ?print@java_lang_boxing_object@@SAXW4BasicType@@PATjvalue@@PAVoutputStream@@@Z 08023d80 f   javaClasses.obj
 0001:00022ec0       ?in_offset_in_bytes@java_lang_System@@SAHXZ 08023ec0 f   javaClasses.obj
 0001:00022ed0       ?out_offset_in_bytes@java_lang_System@@SAHXZ 08023ed0 f   javaClasses.obj
 0001:00022ee0       ?err_offset_in_bytes@java_lang_System@@SAHXZ 08023ee0 f   javaClasses.obj
 0001:00022ef0       ?limit_offset@java_nio_Buffer@@SAHXZ 08023ef0 f   javaClasses.obj
 0001:00022f00       ?value_offset@sun_misc_AtomicLongCSImpl@@SAHXZ 08023f00 f   javaClasses.obj
 0001:00022f10       ?pc_desc_at@nmethod@@QAEPAVPcDesc@@PAE@Z 08023f10 f i javaClasses.obj
 0001:00022f40       ?returns_to_call_stub@StubRoutines@@SA_NPAE@Z 08023f40 f i javaClasses.obj
 0001:00022f70       ?is_gte_jdk14x_version@JDK_Version@@SA_NXZ 08023f70 f i javaClasses.obj
 0001:00022fc0       ?is_gte_jdk15x_version@JDK_Version@@SA_NXZ 08023fc0 f i javaClasses.obj
 0001:00023010       ??0frame@@QAE@PAH0PAE@Z    08024010 f i javaClasses.obj
 0001:00023060       ??0frame@@QAE@PAH0@Z       08024060 f i javaClasses.obj
 0001:000230b0       ?fill_from_compiled_native_frame@vframeStreamCommon@@IAEXXZ 080240b0 f i javaClasses.obj
 0001:000230e0       ?create_from_platform_dependent_str@java_lang_String@@SA?AVHandle@@PBDPAVThread@@@Z 080240e0 f   javaClasses.obj
 0001:000231b0       ?primitive_mirror@java_lang_Class@@SAPAVoopDesc@@W4BasicType@@@Z 080241b0 f   javaClasses.obj
 0001:000231c0       ?compute_offsets@java_lang_Class@@CAXXZ 080241c0 f   javaClasses.obj
 0001:00023240       ?classRedefinedCount@java_lang_Class@@SAHPAVoopDesc@@@Z 08024240 f   javaClasses.obj
 0001:00023270       ?set_classRedefinedCount@java_lang_Class@@SAXPAVoopDesc@@H@Z 08024270 f   javaClasses.obj
 0001:000232a0       ?thread@java_lang_Thread@@SAPAVJavaThread@@PAVoopDesc@@@Z 080242a0 f   javaClasses.obj
 0001:000232c0       ?set_thread@java_lang_Thread@@SAXPAVoopDesc@@PAVJavaThread@@@Z 080242c0 f   javaClasses.obj
 0001:000232e0       ?priority@java_lang_Thread@@SA?AW4ThreadPriority@@PAVoopDesc@@@Z 080242e0 f   javaClasses.obj
 0001:00023300       ?set_priority@java_lang_Thread@@SAXPAVoopDesc@@W4ThreadPriority@@@Z 08024300 f   javaClasses.obj
 0001:00023320       ?is_stillborn@java_lang_Thread@@SA_NPAVoopDesc@@@Z 08024320 f   javaClasses.obj
 0001:00023340       ?set_stillborn@java_lang_Thread@@SAXPAVoopDesc@@@Z 08024340 f   javaClasses.obj
 0001:00023360       ?is_alive@java_lang_Thread@@SA_NPAVoopDesc@@@Z 08024360 f   javaClasses.obj
 0001:00023380       ?is_daemon@java_lang_Thread@@SA_NPAVoopDesc@@@Z 08024380 f   javaClasses.obj
 0001:000233a0       ?set_daemon@java_lang_Thread@@SAXPAVoopDesc@@@Z 080243a0 f   javaClasses.obj
 0001:000233c0       ?stackSize@java_lang_Thread@@SA_JPAVoopDesc@@@Z 080243c0 f   javaClasses.obj
 0001:000233e0       ?set_thread_status@java_lang_Thread@@SAXPAVoopDesc@@W4ThreadStatus@1@@Z 080243e0 f   javaClasses.obj
 0001:00023400       ?get_thread_status@java_lang_Thread@@SA?AW4ThreadStatus@1@PAVoopDesc@@@Z 08024400 f   javaClasses.obj
 0001:00023430       ?thread_id@java_lang_Thread@@SA_JPAVoopDesc@@@Z 08024430 f   javaClasses.obj
 0001:00023450       ?park_event@java_lang_Thread@@SA_JPAVoopDesc@@@Z 08024450 f   javaClasses.obj
 0001:00023470       ?set_park_event@java_lang_Thread@@SA_NPAVoopDesc@@_J@Z 08024470 f   javaClasses.obj
 0001:000234a0       ?thread_status_name@java_lang_Thread@@SAPBDPAVoopDesc@@@Z 080244a0 f   javaClasses.obj
 0001:00023630       ?nthreads@java_lang_ThreadGroup@@SAHPAVoopDesc@@@Z 08024630 f   javaClasses.obj
 0001:00023650       ?ngroups@java_lang_ThreadGroup@@SAHPAVoopDesc@@@Z 08024650 f   javaClasses.obj
 0001:00023670       ?maxPriority@java_lang_ThreadGroup@@SA?AW4ThreadPriority@@PAVoopDesc@@@Z 08024670 f   javaClasses.obj
 0001:00023690       ?is_daemon@java_lang_ThreadGroup@@SA_NPAVoopDesc@@@Z 08024690 f   javaClasses.obj
 0001:000236b0       ?override@java_lang_reflect_AccessibleObject@@SAEPAVoopDesc@@@Z 080246b0 f   javaClasses.obj
 0001:000236d0       ?set_override@java_lang_reflect_AccessibleObject@@SAXPAVoopDesc@@E@Z 080246d0 f   javaClasses.obj
 0001:000236f0       ?slot@java_lang_reflect_Method@@SAHPAVoopDesc@@@Z 080246f0 f   javaClasses.obj
 0001:00023710       ?set_slot@java_lang_reflect_Method@@SAXPAVoopDesc@@H@Z 08024710 f   javaClasses.obj
 0001:00023730       ?set_modifiers@java_lang_reflect_Method@@SAXPAVoopDesc@@H@Z 08024730 f   javaClasses.obj
 0001:00023750       ?slot@java_lang_reflect_Constructor@@SAHPAVoopDesc@@@Z 08024750 f   javaClasses.obj
 0001:00023770       ?set_slot@java_lang_reflect_Constructor@@SAXPAVoopDesc@@H@Z 08024770 f   javaClasses.obj
 0001:00023790       ?set_modifiers@java_lang_reflect_Constructor@@SAXPAVoopDesc@@H@Z 08024790 f   javaClasses.obj
 0001:000237b0       ?slot@java_lang_reflect_Field@@SAHPAVoopDesc@@@Z 080247b0 f   javaClasses.obj
 0001:000237d0       ?set_slot@java_lang_reflect_Field@@SAXPAVoopDesc@@H@Z 080247d0 f   javaClasses.obj
 0001:000237f0       ?modifiers@java_lang_reflect_Field@@SAHPAVoopDesc@@@Z 080247f0 f   javaClasses.obj
 0001:00023810       ?set_modifiers@java_lang_reflect_Field@@SAXPAVoopDesc@@H@Z 08024810 f   javaClasses.obj
 0001:00023830       ?pending_list_lock@java_lang_ref_Reference@@SAPAVoopDesc@@XZ 08024830 f   javaClasses.obj
 0001:00023860       ?pending_list_addr@java_lang_ref_Reference@@SAPAVHeapWord@@XZ 08024860 f   javaClasses.obj
 0001:00023890       ?pending_list@java_lang_ref_Reference@@SAPAVoopDesc@@XZ 08024890 f   javaClasses.obj
 0001:000238c0       ?timestamp@java_lang_ref_SoftReference@@SA_JPAVoopDesc@@@Z 080248c0 f   javaClasses.obj
 0001:000238e0       ?clock@java_lang_ref_SoftReference@@SA_JXZ 080248e0 f   javaClasses.obj
 0001:00023910       ?set_clock@java_lang_ref_SoftReference@@SAX_J@Z 08024910 f   javaClasses.obj
 0001:00023950       ?set_vmentry@java_dyn_MethodHandle@@SAXPAVoopDesc@@PAVMethodHandleEntry@@@Z 08024950 f   javaClasses.obj
 0001:00023970       ?flags@sun_dyn_MemberName@@SAHPAVoopDesc@@@Z 08024970 f   javaClasses.obj
 0001:00023990       ?set_flags@sun_dyn_MemberName@@SAXPAVoopDesc@@H@Z 08024990 f   javaClasses.obj
 0001:000239b0       ?vmindex@sun_dyn_MemberName@@SAHPAVoopDesc@@@Z 080249b0 f   javaClasses.obj
 0001:000239d0       ?set_vmindex@sun_dyn_MemberName@@SAXPAVoopDesc@@H@Z 080249d0 f   javaClasses.obj
 0001:000239f0       ?vmindex@sun_dyn_DirectMethodHandle@@SAHPAVoopDesc@@@Z 080249f0 f   javaClasses.obj
 0001:00023a10       ?set_vmindex@sun_dyn_DirectMethodHandle@@SAXPAVoopDesc@@H@Z 08024a10 f   javaClasses.obj
 0001:00023a30       ?vmargslot@sun_dyn_BoundMethodHandle@@SAHPAVoopDesc@@@Z 08024a30 f   javaClasses.obj
 0001:00023a50       ?conversion@sun_dyn_AdapterMethodHandle@@SAHPAVoopDesc@@@Z 08024a50 f   javaClasses.obj
 0001:00023a70       ?set_conversion@sun_dyn_AdapterMethodHandle@@SAXPAVoopDesc@@H@Z 08024a70 f   javaClasses.obj
 0001:00023a90       ?compute_offsets@java_dyn_MethodTypeForm@@CAXXZ 08024a90 f   javaClasses.obj
 0001:00023b50       ?compute_offsets@java_security_AccessControlContext@@CAXXZ 08024b50 f   javaClasses.obj
 0001:00023c30       ?set_deflt@java_lang_AssertionStatusDirectives@@SAXPAVoopDesc@@_N@Z 08024c30 f   javaClasses.obj
 0001:00023c50       ?pd_last_frame@JavaThread@@AAE?AVframe@@XZ 08024c50 f i javaClasses.obj
 0001:00023ca0       ?is_a@oopDesc@@QBE_NPAVklassOopDesc@@@Z 08024ca0 f i javaClasses.obj
 0001:00023cd0       ?value@java_lang_String@@SAPAVtypeArrayOopDesc@@PAVoopDesc@@@Z 08024cd0 f i javaClasses.obj
 0001:00023cf0       ?read_oop@DebugInfoReadStream@@QAEPAVoopDesc@@XZ 08024cf0 f i javaClasses.obj
 0001:00023d30       ?fill_from_compiled_frame@vframeStreamCommon@@IAEXH@Z 08024d30 f i javaClasses.obj
 0001:00023ee0       ?as_klassOop@java_lang_Class@@SAPAVklassOopDesc@@PAVoopDesc@@@Z 08024ee0 f   javaClasses.obj
 0001:00023f00       ?resolved_constructor@java_lang_Class@@SAPAVmethodOopDesc@@PAVoopDesc@@@Z 08024f00 f   javaClasses.obj
 0001:00023f20       ?is_primitive@java_lang_Class@@SA_NPAVoopDesc@@@Z 08024f20 f   javaClasses.obj
 0001:00023f40       ?primitive_type@java_lang_Class@@SA?AW4BasicType@@PAVoopDesc@@@Z 08024f40 f   javaClasses.obj
 0001:00023f60       ?as_BasicType@java_lang_Class@@SA?AW4BasicType@@PAVoopDesc@@PAPAVklassOopDesc@@@Z 08024f60 f   javaClasses.obj
 0001:00023fb0       ?parallelCapable@java_lang_Class@@SA_NPAVoopDesc@@@Z 08024fb0 f   javaClasses.obj
 0001:00023fe0       ?compute_offsets@java_lang_Thread@@CAXXZ 08024fe0 f   javaClasses.obj
 0001:000241a0       ?name@java_lang_Thread@@SAPAVtypeArrayOopDesc@@PAVoopDesc@@@Z 080251a0 f   javaClasses.obj
 0001:000241c0       ?threadGroup@java_lang_Thread@@SAPAVoopDesc@@PAV2@@Z 080251c0 f   javaClasses.obj
 0001:000241e0       ?context_class_loader@java_lang_Thread@@SAPAVoopDesc@@PAV2@@Z 080251e0 f   javaClasses.obj
 0001:00024200       ?inherited_access_control_context@java_lang_Thread@@SAPAVoopDesc@@PAV2@@Z 08025200 f   javaClasses.obj
 0001:00024220       ?park_blocker@java_lang_Thread@@SAPAVoopDesc@@PAV2@@Z 08025220 f   javaClasses.obj
 0001:00024240       ?parent@java_lang_ThreadGroup@@SAPAVoopDesc@@PAV2@@Z 08025240 f   javaClasses.obj
 0001:00024260       ?name@java_lang_ThreadGroup@@SAPAVtypeArrayOopDesc@@PAVoopDesc@@@Z 08025260 f   javaClasses.obj
 0001:00024280       ?threads@java_lang_ThreadGroup@@SAPAVobjArrayOopDesc@@PAVoopDesc@@@Z 08025280 f   javaClasses.obj
 0001:000242a0       ?groups@java_lang_ThreadGroup@@SAPAVobjArrayOopDesc@@PAVoopDesc@@@Z 080252a0 f   javaClasses.obj
 0001:000242c0       ?compute_offsets@java_lang_ThreadGroup@@CAXXZ 080252c0 f   javaClasses.obj
 0001:000243d0       ?message@java_lang_Throwable@@SAPAVoopDesc@@PAV2@@Z 080253d0 f   javaClasses.obj
 0001:000243f0       ?print_stack_element_to_buffer@java_lang_Throwable@@CAPADPAVmethodOopDesc@@H@Z 080253f0 f   javaClasses.obj
 0001:00024580       ?print_stack_element@java_lang_Throwable@@SAXPAVoutputStream@@PAVmethodOopDesc@@H@Z 08025580 f   javaClasses.obj
 0001:000245f0       ?print_to_stream@java_lang_Throwable@@CAXVHandle@@PBD@Z 080255f0 f   javaClasses.obj
 0001:000246b0       ?compute_offsets@java_lang_reflect_Method@@CAXXZ 080256b0 f   javaClasses.obj
 0001:00024840       ?create@java_lang_reflect_Method@@SA?AVHandle@@PAVThread@@@Z 08025840 f   javaClasses.obj
 0001:00024870       ?clazz@java_lang_reflect_Method@@SAPAVoopDesc@@PAV2@@Z 08025870 f   javaClasses.obj
 0001:00024890       ?return_type@java_lang_reflect_Method@@SAPAVoopDesc@@PAV2@@Z 08025890 f   javaClasses.obj
 0001:000248b0       ?parameter_types@java_lang_reflect_Method@@SAPAVoopDesc@@PAV2@@Z 080258b0 f   javaClasses.obj
 0001:000248d0       ?compute_offsets@java_lang_reflect_Constructor@@CAXXZ 080258d0 f   javaClasses.obj
 0001:00024a00       ?create@java_lang_reflect_Constructor@@SA?AVHandle@@PAVThread@@@Z 08025a00 f   javaClasses.obj
 0001:00024a90       ?clazz@java_lang_reflect_Constructor@@SAPAVoopDesc@@PAV2@@Z 08025a90 f   javaClasses.obj
 0001:00024ab0       ?parameter_types@java_lang_reflect_Constructor@@SAPAVoopDesc@@PAV2@@Z 08025ab0 f   javaClasses.obj
 0001:00024ad0       ?compute_offsets@java_lang_reflect_Field@@CAXXZ 08025ad0 f   javaClasses.obj
 0001:00024bd0       ?create@java_lang_reflect_Field@@SA?AVHandle@@PAVThread@@@Z 08025bd0 f   javaClasses.obj
 0001:00024c60       ?clazz@java_lang_reflect_Field@@SAPAVoopDesc@@PAV2@@Z 08025c60 f   javaClasses.obj
 0001:00024c80       ?create@sun_reflect_ConstantPool@@SA?AVHandle@@PAVThread@@@Z 08025c80 f   javaClasses.obj
 0001:00024cf0       ?initialize_and_allocate@java_lang_boxing_object@@CAPAVoopDesc@@W4BasicType@@PAVThread@@@Z 08025cf0 f   javaClasses.obj
 0001:00024d70       ?create@java_lang_boxing_object@@SAPAVoopDesc@@W4BasicType@@PATjvalue@@PAVThread@@@Z 08025d70 f   javaClasses.obj
 0001:00024e80       ?basic_type@java_lang_boxing_object@@SA?AW4BasicType@@PAVoopDesc@@@Z 08025e80 f   javaClasses.obj
 0001:00024eb0       ?get_value@java_lang_boxing_object@@SA?AW4BasicType@@PAVoopDesc@@PATjvalue@@@Z 08025eb0 f   javaClasses.obj
 0001:00024fa0       ?compute_offsets@java_dyn_MethodHandle@@CAXXZ 08025fa0 f   javaClasses.obj
 0001:00025040       ?compute_offsets@sun_dyn_MemberName@@CAXXZ 08026040 f   javaClasses.obj
 0001:00025100       ?compute_offsets@sun_dyn_BoundMethodHandle@@CAXXZ 08026100 f   javaClasses.obj
 0001:00025150       ?type@java_dyn_MethodHandle@@SAPAVoopDesc@@PAV2@@Z 08026150 f   javaClasses.obj
 0001:00025170       ?clazz@sun_dyn_MemberName@@SAPAVoopDesc@@PAV2@@Z 08026170 f   javaClasses.obj
 0001:00025190       ?name@sun_dyn_MemberName@@SAPAVoopDesc@@PAV2@@Z 08026190 f   javaClasses.obj
 0001:000251b0       ?type@sun_dyn_MemberName@@SAPAVoopDesc@@PAV2@@Z 080261b0 f   javaClasses.obj
 0001:000251d0       ?vmtarget@sun_dyn_MemberName@@SAPAVoopDesc@@PAV2@@Z 080261d0 f   javaClasses.obj
 0001:000251f0       ?vmtarget@java_dyn_MethodHandle@@SAPAVoopDesc@@PAV2@@Z 080261f0 f   javaClasses.obj
 0001:00025210       ?argument@sun_dyn_BoundMethodHandle@@SAPAVoopDesc@@PAV2@@Z 08026210 f   javaClasses.obj
 0001:00025230       ?compute_offsets@java_dyn_MethodType@@CAXXZ 08026230 f   javaClasses.obj
 0001:00025290       ?rtype@java_dyn_MethodType@@SAPAVoopDesc@@PAV2@@Z 08026290 f   javaClasses.obj
 0001:000252b0       ?ptypes@java_dyn_MethodType@@SAPAVobjArrayOopDesc@@PAVoopDesc@@@Z 080262b0 f   javaClasses.obj
 0001:000252d0       ?ptype_count@java_dyn_MethodType@@SAHPAVoopDesc@@@Z 080262d0 f   javaClasses.obj
 0001:000252f0       ?compute_offsets@java_dyn_CallSite@@CAXXZ 080262f0 f   javaClasses.obj
 0001:00025360       ?target@java_dyn_CallSite@@SAPAVoopDesc@@PAV2@@Z 08026360 f   javaClasses.obj
 0001:00025380       ?non_reflection_class_loader@java_lang_ClassLoader@@SAPAVoopDesc@@PAV2@@Z 08026380 f   javaClasses.obj
 0001:000253d0       ?initialize@java_util_concurrent_locks_AbstractOwnableSynchronizer@@SAXPAVThread@@@Z 080263d0 f   javaClasses.obj
 0001:00025420       ?get_owner_threadObj@java_util_concurrent_locks_AbstractOwnableSynchronizer@@SAPAVoopDesc@@PAV2@@Z 08026420 f   javaClasses.obj
 0001:00025440       ?compute_hard_coded_offsets@JavaClasses@@SAXXZ 08026440 f   javaClasses.obj
 0001:00025570       ?compute_offsets@JavaClasses@@SAXXZ 08026570 f   javaClasses.obj
 0001:00025710       ?javaClasses_init@@YAXXZ   08026710 f   javaClasses.obj
 0001:00025720       ?print_signature@java_lang_Class@@SAXPAVoopDesc@@PAVoutputStream@@@Z 08026720 f   javaClasses.obj
 0001:000257c0       ?as_signature@java_lang_Class@@SAPAVsymbolOopDesc@@PAVoopDesc@@_NPAVThread@@@Z 080267c0 f   javaClasses.obj
 0001:000258a0       ?print_stack_element@java_lang_Throwable@@SAXVHandle@@PAVmethodOopDesc@@H@Z 080268a0 f   javaClasses.obj
 0001:00025910       ?is_trusted_loader@java_lang_ClassLoader@@SA_NPAVoopDesc@@@Z 08026910 f   javaClasses.obj
 0001:00025980       ?fill_from_frame@vframeStreamCommon@@IAE_NXZ 08026980 f i javaClasses.obj
 0001:00025a80       ?as_unicode_string@java_lang_String@@SAPAGPAVoopDesc@@AAH@Z 08026a80 f   javaClasses.obj
 0001:00025ae0       ?as_symbol@java_lang_String@@SA?AVsymbolHandle@@VHandle@@PAVThread@@@Z 08026ae0 f   javaClasses.obj
 0001:00025b40       ?as_symbol_or_null@java_lang_String@@SAPAVsymbolOopDesc@@PAVoopDesc@@@Z 08026b40 f   javaClasses.obj
 0001:00025b90       ?utf8_length@java_lang_String@@SAHPAVoopDesc@@@Z 08026b90 f   javaClasses.obj
 0001:00025be0       ?as_utf8_string@java_lang_String@@SAPADPAVoopDesc@@@Z 08026be0 f   javaClasses.obj
 0001:00025c30       ?as_utf8_string@java_lang_String@@SAPADPAVoopDesc@@PADH@Z 08026c30 f   javaClasses.obj
 0001:00025c90       ?as_utf8_string@java_lang_String@@SAPADPAVoopDesc@@HH@Z 08026c90 f   javaClasses.obj
 0001:00025cc0       ?equals@java_lang_String@@SA_NPAVoopDesc@@PAGH@Z 08026cc0 f   javaClasses.obj
 0001:00025d20       ?print@java_lang_String@@SAXVHandle@@PAVoutputStream@@@Z 08026d20 f   javaClasses.obj
 0001:00025db0       ?set_backtrace@java_lang_Throwable@@SAXPAVoopDesc@@0@Z 08026db0 f   javaClasses.obj
 0001:00025e00       ?print@java_lang_Throwable@@SAXPAVoopDesc@@PAVoutputStream@@@Z 08026e00 f   javaClasses.obj
 0001:00025ea0       ?print@java_lang_Throwable@@SAXVHandle@@PAVoutputStream@@@Z 08026ea0 f   javaClasses.obj
 0001:00025f40       ?vmslots@java_dyn_MethodHandle@@SAHPAVoopDesc@@@Z 08026f40 f   javaClasses.obj
 0001:00025f80       ?init_vmslots@java_dyn_MethodHandle@@SAXPAVoopDesc@@@Z 08026f80 f   javaClasses.obj
 0001:00025fd0       ?set_java_mirror@Klass@@QAEXPAVoopDesc@@@Z 08026fd0 f i javaClasses.obj
 0001:00026020       ?set_component_mirror@arrayKlass@@QAEXPAVoopDesc@@@Z 08027020 f i javaClasses.obj
 0001:00026070       ?next@vframeStreamCommon@@QAEXXZ 08027070 f i javaClasses.obj
 0001:000260e0       ??0vframeStream@@QAE@PAVJavaThread@@_N@Z 080270e0 f i javaClasses.obj
 0001:00026200       ?basic_create@java_lang_String@@CA?AVHandle@@H_NPAVThread@@@Z 08027200 f   javaClasses.obj
 0001:000262d0       ?basic_create_from_unicode@java_lang_String@@CA?AVHandle@@PAGH_NPAVThread@@@Z 080272d0 f   javaClasses.obj
 0001:00026340       ?create_tenured_from_unicode@java_lang_String@@SA?AVHandle@@PAGHPAVThread@@@Z 08027340 f   javaClasses.obj
 0001:00026370       ?create_oop_from_unicode@java_lang_String@@SAPAVoopDesc@@PAGHPAVThread@@@Z 08027370 f   javaClasses.obj
 0001:000263b0       ?create_from_str@java_lang_String@@SA?AVHandle@@PBDPAVThread@@@Z 080273b0 f   javaClasses.obj
 0001:00026490       ?create_oop_from_str@java_lang_String@@SAPAVoopDesc@@PBDPAVThread@@@Z 08027490 f   javaClasses.obj
 0001:000264c0       ?create_from_symbol@java_lang_String@@SA?AVHandle@@VsymbolHandle@@PAVThread@@@Z 080274c0 f   javaClasses.obj
 0001:000265a0       ?char_converter@java_lang_String@@SA?AVHandle@@V2@GGPAVThread@@@Z 080275a0 f   javaClasses.obj
 0001:00026730       ?set_array_klass@java_lang_Class@@SAXPAVoopDesc@@PAVklassOopDesc@@@Z 08027730 f   javaClasses.obj
 0001:00026750       ?set_resolved_constructor@java_lang_Class@@SAXPAVoopDesc@@PAVmethodOopDesc@@@Z 08027750 f   javaClasses.obj
 0001:00026770       ?set_message@java_lang_Throwable@@SAXPAVoopDesc@@0@Z 08027770 f   javaClasses.obj
 0001:00026790       ?print_stack_trace@java_lang_Throwable@@SAXPAVoopDesc@@PAVoutputStream@@@Z 08027790 f   javaClasses.obj
 0001:00026b30       ?print_stack_trace@java_lang_Throwable@@SAXPAVoopDesc@@0@Z 08027b30 f   javaClasses.obj
 0001:00026c90       ?expand@BacktraceBuilder@@QAEXPAVThread@@@Z 08027c90 f i javaClasses.obj
 0001:00026dd0       ?push@BacktraceBuilder@@QAEXPAVmethodOopDesc@@FPAVThread@@@Z 08027dd0 f i javaClasses.obj
 0001:00026e50       ?allocate_backtrace@java_lang_Throwable@@SAXVHandle@@PAVThread@@@Z 08027e50 f   javaClasses.obj
 0001:00026f40       ?fill_in_stack_trace_of_preallocated_backtrace@java_lang_Throwable@@SAXVHandle@@@Z 08027f40 f   javaClasses.obj
 0001:00027070       ?get_stack_trace_depth@java_lang_Throwable@@SAHPAVoopDesc@@PAVThread@@@Z 08028070 f   javaClasses.obj
 0001:000270f0       ?set_clazz@java_lang_reflect_Method@@SAXPAVoopDesc@@0@Z 080280f0 f   javaClasses.obj
 0001:00027110       ?set_name@java_lang_reflect_Method@@SAXPAVoopDesc@@0@Z 08028110 f   javaClasses.obj
 0001:00027130       ?set_return_type@java_lang_reflect_Method@@SAXPAVoopDesc@@0@Z 08028130 f   javaClasses.obj
 0001:00027150       ?set_parameter_types@java_lang_reflect_Method@@SAXPAVoopDesc@@0@Z 08028150 f   javaClasses.obj
 0001:00027170       ?set_exception_types@java_lang_reflect_Method@@SAXPAVoopDesc@@0@Z 08028170 f   javaClasses.obj
 0001:00027190       ?set_signature@java_lang_reflect_Method@@SAXPAVoopDesc@@0@Z 08028190 f   javaClasses.obj
 0001:000271b0       ?set_annotations@java_lang_reflect_Method@@SAXPAVoopDesc@@0@Z 080281b0 f   javaClasses.obj
 0001:000271d0       ?set_parameter_annotations@java_lang_reflect_Method@@SAXPAVoopDesc@@0@Z 080281d0 f   javaClasses.obj
 0001:000271f0       ?set_annotation_default@java_lang_reflect_Method@@SAXPAVoopDesc@@0@Z 080281f0 f   javaClasses.obj
 0001:00027210       ?set_clazz@java_lang_reflect_Constructor@@SAXPAVoopDesc@@0@Z 08028210 f   javaClasses.obj
 0001:00027230       ?set_parameter_types@java_lang_reflect_Constructor@@SAXPAVoopDesc@@0@Z 08028230 f   javaClasses.obj
 0001:00027250       ?set_exception_types@java_lang_reflect_Constructor@@SAXPAVoopDesc@@0@Z 08028250 f   javaClasses.obj
 0001:00027270       ?set_signature@java_lang_reflect_Constructor@@SAXPAVoopDesc@@0@Z 08028270 f   javaClasses.obj
 0001:00027290       ?set_annotations@java_lang_reflect_Constructor@@SAXPAVoopDesc@@0@Z 08028290 f   javaClasses.obj
 0001:000272b0       ?set_parameter_annotations@java_lang_reflect_Constructor@@SAXPAVoopDesc@@0@Z 080282b0 f   javaClasses.obj
 0001:000272d0       ?set_clazz@java_lang_reflect_Field@@SAXPAVoopDesc@@0@Z 080282d0 f   javaClasses.obj
 0001:000272f0       ?set_name@java_lang_reflect_Field@@SAXPAVoopDesc@@0@Z 080282f0 f   javaClasses.obj
 0001:00027310       ?set_type@java_lang_reflect_Field@@SAXPAVoopDesc@@0@Z 08028310 f   javaClasses.obj
 0001:00027330       ?set_signature@java_lang_reflect_Field@@SAXPAVoopDesc@@0@Z 08028330 f   javaClasses.obj
 0001:00027350       ?set_annotations@java_lang_reflect_Field@@SAXPAVoopDesc@@0@Z 08028350 f   javaClasses.obj
 0001:00027370       ?set_cp_oop@sun_reflect_ConstantPool@@SAXPAVoopDesc@@0@Z 08028370 f   javaClasses.obj
 0001:00027390       ?set_clazz@sun_dyn_MemberName@@SAXPAVoopDesc@@0@Z 08028390 f   javaClasses.obj
 0001:000273b0       ?set_name@sun_dyn_MemberName@@SAXPAVoopDesc@@0@Z 080283b0 f   javaClasses.obj
 0001:000273d0       ?set_type@sun_dyn_MemberName@@SAXPAVoopDesc@@0@Z 080283d0 f   javaClasses.obj
 0001:000273f0       ?set_vmtarget@sun_dyn_MemberName@@SAXPAVoopDesc@@0@Z 080283f0 f   javaClasses.obj
 0001:00027410       ?set_vmtarget@java_dyn_MethodHandle@@SAXPAVoopDesc@@0@Z 08028410 f   javaClasses.obj
 0001:00027430       ?print_signature@java_dyn_MethodType@@SAXPAVoopDesc@@PAVoutputStream@@@Z 08028430 f   javaClasses.obj
 0001:000274a0       ?as_signature@java_dyn_MethodType@@SAPAVsymbolOopDesc@@PAVoopDesc@@_NPAVThread@@@Z 080284a0 f   javaClasses.obj
 0001:00027570       ?ptype@java_dyn_MethodType@@SAPAVoopDesc@@PAV2@H@Z 08028570 f   javaClasses.obj
 0001:00027590       ?set_target@java_dyn_CallSite@@SAXPAVoopDesc@@0@Z 08028590 f   javaClasses.obj
 0001:000275b0       ?create@java_security_AccessControlContext@@SAPAVoopDesc@@VobjArrayHandle@@_NVHandle@@PAVThread@@@Z 080285b0 f   javaClasses.obj
 0001:00027640       ?set_fileName@java_lang_StackTraceElement@@SAXPAVoopDesc@@0@Z 08028640 f   javaClasses.obj
 0001:00027660       ?set_classes@java_lang_AssertionStatusDirectives@@SAXPAVoopDesc@@0@Z 08028660 f   javaClasses.obj
 0001:00027680       ?set_classEnabled@java_lang_AssertionStatusDirectives@@SAXPAVoopDesc@@0@Z 08028680 f   javaClasses.obj
 0001:000276a0       ?set_packages@java_lang_AssertionStatusDirectives@@SAXPAVoopDesc@@0@Z 080286a0 f   javaClasses.obj
 0001:000276c0       ?set_packageEnabled@java_lang_AssertionStatusDirectives@@SAXPAVoopDesc@@0@Z 080286c0 f   javaClasses.obj
 0001:000276e0       ?create_mirror@java_lang_Class@@SAPAVoopDesc@@VKlassHandle@@PAVThread@@@Z 080286e0 f   javaClasses.obj
 0001:000277d0       ?create_basic_type_mirror@java_lang_Class@@SAPAVoopDesc@@PBDW4BasicType@@PAVThread@@@Z 080287d0 f   javaClasses.obj
 0001:00027820       ?fill_in_stack_trace@java_lang_Throwable@@SAXVHandle@@PAVThread@@@Z 08028820 f   javaClasses.obj
 0001:00027bf0       ?fill_in_stack_trace@java_lang_Throwable@@SAXVHandle@@@Z 08028bf0 f   javaClasses.obj
 0001:00027c40       ?create@java_lang_StackTraceElement@@SAPAVoopDesc@@VmethodHandle@@HPAVThread@@@Z 08028c40 f   javaClasses.obj
 0001:00027e20       ?get_stack_trace_element@java_lang_Throwable@@SAPAVoopDesc@@PAV2@HPAVThread@@@Z 08028e20 f   javaClasses.obj
 0001:00027f40       ?contains@MemRegion@@QBE_NPBX@Z 08028f40 f i loaderConstraints.obj
 0001:00027f70       ?is_shared@oopDesc@@QBE_NXZ 08028f70 f i loaderConstraints.obj
 0001:00027f90       ?ensure_loader_constraint_capacity@LoaderConstraintTable@@QAEXPAVLoaderConstraintEntry@@H@Z 08028f90 f   loaderConstraints.obj
 0001:00028020       ?compute_hash@Hashtable@@IAEIVsymbolHandle@@@Z 08029020 f i loaderConstraints.obj
 0001:00028060       ?is_oop@oopDesc@@QBE_N_N@Z 08029060 f i loaderConstraints.obj
 0001:00028120       ?loader_name@SystemDictionary@@SAPBDPAVoopDesc@@@Z 08029120 f i loaderConstraints.obj
 0001:00028140       ??0LoaderConstraintTable@@QAE@H@Z 08029140 f   loaderConstraints.obj
 0001:00028160       ?find_loader_constraint@LoaderConstraintTable@@AAEPAPAVLoaderConstraintEntry@@VsymbolHandle@@VHandle@@@Z 08029160 f   loaderConstraints.obj
 0001:00028210       ?purge_loader_constraints@LoaderConstraintTable@@QAEXPAVBoolObjectClosure@@@Z 08029210 f   loaderConstraints.obj
 0001:00028580       ?check_or_update@LoaderConstraintTable@@QAE_NVinstanceKlassHandle@@VHandle@@VsymbolHandle@@@Z 08029580 f   loaderConstraints.obj
 0001:00028690       ?find_constrained_klass@LoaderConstraintTable@@QAEPAVklassOopDesc@@VsymbolHandle@@VHandle@@@Z 08029690 f   loaderConstraints.obj
 0001:000286c0       ?extend_loader_constraint@LoaderConstraintTable@@QAEXPAVLoaderConstraintEntry@@VHandle@@PAVklassOopDesc@@@Z 080296c0 f   loaderConstraints.obj
 0001:000287b0       ?merge_loader_constraints@LoaderConstraintTable@@QAEXPAPAVLoaderConstraintEntry@@0PAVklassOopDesc@@@Z 080297b0 f   loaderConstraints.obj
 0001:00028930       ?oops_do@LoaderConstraintTable@@QAEXPAVOopClosure@@@Z 08029930 f   loaderConstraints.obj
 0001:000289d0       ?always_strong_classes_do@LoaderConstraintTable@@QAEXPAVOopClosure@@@Z 080299d0 f   loaderConstraints.obj
 0001:00028a20       ?add_entry@LoaderConstraintTable@@QAE_NVsymbolHandle@@PAVklassOopDesc@@VHandle@@12@Z 08029a20 f   loaderConstraints.obj
 0001:00028dc0       ?verify@LoaderConstraintTable@@QAEXPAVDictionary@@PAVPlaceholderTable@@@Z 08029dc0 f   loaderConstraints.obj
 0001:00028ff0       ?set_threadQ@PlaceholderEntry@@QAEXPAVSeenThread@@W4classloadAction@PlaceholderTable@@@Z 08029ff0 f i placeholders.obj
 0001:00029040       ?add_seen_thread@PlaceholderEntry@@QAEXPAVThread@@W4classloadAction@PlaceholderTable@@@Z 0802a040 f i placeholders.obj
 0001:00029100       ?remove_entry@PlaceholderTable@@QAEXHIVsymbolHandle@@VHandle@@@Z 0802a100 f   placeholders.obj
 0001:00029170       ??0PlaceholderTable@@QAE@H@Z 0802a170 f   placeholders.obj
 0001:00029190       ?add_entry@PlaceholderTable@@QAEXHIVsymbolHandle@@VHandle@@_N0@Z 0802a190 f   placeholders.obj
 0001:00029220       ?get_entry@PlaceholderTable@@QAEPAVPlaceholderEntry@@HIVsymbolHandle@@VHandle@@@Z 0802a220 f   placeholders.obj
 0001:00029270       ?find_entry@PlaceholderTable@@QAEPAVsymbolOopDesc@@HIVsymbolHandle@@VHandle@@@Z 0802a270 f   placeholders.obj
 0001:000292a0       ?find_and_add@PlaceholderTable@@QAEPAVPlaceholderEntry@@HIVsymbolHandle@@VHandle@@W4classloadAction@1@0PAVThread@@@Z 0802a2a0 f   placeholders.obj
 0001:00029330       ?find_and_remove@PlaceholderTable@@QAEXHIVsymbolHandle@@VHandle@@PAVThread@@@Z 0802a330 f   placeholders.obj
 0001:00029390       ?oops_do@PlaceholderTable@@QAEXPAVOopClosure@@@Z 0802a390 f   placeholders.obj
 0001:00029410       ?verify@PlaceholderTable@@QAEXXZ 0802a410 f   placeholders.obj
 0001:000294e0       ?purge_resolution_errors@ResolutionErrorTable@@QAEXPAVBoolObjectClosure@@@Z 0802a4e0 f   resolutionErrors.obj
 0001:00029550       ??0ResolutionErrorTable@@QAE@H@Z 0802a550 f   resolutionErrors.obj
 0001:00029570       ?add_entry@ResolutionErrorTable@@QAEXHIVconstantPoolHandle@@HVsymbolHandle@@@Z 0802a570 f   resolutionErrors.obj
 0001:000295d0       ?find_entry@ResolutionErrorTable@@QAEPAVResolutionErrorEntry@@HIVconstantPoolHandle@@H@Z 0802a5d0 f   resolutionErrors.obj
 0001:00029620       ?oops_do@ResolutionErrorTable@@QAEXPAVOopClosure@@@Z 0802a620 f   resolutionErrors.obj
 0001:00029680       ?always_strong_classes_do@ResolutionErrorTable@@QAEXPAVOopClosure@@@Z 0802a680 f   resolutionErrors.obj
 0001:000296d0       ?uninitialized_type@VerificationType@@SA?AV1@G@Z 0802a6d0 f i stackMapFrame.obj
 0001:000296f0       ??8VerificationType@@QBE_NABV0@@Z 0802a6f0 f i stackMapFrame.obj
 0001:000296f0       ?equals@VerificationType@@QBE_NABV1@@Z 0802a6f0 f i stackMapFrame.obj
 0001:00029730       ??0StackMapFrame@@QAE@HEGGGGPAVVerificationType@@0PAVClassVerifier@@@Z 0802a730 f i stackMapFrame.obj
 0001:00029780       ??0StackMapFrame@@QAE@GGPAVClassVerifier@@@Z 0802a780 f   stackMapFrame.obj
 0001:00029810       ?has_new_object@StackMapFrame@@QBE_NXZ 0802a810 f   stackMapFrame.obj
 0001:00029860       ?initialize_object@StackMapFrame@@QAEXVVerificationType@@0@Z 0802a860 f   stackMapFrame.obj
 0001:000298f0       ?copy_locals@StackMapFrame@@QAEXPBV1@@Z 0802a8f0 f   stackMapFrame.obj
 0001:00029930       ?copy_stack@StackMapFrame@@QAEXPBV1@@Z 0802a930 f   stackMapFrame.obj
 0001:00029970       ?set_local@StackMapFrame@@QAEXHVVerificationType@@PAVThread@@@Z 0802a970 f   stackMapFrame.obj
 0001:000299f0       ?set_local_2@StackMapFrame@@QAEXHVVerificationType@@0PAVThread@@@Z 0802a9f0 f   stackMapFrame.obj
 0001:00029a80       ?is_assignable_from@VerificationType@@QBE_NABV1@VinstanceKlassHandle@@PAVThread@@@Z 0802aa80 f i stackMapFrame.obj
 0001:00029ba0       ?frame_in_exception_handler@StackMapFrame@@QAEPAV1@E@Z 0802aba0 f   stackMapFrame.obj
 0001:00029c30       ?is_assignable_to@StackMapFrame@@QBE_NPAVVerificationType@@0HPAVThread@@@Z 0802ac30 f   stackMapFrame.obj
 0001:00029c90       ?is_assignable_to@StackMapFrame@@QBE_NPBV1@PAVThread@@@Z 0802ac90 f   stackMapFrame.obj
 0001:00029d30       ?pop_stack_ex@StackMapFrame@@QAE?AVVerificationType@@V2@PAVThread@@@Z 0802ad30 f   stackMapFrame.obj
 0001:00029db0       ?get_local@StackMapFrame@@QAE?AVVerificationType@@HV2@PAVThread@@@Z 0802adb0 f   stackMapFrame.obj
 0001:00029e60       ?get_local_2@StackMapFrame@@QAEXHVVerificationType@@0PAVThread@@@Z 0802ae60 f   stackMapFrame.obj
 0001:00029f10       ?change_sig_to_verificationType@ClassVerifier@@QAEHPAVSignatureStream@@PAVVerificationType@@PAVThread@@@Z 0802af10 f i stackMapFrame.obj
 0001:0002a000       ?set_locals_from_arg@StackMapFrame@@QAE?AVVerificationType@@VmethodHandle@@V2@PAVThread@@@Z 0802b000 f   stackMapFrame.obj
 0001:0002a210       ?to_category2_2nd@VerificationType@@QBE?AV1@XZ 0802b210 f i stackMapTable.obj
 0001:0002a240       ?reset@StackMapFrame@@QAEXXZ 0802b240 f i stackMapTable.obj
 0001:0002a290       ?check_verification_type_array_size@StackMapReader@@AAEXHHPAVThread@@@Z 0802b290 f i stackMapTable.obj
 0001:0002a2c0       ?check_new_object@StackMapTable@@QBEXPBVStackMapFrame@@HPAVThread@@@Z 0802b2c0 f   stackMapTable.obj
 0001:0002a300       ?chop@StackMapReader@@AAEHPAVVerificationType@@HH@Z 0802b300 f   stackMapTable.obj
 0001:0002a360       ?is_uninitialized_this@VerificationType@@QBE_NXZ 0802b360 f i stackMapTable.obj
 0001:0002a380       ?match_stackmap@StackMapTable@@QBE_NPAVStackMapFrame@@HH_N1PAVThread@@@Z 0802b380 f   stackMapTable.obj
 0001:0002a450       ?match_stackmap@StackMapTable@@QBE_NPAVStackMapFrame@@H_N1PAVThread@@@Z 0802b450 f   stackMapTable.obj
 0001:0002a4a0       ?check_jump_target@StackMapTable@@QBEXPAVStackMapFrame@@HPAVThread@@@Z 0802b4a0 f   stackMapTable.obj
 0001:0002a580       ?get_u1@StackMapStream@@QAEEPAVThread@@@Z 0802b580 f i stackMapTable.obj
 0001:0002a5e0       ?get_u2@StackMapStream@@QAEGPAVThread@@@Z 0802b5e0 f i stackMapTable.obj
 0001:0002a640       ?parse_verification_type@StackMapReader@@AAE?AVVerificationType@@PAEPAVThread@@@Z 0802b640 f   stackMapTable.obj
 0001:0002a780       ?next@StackMapReader@@QAEPAVStackMapFrame@@PAV2@_NGGPAVThread@@@Z 0802b780 f   stackMapTable.obj
 0001:0002aea0       ??0StackMapTable@@QAE@PAVStackMapReader@@PAVStackMapFrame@@GGPADHPAVThread@@@Z 0802bea0 f   stackMapTable.obj
 0001:0002af80       ??_H@YGXPAXIHP6EPAX0@Z@Z   0802bf80 f i symbolTable.obj
 0001:0002afb0       ?hash_string@StringTable@@SAHPAGH@Z 0802bfb0 f   symbolTable.obj
 0001:0002afe0       ?lookup@SymbolTable@@AAEPAVsymbolOopDesc@@HPBDHI@Z 0802bfe0 f   symbolTable.obj
 0001:0002b040       ?lookup_only@SymbolTable@@SAPAVsymbolOopDesc@@PBDHAAI@Z 0802c040 f   symbolTable.obj
 0001:0002b090       ?lookup_only_unicode@SymbolTable@@SAPAVsymbolOopDesc@@PBGHAAI@Z 0802c090 f   symbolTable.obj
 0001:0002b160       ?basic_add@SymbolTable@@AAEPAVsymbolOopDesc@@HPAEHIPAVThread@@@Z 0802c160 f   symbolTable.obj
 0001:0002b220       ?verify@SymbolTable@@SAXXZ 0802c220 f   symbolTable.obj
 0001:0002b330       ?lookup@StringTable@@AAEPAVoopDesc@@HPAGHI@Z 0802c330 f   symbolTable.obj
 0001:0002b390       ?basic_add@StringTable@@AAEPAVoopDesc@@HVHandle@@PAGHIPAVThread@@@Z 0802c390 f   symbolTable.obj
 0001:0002b480       ?intern@StringTable@@CAPAVoopDesc@@VHandle@@PAGHPAVThread@@@Z 0802c480 f   symbolTable.obj
 0001:0002b4e0       ?intern@StringTable@@SAPAVoopDesc@@PAVsymbolOopDesc@@PAVThread@@@Z 0802c4e0 f   symbolTable.obj
 0001:0002b580       ?intern@StringTable@@SAPAVoopDesc@@PAV2@PAVThread@@@Z 0802c580 f   symbolTable.obj
 0001:0002b630       ?intern@StringTable@@SAPAVoopDesc@@PBDPAVThread@@@Z 0802c630 f   symbolTable.obj
 0001:0002b6f0       ?verify@StringTable@@SAXXZ 0802c6f0 f   symbolTable.obj
 0001:0002b810       ?lookup@SymbolTable@@SAPAVsymbolOopDesc@@PBDHPAVThread@@@Z 0802c810 f   symbolTable.obj
 0001:0002b870       ?lookup@SymbolTable@@SAPAVsymbolOopDesc@@VsymbolHandle@@HHPAVThread@@@Z 0802c870 f   symbolTable.obj
 0001:0002b970       ?lookup_unicode@SymbolTable@@SAPAVsymbolOopDesc@@PBGHPAVThread@@@Z 0802c970 f   symbolTable.obj
 0001:0002ba30       ?basic_add@SymbolTable@@AAE_NVconstantPoolHandle@@HPAPBDPAH2PAIPAVThread@@@Z 0802ca30 f   symbolTable.obj
 0001:0002bc50       ?add@SymbolTable@@SAXVconstantPoolHandle@@HPAPBDPAH2PAIPAVThread@@@Z 0802cc50 f   symbolTable.obj
 0001:0002bd40       ?remove_seen_thread@PlaceholderEntry@@QAE_NPAVThread@@W4classloadAction@PlaceholderTable@@@Z 0802cd40 f i systemDictionary.obj
 0001:0002be30       ?java_system_loader@SystemDictionary@@SAPAVoopDesc@@XZ 0802ce30 f   systemDictionary.obj
 0001:0002be40       ?double_lock_wait@SystemDictionary@@CAXVHandle@@PAVThread@@@Z 0802ce40 f   systemDictionary.obj
 0001:0002bea0       ?find_well_known_klass@SystemDictionary@@SAPAVklassOopDesc@@PAVsymbolOopDesc@@@Z 0802cea0 f   systemDictionary.obj
 0001:0002c2b0       ?set_shared_dictionary@SystemDictionary@@SAXPAVHashtableBucket@@HH@Z 0802d2b0 f   systemDictionary.obj
 0001:0002c2f0       ?box_klass_type@SystemDictionary@@SA?AW4BasicType@@PAVklassOopDesc@@@Z 0802d2f0 f   systemDictionary.obj
 0001:0002c320       ??1PerfTraceTime@@QAE@XZ   0802d320 f i systemDictionary.obj
 0001:0002c360       ?do_bool@SignatureInfo@@MAEXXZ 0802d360 f i systemDictionary.obj
 0001:0002c370       ?do_char@SignatureInfo@@MAEXXZ 0802d370 f i systemDictionary.obj
 0001:0002c380       ?do_float@SignatureInfo@@MAEXXZ 0802d380 f i systemDictionary.obj
 0001:0002c390       ?do_double@SignatureInfo@@MAEXXZ 0802d390 f i systemDictionary.obj
 0001:0002c3a0       ?do_byte@SignatureInfo@@MAEXXZ 0802d3a0 f i systemDictionary.obj
 0001:0002c3b0       ?do_short@SignatureInfo@@MAEXXZ 0802d3b0 f i systemDictionary.obj
 0001:0002c3c0       ?do_int@SignatureInfo@@MAEXXZ 0802d3c0 f i systemDictionary.obj
 0001:0002c3d0       ?do_long@SignatureInfo@@MAEXXZ 0802d3d0 f i systemDictionary.obj
 0001:0002c3e0       ?do_void@SignatureInfo@@MAEXXZ 0802d3e0 f i systemDictionary.obj
 0001:0002c3f0       ?do_object@SignatureInfo@@MAEXHH@Z 0802d3f0 f i systemDictionary.obj
 0001:0002c400       ?do_array@SignatureInfo@@MAEXHH@Z 0802d400 f i systemDictionary.obj
 0001:0002c410       ??0ArgumentCount@@QAE@VsymbolHandle@@@Z 0802d410 f i systemDictionary.obj
 0001:0002c440       ?set@ArgumentCount@@EAEXHW4BasicType@@@Z 0802d440 f i systemDictionary.obj
 0001:0002c450       ?push_oop@JavaCallArguments@@QAEXVHandle@@@Z 0802d450 f i systemDictionary.obj
 0001:0002c480       ?is_parallelCapable@SystemDictionary@@CA_NVHandle@@@Z 0802d480 f   systemDictionary.obj
 0001:0002c4c0       ?check_loader_lock_contention@SystemDictionary@@CAXVHandle@@PAVThread@@@Z 0802d4c0 f   systemDictionary.obj
 0001:0002c530       ?find_class@SystemDictionary@@CAPAVklassOopDesc@@HIVsymbolHandle@@VHandle@@@Z 0802d530 f   systemDictionary.obj
 0001:0002c550       ?try_get_next_class@SystemDictionary@@SAPAVklassOopDesc@@XZ 0802d550 f   systemDictionary.obj
 0001:0002c560       ?add_to_hierarchy@SystemDictionary@@CAXVinstanceKlassHandle@@PAVThread@@@Z 0802d560 f   systemDictionary.obj
 0001:0002c5b0       ?placeholders_do@SystemDictionary@@SAXPAVOopClosure@@@Z 0802d5b0 f   systemDictionary.obj
 0001:0002c5d0       ?do_unloading@SystemDictionary@@SA_NPAVBoolObjectClosure@@@Z 0802d5d0 f   systemDictionary.obj
 0001:0002c610       ?classes_do@SystemDictionary@@SAXP6AXPAVklassOopDesc@@@Z@Z 0802d610 f   systemDictionary.obj
 0001:0002c630       ?classes_do@SystemDictionary@@SAXP6AXPAVklassOopDesc@@PAVThread@@@Z1@Z 0802d630 f   systemDictionary.obj
 0001:0002c650       ?classes_do@SystemDictionary@@SAXP6AXPAVklassOopDesc@@PAVoopDesc@@@Z@Z 0802d650 f   systemDictionary.obj
 0001:0002c670       ?classes_do@SystemDictionary@@SAXP6AXPAVklassOopDesc@@PAVoopDesc@@PAVThread@@@Z2@Z 0802d670 f   systemDictionary.obj
 0001:0002c690       ?reorder_dictionary@SystemDictionary@@SAXXZ 0802d690 f   systemDictionary.obj
 0001:0002c6a0       ?copy_buckets@SystemDictionary@@SAXPAPADPAD@Z 0802d6a0 f   systemDictionary.obj
 0001:0002c6c0       ?copy_table@SystemDictionary@@SAXPAPADPAD@Z 0802d6c0 f   systemDictionary.obj
 0001:0002c6e0       ?reverse@SystemDictionary@@SAXXZ 0802d6e0 f   systemDictionary.obj
 0001:0002c6f0       ?number_of_classes@SystemDictionary@@SAHXZ 0802d6f0 f   systemDictionary.obj
 0001:0002c700       ?verify@SystemDictionary@@SAXXZ 0802d700 f   systemDictionary.obj
 0001:0002c800       ??0JavaCallArguments@@QAE@VHandle@@@Z 0802d800 f i systemDictionary.obj
 0001:0002c840       ?compute_hash@SymbolPropertyTable@@QAEIVsymbolHandle@@H@Z 0802d840 f i systemDictionary.obj
 0001:0002c890       ?compute_java_system_loader@SystemDictionary@@SAXPAVThread@@@Z 0802d890 f   systemDictionary.obj
 0001:0002c8f0       ?validate_protection_domain@SystemDictionary@@CAXVinstanceKlassHandle@@VHandle@@1PAVThread@@@Z 0802d8f0 f   systemDictionary.obj
 0001:0002c9e0       ?find@SystemDictionary@@SAPAVklassOopDesc@@VsymbolHandle@@VHandle@@1PAVThread@@@Z 0802d9e0 f   systemDictionary.obj
 0001:0002ca40       ?find_instance_or_array_klass@SystemDictionary@@SAPAVklassOopDesc@@VsymbolHandle@@VHandle@@1PAVThread@@@Z 0802da40 f   systemDictionary.obj
 0001:0002cb30       ?find_shared_class@SystemDictionary@@CAPAVklassOopDesc@@VsymbolHandle@@@Z 0802db30 f   systemDictionary.obj
 0001:0002cb80       ?find_class_or_placeholder@SystemDictionary@@CAPAVoopDesc@@VsymbolHandle@@VHandle@@@Z 0802db80 f   systemDictionary.obj
 0001:0002cc20       ?always_strong_classes_do@SystemDictionary@@SAXPAVOopClosure@@@Z 0802dc20 f   systemDictionary.obj
 0001:0002cc70       ?preloaded_oops_do@SystemDictionary@@CAXPAVOopClosure@@@Z 0802dc70 f   systemDictionary.obj
 0001:0002cd00       ?check_constraints@SystemDictionary@@CAXHIVinstanceKlassHandle@@VHandle@@_NPAVThread@@@Z 0802dd00 f   systemDictionary.obj
 0001:0002cea0       ?update_dictionary@SystemDictionary@@CAXHIHIVinstanceKlassHandle@@VHandle@@PAVThread@@@Z 0802dea0 f   systemDictionary.obj
 0001:0002cf80       ?find_constrained_instance_or_array_klass@SystemDictionary@@SAPAVklassOopDesc@@VsymbolHandle@@VHandle@@PAVThread@@@Z 0802df80 f   systemDictionary.obj
 0001:0002d090       ?add_loader_constraint@SystemDictionary@@SA_NVsymbolHandle@@VHandle@@1PAVThread@@@Z 0802e090 f   systemDictionary.obj
 0001:0002d1b0       ?add_resolution_error@SystemDictionary@@SAXVconstantPoolHandle@@HVsymbolHandle@@@Z 0802e1b0 f   systemDictionary.obj
 0001:0002d240       ?find_resolution_error@SystemDictionary@@SAPAVsymbolOopDesc@@VconstantPoolHandle@@H@Z 0802e240 f   systemDictionary.obj
 0001:0002d2f0       ?check_signature_loaders@SystemDictionary@@SAPADVsymbolHandle@@VHandle@@1_NPAVThread@@@Z 0802e2f0 f   systemDictionary.obj
 0001:0002d3d0       ?verify_obj_klass_present@SystemDictionary@@SAXVHandle@@VsymbolHandle@@0@Z 0802e3d0 f   systemDictionary.obj
 0001:0002d490       ?handle_resolution_exception@SystemDictionary@@CAPAVklassOopDesc@@VsymbolHandle@@VHandle@@1_NVKlassHandle@@PAVThread@@@Z 0802e490 f   systemDictionary.obj
 0001:0002d610       ?resolve_super_or_fail@SystemDictionary@@SAPAVklassOopDesc@@VsymbolHandle@@0VHandle@@1_NPAVThread@@@Z 0802e610 f   systemDictionary.obj
 0001:0002d860       ?handle_parallel_super_load@SystemDictionary@@CA?AVinstanceKlassHandle@@VsymbolHandle@@0VHandle@@11PAVThread@@@Z 0802e860 f   systemDictionary.obj
 0001:0002da40       ?define_instance_class@SystemDictionary@@CAXVinstanceKlassHandle@@PAVThread@@@Z 0802ea40 f   systemDictionary.obj
 0001:0002dc50       ?find_or_define_instance_class@SystemDictionary@@CA?AVinstanceKlassHandle@@VsymbolHandle@@VHandle@@V2@PAVThread@@@Z 0802ec50 f   systemDictionary.obj
 0001:0002df30       ?always_strong_oops_do@SystemDictionary@@SAXPAVOopClosure@@@Z 0802ef30 f   systemDictionary.obj
 0001:0002df90       ?oops_do@SystemDictionary@@SAXPAVOopClosure@@@Z 0802ef90 f   systemDictionary.obj
 0001:0002e000       ?make_dynamic_call_site@SystemDictionary@@SA?AVHandle@@V2@VsymbolHandle@@VmethodHandle@@02HPAVThread@@@Z 0802f000 f   systemDictionary.obj
 0001:0002e220       ?resolve_from_stream@SystemDictionary@@SAPAVklassOopDesc@@VsymbolHandle@@VHandle@@1PAVClassFileStream@@_NPAVThread@@@Z 0802f220 f   systemDictionary.obj
 0001:0002e4d0       ?invoke_dynamic_argument_count_at@constantPoolOopDesc@@QAEHH@Z 0802f4d0 f i systemDictionary.obj
 0001:0002e510       ?invoke_dynamic_argument_index_at@constantPoolOopDesc@@QAEHHH@Z 0802f510 f i systemDictionary.obj
 0001:0002e550       ?set_host_klass@instanceKlass@@QAEXPAVoopDesc@@@Z 0802f550 f i systemDictionary.obj
 0001:0002e5b0       ?parse_stream@SystemDictionary@@SAPAVklassOopDesc@@VsymbolHandle@@VHandle@@1PAVClassFileStream@@VKlassHandle@@PAV?$GrowableArray@VHandle@@@@PAVThread@@@Z 0802f5b0 f   systemDictionary.obj
 0001:0002e6f0       ?load_shared_class@SystemDictionary@@CA?AVinstanceKlassHandle@@V2@VHandle@@PAVThread@@@Z 0802f6f0 f   systemDictionary.obj
 0001:0002e990       ?find_method_handle_type@SystemDictionary@@SA?AVHandle@@VsymbolHandle@@VKlassHandle@@_NAA_NPAVThread@@@Z 0802f990 f   systemDictionary.obj
 0001:0002ed50       ?link_method_handle_constant@SystemDictionary@@SA?AVHandle@@VKlassHandle@@H0VsymbolHandle@@1PAVThread@@@Z 0802fd50 f   systemDictionary.obj
 0001:0002efe0       ?find_bootstrap_method@SystemDictionary@@SA?AVHandle@@VmethodHandle@@HHAAV2@PAVThread@@@Z 0802ffe0 f   systemDictionary.obj
 0001:0002f210       ?load_shared_class@SystemDictionary@@CA?AVinstanceKlassHandle@@VsymbolHandle@@VHandle@@PAVThread@@@Z 08030210 f   systemDictionary.obj
 0001:0002f280       ?load_instance_class@SystemDictionary@@CA?AVinstanceKlassHandle@@VsymbolHandle@@VHandle@@PAVThread@@@Z 08030280 f   systemDictionary.obj
 0001:0002f5a0       ?find_method_handle_invoke@SystemDictionary@@SAPAVmethodOopDesc@@VsymbolHandle@@0VKlassHandle@@PAVThread@@@Z 080305a0 f   systemDictionary.obj
 0001:0002f720       ?resolve_instance_class_or_null@SystemDictionary@@CAPAVklassOopDesc@@VsymbolHandle@@VHandle@@1PAVThread@@@Z 08030720 f   systemDictionary.obj
 0001:0002fe50       ?resolve_array_class_or_null@SystemDictionary@@CAPAVklassOopDesc@@VsymbolHandle@@VHandle@@1PAVThread@@@Z 08030e50 f   systemDictionary.obj
 0001:0002fee0       ?resolve_or_null@SystemDictionary@@SAPAVklassOopDesc@@VsymbolHandle@@VHandle@@1PAVThread@@@Z 08030ee0 f   systemDictionary.obj
 0001:0002ff40       ?resolve_or_null@SystemDictionary@@SAPAVklassOopDesc@@VsymbolHandle@@PAVThread@@@Z 08030f40 f   systemDictionary.obj
 0001:0002ff60       ?resolve_or_fail@SystemDictionary@@SAPAVklassOopDesc@@VsymbolHandle@@VHandle@@1_NPAVThread@@@Z 08030f60 f   systemDictionary.obj
 0001:0002ffb0       ?resolve_or_fail@SystemDictionary@@SAPAVklassOopDesc@@VsymbolHandle@@_NPAVThread@@@Z 08030fb0 f   systemDictionary.obj
 0001:00030000       ?load_abstract_ownable_synchronizer_klass@SystemDictionary@@SAXPAVThread@@@Z 08031000 f   systemDictionary.obj
 0001:00030040       ?initialize_wk_klass@SystemDictionary@@SA_NW4WKID@1@HPAVThread@@@Z 08031040 f   systemDictionary.obj
 0001:000300e0       ?initialize_wk_klasses_until@SystemDictionary@@SAXW4WKID@1@AAW421@PAVThread@@@Z 080310e0 f   systemDictionary.obj
 0001:00030170       ?initialize_wk_klasses_through@SystemDictionary@@SAXW4WKID@1@AAW421@PAVThread@@@Z 08031170 f i systemDictionary.obj
 0001:00030190       ?initialize_preloaded_classes@SystemDictionary@@CAXPAVThread@@@Z 08031190 f   systemDictionary.obj
 0001:000303d0       ?initialize@SystemDictionary@@SAXPAVThread@@@Z 080313d0 f   systemDictionary.obj
 0001:000304c0       ?from_tag@VerificationType@@SA?AV1@E@Z 080314c0 f   verificationType.obj
 0001:00030540       ?is_object@VerificationType@@QBE_NXZ 08031540 f i verificationType.obj
 0001:00030570       ?is_array@VerificationType@@QBE_NXZ 08031570 f i verificationType.obj
 0001:000305a0       ?get_component@VerificationType@@QBE?AV1@PAVThread@@@Z 080315a0 f   verificationType.obj
 0001:00030710       ?is_reference_assignable_from@VerificationType@@ABE_NABV1@VinstanceKlassHandle@@PAVThread@@@Z 08031710 f   verificationType.obj
 0001:00030900       ??9VerificationType@@QBE_NABV0@@Z 08031900 f i verifier.obj
 0001:00030950       ?should_verify_for@Verifier@@SA_NPAVoopDesc@@_N@Z 08031950 f   verifier.obj
 0001:00030970       ?relax_verify_for@Verifier@@SA_NPAVoopDesc@@@Z 08031970 f   verifier.obj
 0001:000309c0       ??8Handle@@QBE_NABV0@@Z    080319c0 f i verifier.obj
 0001:000309f0       ??0ArgumentSizeComputer@@QAE@VsymbolHandle@@@Z 080319f0 f i verifier.obj
 0001:00030a20       ?set@ArgumentSizeComputer@@EAEXHW4BasicType@@@Z 08031a20 f i verifier.obj
 0001:00030a40       ?size@ArgumentSizeComputer@@QAEHXZ 08031a40 f i verifier.obj
 0001:00030a60       ??0VerificationType@@QAE@XZ 08031a60 f i verifier.obj
 0001:00030a70       ?dimensions@VerificationType@@QBEHXZ 08031a70 f i verifier.obj
 0001:00030a90       ?was_recursively_verified@ClassVerifier@@AAE_NXZ 08031a90 f i verifier.obj
 0001:00030ab0       ?pop_stack@StackMapFrame@@QAE?AVVerificationType@@V2@PAVThread@@@Z 08031ab0 f i verifier.obj
 0001:00030b30       ?pop_stack_2@StackMapFrame@@QAEXVVerificationType@@0PAVThread@@@Z 08031b30 f i verifier.obj
 0001:00030be0       ?bytecode@BaseBytecodeStream@@QBE?AVBytecode@@XZ 08031be0 f i verifier.obj
 0001:00030c30       ??0RawBytecodeStream@@QAE@VmethodHandle@@@Z 08031c30 f i verifier.obj
 0001:00030c60       ?raw_next@RawBytecodeStream@@QAE?AW4Code@Bytecodes@@XZ 08031c60 f i verifier.obj
 0001:00030ca0       ?is_eligible_for_verification@Verifier@@CA_NVinstanceKlassHandle@@_N@Z 08031ca0 f   verifier.obj
 0001:00030d50       ?load_class@ClassVerifier@@QAEPAVklassOopDesc@@VsymbolHandle@@PAVThread@@@Z 08031d50 f   verifier.obj
 0001:00030dc0       ?name_in_supers@ClassVerifier@@AAE_NPAVsymbolOopDesc@@VinstanceKlassHandle@@@Z 08031dc0 f   verifier.obj
 0001:00030df0       ?verify_istore@ClassVerifier@@AAEXGPAVStackMapFrame@@PAVThread@@@Z 08031df0 f   verifier.obj
 0001:00030e40       ?verify_lstore@ClassVerifier@@AAEXGPAVStackMapFrame@@PAVThread@@@Z 08031e40 f   verifier.obj
 0001:00030e90       ?verify_fstore@ClassVerifier@@AAEXGPAVStackMapFrame@@PAVThread@@@Z 08031e90 f   verifier.obj
 0001:00030ee0       ?verify_dstore@ClassVerifier@@AAEXGPAVStackMapFrame@@PAVThread@@@Z 08031ee0 f   verifier.obj
 0001:00030f30       ?verify_astore@ClassVerifier@@AAEXGPAVStackMapFrame@@PAVThread@@@Z 08031f30 f   verifier.obj
 0001:00030f80       ?verify_iinc@ClassVerifier@@AAEXGPAVStackMapFrame@@PAVThread@@@Z 08031f80 f   verifier.obj
 0001:00030fd0       ??0HandleMark@@QAE@XZ      08031fd0 f i verifier.obj
 0001:00030ff0       ?is_int_array@VerificationType@@QBE_NXZ 08031ff0 f i verifier.obj
 0001:00031020       ?is_byte_array@VerificationType@@QBE_NXZ 08032020 f i verifier.obj
 0001:00031050       ?is_bool_array@VerificationType@@QBE_NXZ 08032050 f i verifier.obj
 0001:00031080       ?is_char_array@VerificationType@@QBE_NXZ 08032080 f i verifier.obj
 0001:000310b0       ?is_short_array@VerificationType@@QBE_NXZ 080320b0 f i verifier.obj
 0001:000310e0       ?is_long_array@VerificationType@@QBE_NXZ 080320e0 f i verifier.obj
 0001:00031110       ?is_float_array@VerificationType@@QBE_NXZ 08032110 f i verifier.obj
 0001:00031140       ?is_double_array@VerificationType@@QBE_NXZ 08032140 f i verifier.obj
 0001:00031170       ?is_reference_array@VerificationType@@QBE_NXZ 08032170 f i verifier.obj
 0001:000311c0       ?cp_index_to_type@ClassVerifier@@QAE?AVVerificationType@@HVconstantPoolHandle@@PAVThread@@@Z 080321c0 f i verifier.obj
 0001:000311f0       ?dest@BaseBytecodeStream@@QBEHXZ 080321f0 f i verifier.obj
 0001:00031240       ?dest_w@BaseBytecodeStream@@QBEHXZ 08032240 f i verifier.obj
 0001:00031280       ?format_error_message@ClassVerifier@@QAEXPBDHPAD@Z 08032280 f   verifier.obj
 0001:00031330       ?is_protected_access@ClassVerifier@@AAE_NVinstanceKlassHandle@@PAVklassOopDesc@@PAVsymbolOopDesc@@2_N@Z 08032330 f   verifier.obj
 0001:00031400       ?cp_ref_index_to_type@ClassVerifier@@AAE?AVVerificationType@@HVconstantPoolHandle@@PAVThread@@@Z 08032400 f i verifier.obj
 0001:00031440       ?get_index@RawBytecodeStream@@QBEHXZ 08032440 f i verifier.obj
 0001:00031480       ?get_index_u2@RawBytecodeStream@@QBEHXZ 08032480 f i verifier.obj
 0001:000314b0       ?inference_verify@Verifier@@CA?AVsymbolHandle@@VinstanceKlassHandle@@PADIPAVThread@@@Z 080324b0 f   verifier.obj
 0001:00031730       ??0ClassVerifier@@QAE@VinstanceKlassHandle@@PADIPAVThread@@@Z 08032730 f   verifier.obj
 0001:00031780       ?object_type@ClassVerifier@@ABE?AVVerificationType@@XZ 08032780 f   verifier.obj
 0001:000317a0       ?verify_error@ClassVerifier@@QAAXGPBDZZ 080327a0 f   verifier.obj
 0001:000317e0       ?verify_error@ClassVerifier@@QAAXPBDZZ 080327e0 f   verifier.obj
 0001:00031810       ?class_format_error@ClassVerifier@@QAAXPBDZZ 08032810 f   verifier.obj
 0001:00031840       ?verify_switch@ClassVerifier@@AAEXPAVRawBytecodeStream@@IPADPAVStackMapFrame@@PAVStackMapTable@@PAVThread@@@Z 08032840 f   verifier.obj
 0001:00031a60       ?get_newarray_type@ClassVerifier@@AAE?AVVerificationType@@GGPAVThread@@@Z 08032a60 f   verifier.obj
 0001:00031b20       ?verify_return_value@ClassVerifier@@AAEXVVerificationType@@0GPAVThread@@@Z 08032b20 f   verifier.obj
 0001:00031b90       ?push_stack@StackMapFrame@@QAEXVVerificationType@@PAVThread@@@Z 08032b90 f i verifier.obj
 0001:00031bd0       ?push_stack_2@StackMapFrame@@QAEXVVerificationType@@0PAVThread@@@Z 08032bd0 f i verifier.obj
 0001:00031c20       ?pop_stack@StackMapFrame@@QAE?AVVerificationType@@PAVThread@@@Z 08032c20 f i verifier.obj
 0001:00031c70       ??0StackMapReader@@QAE@PAVClassVerifier@@PAVStackMapStream@@PADHPAVThread@@@Z 08032c70 f i verifier.obj
 0001:00031ce0       ?generate_code_data@ClassVerifier@@AAEPADVmethodHandle@@IPAVThread@@@Z 08032ce0 f   verifier.obj
 0001:00031dc0       ?verify_exception_handler_table@ClassVerifier@@AAEXIPADAAH1PAVThread@@@Z 08032dc0 f   verifier.obj
 0001:00031fb0       ?verify_local_variable_table@ClassVerifier@@AAEXIPADPAVThread@@@Z 08032fb0 f   verifier.obj
 0001:00032080       ?verify_stackmap_table@ClassVerifier@@AAEGGGPAVStackMapFrame@@PAVStackMapTable@@_NPAVThread@@@Z 08033080 f   verifier.obj
 0001:00032180       ?verify_exception_handler_targets@ClassVerifier@@AAEXG_NPAVStackMapFrame@@PAVStackMapTable@@PAVThread@@@Z 08033180 f   verifier.obj
 0001:000323b0       ?verify_cp_type@ClassVerifier@@AAEXHVconstantPoolHandle@@IPAVThread@@@Z 080333b0 f   verifier.obj
 0001:00032460       ?verify_cp_class_type@ClassVerifier@@AAEXHVconstantPoolHandle@@PAVThread@@@Z 08033460 f   verifier.obj
 0001:000324f0       ?verify_ldc@ClassVerifier@@AAEXHGPAVStackMapFrame@@VconstantPoolHandle@@GPAVThread@@@Z 080334f0 f   verifier.obj
 0001:000327b0       ?verify_field_instructions@ClassVerifier@@AAEXPAVRawBytecodeStream@@PAVStackMapFrame@@VconstantPoolHandle@@PAVThread@@@Z 080337b0 f   verifier.obj
 0001:00032c80       ?verify_invoke_init@ClassVerifier@@AAEXPAVRawBytecodeStream@@VVerificationType@@PAVStackMapFrame@@IPA_NVconstantPoolHandle@@PAVThread@@@Z 08033c80 f   verifier.obj
 0001:00032f30       ?verify_invoke_instructions@ClassVerifier@@AAEXPAVRawBytecodeStream@@IPAVStackMapFrame@@PA_NVVerificationType@@VconstantPoolHandle@@PAVThread@@@Z 08033f30 f   verifier.obj
 0001:00033590       ?verify_anewarray@ClassVerifier@@AAEXGVconstantPoolHandle@@PAVStackMapFrame@@PAVThread@@@Z 08034590 f   verifier.obj
 0001:00033700       ?verify_iload@ClassVerifier@@AAEXGPAVStackMapFrame@@PAVThread@@@Z 08034700 f   verifier.obj
 0001:00033770       ?verify_lload@ClassVerifier@@AAEXGPAVStackMapFrame@@PAVThread@@@Z 08034770 f   verifier.obj
 0001:000337c0       ?verify_fload@ClassVerifier@@AAEXGPAVStackMapFrame@@PAVThread@@@Z 080347c0 f   verifier.obj
 0001:00033830       ?verify_dload@ClassVerifier@@AAEXGPAVStackMapFrame@@PAVThread@@@Z 08034830 f   verifier.obj
 0001:00033880       ?verify_aload@ClassVerifier@@AAEXGPAVStackMapFrame@@PAVThread@@@Z 08034880 f   verifier.obj
 0001:000338f0       ?verify_method@ClassVerifier@@AAEXVmethodHandle@@PAVThread@@@Z 080348f0 f   verifier.obj
 0001:00035e40       ?verify_class@ClassVerifier@@QAEXPAVThread@@@Z 08036e40 f   verifier.obj
 0001:00035f70       ?verify@Verifier@@SA_NVinstanceKlassHandle@@W4Mode@1@_NPAVThread@@@Z 08036f70 f   verifier.obj
 0001:00036250       ?oops_do@vmSymbols@@SAXPAVOopClosure@@_N@Z 08037250 f   vmSymbols.obj
 0001:000362b0       ?signature_type@vmSymbols@@SA?AW4BasicType@@PAVsymbolOopDesc@@@Z 080372b0 f   vmSymbols.obj
 0001:000363c0       ?for_boxing@vmIntrinsics@@SA?AW4ID@1@W4BasicType@@@Z 080373c0 f   vmSymbols.obj
 0001:000363d0       ?for_unboxing@vmIntrinsics@@SA?AW4ID@1@W4BasicType@@@Z 080373d0 f   vmSymbols.obj
 0001:000363e0       ?for_raw_conversion@vmIntrinsics@@SA?AW4ID@1@W4BasicType@@0@Z 080373e0 f   vmSymbols.obj
 0001:00036490       ?name_at@vmIntrinsics@@SAPBDW4ID@1@@Z 08037490 f   vmSymbols.obj
 0001:00036500       ?find_id_impl@vmIntrinsics@@CA?AW4ID@1@W4SID@vmSymbols@@00F@Z 08037500 f   vmSymbols.obj
 0001:00037b90       ?new_symbol@oopFactory@@SAPAVsymbolOopDesc@@PBDPAVThread@@@Z 08038b90 f i vmSymbols.obj
 0001:00037bf0       ?initialize@vmSymbols@@SAXPAVThread@@@Z 08038bf0 f   vmSymbols.obj
 0001:00037d00       ?find_sid@vmSymbols@@SA?AW4SID@1@PAVsymbolOopDesc@@@Z 08038d00 f   vmSymbols.obj
 0001:00037db0       ?method_for@vmIntrinsics@@SAPAVmethodOopDesc@@W4ID@1@@Z 08038db0 f   vmSymbols.obj
 0001:00037e50       ?verify@CodeBlob@@UAEXXZ   08038e50 f   codeBlob.obj
 0001:00037e70       ?print_on@CodeBlob@@UBEXPAVoutputStream@@@Z 08038e70 f   codeBlob.obj
 0001:00037ea0       ?print_value_on@CodeBlob@@UBEXPAVoutputStream@@@Z 08038ea0 f   codeBlob.obj
 0001:00037ec0       ?print_on@BufferBlob@@UBEXPAVoutputStream@@@Z 08038ec0 f   codeBlob.obj
 0001:00037f00       ?print_value_on@DeoptimizationBlob@@UBEXPAVoutputStream@@@Z 08038f00 f   codeBlob.obj
 0001:00037f20       ?set_oop_maps@CodeBlob@@QAEXPAVOopMapSet@@@Z 08038f20 f   codeBlob.obj
 0001:00037f90       ?flush@CodeBlob@@QAEXXZ    08038f90 f   codeBlob.obj
 0001:00037fb0       ?oop_map_for_return_address@CodeBlob@@QAEPAVOopMap@@PAE@Z 08038fb0 f   codeBlob.obj
 0001:00037fd0       ?print_value_on@BufferBlob@@UBEXPAVoutputStream@@@Z 08038fd0 f   codeBlob.obj
 0001:00037ff0       ?print_on@RuntimeStub@@UBEXPAVoutputStream@@@Z 08038ff0 f   codeBlob.obj
 0001:00038040       ?print_value_on@RuntimeStub@@UBEXPAVoutputStream@@@Z 08039040 f   codeBlob.obj
 0001:00038070       ?print_on@SingletonBlob@@UBEXPAVoutputStream@@@Z 08039070 f   codeBlob.obj
 0001:000380b0       ?print_value_on@SingletonBlob@@UBEXPAVoutputStream@@@Z 080390b0 f   codeBlob.obj
 0001:000380d0       ?allocation_size@CodeBlob@@SAIPAVCodeBuffer@@H@Z 080390d0 f   codeBlob.obj
 0001:00038140       ?preserve_callee_argument_oops@CodeBlob@@UAEXVframe@@PBVRegisterMap@@PAVOopClosure@@@Z 08039140 f i codeBlob.obj
 0001:00038160       ??0CodeBlob@@QAE@PBDPAVCodeBuffer@@HHHHPAVOopMapSet@@@Z 08039160 f   codeBlob.obj
 0001:00038210       ??0BufferBlob@@AAE@PBDH@Z  08039210 f   codeBlob.obj
 0001:00038280       ?create@BufferBlob@@SAPAV1@PBDH@Z 08039280 f   codeBlob.obj
 0001:00038340       ?free@BufferBlob@@SAXPAV1@@Z 08039340 f   codeBlob.obj
 0001:000383d0       ?create@AdapterBlob@@SAPAV1@PAVCodeBuffer@@@Z 080393d0 f   codeBlob.obj
 0001:000384b0       ?caller_must_gc_arguments@RuntimeStub@@UBE_NPAVJavaThread@@@Z 080394b0 f i codeBlob.obj
 0001:000384c0       ?new_runtime_stub@RuntimeStub@@SAPAV1@PBDPAVCodeBuffer@@HHPAVOopMapSet@@_N@Z 080394c0 f   codeBlob.obj
 0001:00038650       ?create@MethodHandlesAdapterBlob@@SAPAV1@H@Z 08039650 f   codeBlob.obj
 0001:00038720       ?create@DeoptimizationBlob@@SAPAV1@PAVCodeBuffer@@PAVOopMapSet@@HHHH@Z 08039720 f   codeBlob.obj
 0001:000388c0       ?create@UncommonTrapBlob@@SAPAV1@PAVCodeBuffer@@PAVOopMapSet@@H@Z 080398c0 f   codeBlob.obj
 0001:00038a50       ?create@ExceptionBlob@@SAPAV1@PAVCodeBuffer@@PAVOopMapSet@@H@Z 08039a50 f   codeBlob.obj
 0001:00038be0       ?preserve_callee_argument_oops@UncommonTrapBlob@@UAEXVframe@@PBVRegisterMap@@PAVOopClosure@@@Z 08039be0 f i codeBlob.obj
 0001:00038be0       ?preserve_callee_argument_oops@ExceptionBlob@@UAEXVframe@@PBVRegisterMap@@PAVOopClosure@@@Z 08039be0 f i codeBlob.obj
 0001:00038be0       ?preserve_callee_argument_oops@SafepointBlob@@UAEXVframe@@PBVRegisterMap@@PAVOopClosure@@@Z 08039be0 f i codeBlob.obj
 0001:00038be0       ?preserve_callee_argument_oops@DeoptimizationBlob@@UAEXVframe@@PBVRegisterMap@@PAVOopClosure@@@Z 08039be0 f i codeBlob.obj
 0001:00038be0       ?preserve_callee_argument_oops@BufferBlob@@UAEXVframe@@PBVRegisterMap@@PAVOopClosure@@@Z 08039be0 f i codeBlob.obj
 0001:00038be0       ?preserve_callee_argument_oops@RuntimeStub@@UAEXVframe@@PBVRegisterMap@@PAVOopClosure@@@Z 08039be0 f i codeBlob.obj
 0001:00038bf0       ?create@SafepointBlob@@SAPAV1@PAVCodeBuffer@@PAVOopMapSet@@H@Z 08039bf0 f   codeBlob.obj
 0001:00038d80       ?number_of_nmethods_with_dependencies@CodeCache@@SAHXZ 08039d80 f   codeCache.obj
 0001:00038d90       ?find_blob_unsafe@CodeCache@@SAPAVCodeBlob@@PAX@Z 08039d90 f i codeCache.obj
 0001:00038dc0       ?first@CodeCache@@SAPAVCodeBlob@@XZ 08039dc0 f   codeCache.obj
 0001:00038de0       ?next@CodeCache@@SAPAVCodeBlob@@PAV2@@Z 08039de0 f   codeCache.obj
 0001:00038e10       ?alive@CodeCache@@SAPAVCodeBlob@@PAV2@@Z 08039e10 f   codeCache.obj
 0001:00038e60       ?alive_nmethod@CodeCache@@SAPAVnmethod@@PAVCodeBlob@@@Z 08039e60 f   codeCache.obj
 0001:00038eb0       ?first_nmethod@CodeCache@@SAPAVnmethod@@XZ 08039eb0 f   codeCache.obj
 0001:00038f10       ?next_nmethod@CodeCache@@SAPAVnmethod@@PAVCodeBlob@@@Z 08039f10 f   codeCache.obj
 0001:00038f80       ?free@CodeCache@@SAXPAVCodeBlob@@@Z 08039f80 f   codeCache.obj
 0001:00038fe0       ?commit@CodeCache@@SAXPAVCodeBlob@@@Z 08039fe0 f   codeCache.obj
 0001:00039040       ?contains@CodeCache@@SA_NPAX@Z 0803a040 f   codeCache.obj
 0001:00039070       ?find_blob@CodeCache@@SAPAVCodeBlob@@PAX@Z 0803a070 f   codeCache.obj
 0001:000390e0       ?find_nmethod@CodeCache@@SAPAVnmethod@@PAX@Z 0803a0e0 f   codeCache.obj
 0001:000390f0       ?blobs_do@CodeCache@@SAXP6AXPAVCodeBlob@@@Z@Z 0803a0f0 f   codeCache.obj
 0001:00039150       ?do_unloading@CodeCache@@SAXPAVBoolObjectClosure@@PAVOopClosure@@_N@Z 0803a150 f   codeCache.obj
 0001:000391d0       ?blobs_do@CodeCache@@SAXPAVCodeBlobClosure@@@Z 0803a1d0 f   codeCache.obj
 0001:00039240       ?scavenge_root_nmethods_do@CodeCache@@SAXPAVCodeBlobClosure@@@Z 0803a240 f   codeCache.obj
 0001:00039290       ?add_scavenge_root_nmethod@CodeCache@@SAXPAVnmethod@@@Z 0803a290 f   codeCache.obj
 0001:000392b0       ?drop_scavenge_root_nmethod@CodeCache@@SAXPAVnmethod@@@Z 0803a2b0 f   codeCache.obj
 0001:00039310       ?prune_scavenge_root_nmethods@CodeCache@@SAXXZ 0803a310 f   codeCache.obj
 0001:00039370       ?remove_saved_code@CodeCache@@SAXPAVnmethod@@@Z 0803a370 f   codeCache.obj
 0001:00039420       ?gc_epilogue@CodeCache@@SAXXZ 0803a420 f   codeCache.obj
 0001:000394b0       ?first_address@CodeCache@@SAPAEXZ 0803a4b0 f   codeCache.obj
 0001:000394c0       ?initialize@CodeCache@@SAXXZ 0803a4c0 f   codeCache.obj
 0001:00039560       ?codeCache_init@@YAXXZ     0803a560 f   codeCache.obj
 0001:00039570       ?mark_all_nmethods_for_deoptimization@CodeCache@@SAXXZ 0803a570 f   codeCache.obj
 0001:00039600       ?make_marked_nmethods_zombies@CodeCache@@SAXXZ 0803a600 f   codeCache.obj
 0001:00039690       ?make_marked_nmethods_not_entrant@CodeCache@@SAXXZ 0803a690 f   codeCache.obj
 0001:00039700       ?verify@CodeCache@@SAXXZ   0803a700 f   codeCache.obj
 0001:00039770       ?print_bounds@CodeCache@@SAXPAVoutputStream@@@Z 0803a770 f   codeCache.obj
 0001:00039800       ?allocate@CodeCache@@SAPAVCodeBlob@@H@Z 0803a800 f   codeCache.obj
 0001:00039870       ?mark_for_deoptimization@CodeCache@@SAHAAVDepChange@@@Z 0803a870 f   codeCache.obj
 0001:00039900       ?mark_for_deoptimization@CodeCache@@SAHPAVmethodOopDesc@@@Z 0803a900 f   codeCache.obj
 0001:00039a00       ?find_and_remove_saved_code@CodeCache@@SAPAVnmethod@@PAVmethodOopDesc@@@Z 0803aa00 f   codeCache.obj
 0001:00039b00       ?speculatively_disconnect@CodeCache@@SAXPAVnmethod@@@Z 0803ab00 f   codeCache.obj
 0001:00039ba0       ?mark_for_evol_deoptimization@CodeCache@@SAHVinstanceKlassHandle@@@Z 0803aba0 f   codeCache.obj
 0001:00039d40       ?is_in_transition_state@CompiledIC@@ABE_NXZ 0803ad40 f   compiledIC.obj
 0001:00039d60       ?stub_address@CompiledIC@@ABEPAEXZ 0803ad60 f   compiledIC.obj
 0001:00039d70       ?gc_prologue@Generation@@UAEX_N@Z 0803ad70 f i compactingPermGenGen.obj
 0001:00039d70       ?do_NewTypeArray@ValueNumberingVisitor@@MAEXPAVNewTypeArray@@@Z 0803ad70 f i c1_GraphBuilder.obj
 0001:00039d70       ?input_values_do@OsrEntry@@UAEXPAVValueVisitor@@@Z 0803ad70 f i c1_GraphBuilder.obj
 0001:00039d70       ?do_CheckCast@NullCheckVisitor@@UAEXPAVCheckCast@@@Z 0803ad70 f i c1_Optimizer.obj
 0001:00039d70       ?remember_mdo@OopClosure@@UAEXPAVDataLayout@@@Z 0803ad70 f i nmethod.obj
 0001:00039d70       ?verify@ConstantPoolCacheEntry@@QBEXPAVoutputStream@@@Z 0803ad70 f i cpCacheOop.obj
 0001:00039d70       ?do_Constant@ValueNumberingVisitor@@MAEXPAVConstant@@@Z 0803ad70 f i c1_GraphBuilder.obj
 0001:00039d70       ?do_Return@NullCheckVisitor@@UAEXPAVReturn@@@Z 0803ad70 f i c1_Optimizer.obj
 0001:00039d70       ?do_LogicOp@ValueNumberingVisitor@@MAEXPAVLogicOp@@@Z 0803ad70 f i c1_GraphBuilder.obj
 0001:00039d70       ?do_Goto@NullCheckVisitor@@UAEXPAVGoto@@@Z 0803ad70 f i c1_Optimizer.obj
 0001:00039d70       ?do_MonitorExit@Canonicalizer@@UAEXPAVMonitorExit@@@Z 0803ad70 f i c1_Canonicalizer.obj
 0001:00039d70       ?set_for_termination@AbstractGangTask@@UAEXH@Z 0803ad70 f i concurrentMarkSweepGeneration.obj
 0001:00039d70       ?init_start@Compile@@QAEXPAVStartNode@@@Z 0803ad70 f i compile.obj
 0001:00039d70       ?do_IfInstanceOf@ValueNumberingVisitor@@MAEXPAVIfInstanceOf@@@Z 0803ad70 f i c1_GraphBuilder.obj
 0001:00039d70       ?do_NegateOp@ValueNumberingVisitor@@MAEXPAVNegateOp@@@Z 0803ad70 f i c1_GraphBuilder.obj
 0001:00039d70       ?do_oop@AssertIsPermClosure@@UAEXPAPAVoopDesc@@@Z 0803ad70 f i genCollectedHeap.obj
 0001:00039d70       ?do_ExceptionObject@Canonicalizer@@UAEXPAVExceptionObject@@@Z 0803ad70 f i c1_Canonicalizer.obj
 0001:00039d70       ?print_instr@LIR_OpRTCall@@UBEXPAVoutputStream@@@Z 0803ad70 f i c1_LIRGenerator_x86.obj
 0001:00039d70       ?do_MonitorEnter@Canonicalizer@@UAEXPAVMonitorEnter@@@Z 0803ad70 f i c1_Canonicalizer.obj
 0001:00039d70       ?fill_init_vars@OopMapForCacheEntry@@EAEXPAV?$GrowableArray@H@@@Z 0803ad70 f i oopMapCache.obj
 0001:00039d70       ?disable_compilation@SimpleThresholdPolicy@@UAEXPAVmethodOopDesc@@@Z 0803ad70 f i compilationPolicy.obj
 0001:00039d70       ?do_Goto@Canonicalizer@@UAEXPAVGoto@@@Z 0803ad70 f i c1_Canonicalizer.obj
 0001:00039d70       ?oops_do@unknown_compiledNode@@UAEXPAVOopClosure@@@Z 0803ad70 f i fprofiler.obj
 0001:00039d70       ?print@ICStubInterface@@UAEXPAVStub@@@Z 0803ad70 f i icBuffer.obj
 0001:00039d70       ?input_values_do@UnsafeOp@@UAEXPAVValueVisitor@@@Z 0803ad70 f i c1_GraphBuilder.obj
 0001:00039d70       ?verify_data_on@methodDataOopDesc@@QAEXPAVoutputStream@@@Z 0803ad70 f i methodDataOop.obj
 0001:00039d70       ?do_LoadIndexed@Canonicalizer@@UAEXPAVLoadIndexed@@@Z 0803ad70 f i c1_Canonicalizer.obj
 0001:00039d70       ?visit@PrintValueVisitor@@EAEXPAPAVInstruction@@@Z 0803ad70 f i c1_Canonicalizer.obj
 0001:00039d70       ?do_object@VerifyMarkedObjsClosure@@UAEXPAVoopDesc@@@Z 0803ad70 f i g1CollectedHeap.obj
 0001:00039d70       ?do_TableSwitch@ValueNumberingVisitor@@MAEXPAVTableSwitch@@@Z 0803ad70 f i c1_GraphBuilder.obj
 0001:00039d70       ?pack_data_to@Relocation@@UAEXPAVCodeSection@@@Z 0803ad70 f i compiledIC.obj
 0001:00039d70       ?do_NullCheck@ValueNumberingVisitor@@MAEXPAVNullCheck@@@Z 0803ad70 f i c1_GraphBuilder.obj
 0001:00039d70       ?do_UnsafePrefetchWrite@NullCheckVisitor@@UAEXPAVUnsafePrefetchWrite@@@Z 0803ad70 f i c1_Optimizer.obj
 0001:00039d70       ?initialize@typeArrayKlass@@UAEXPAVThread@@@Z 0803ad70 f i typeArrayKlass.obj
 0001:00039d70       ?follow_weak_refs@ProfileData@@UAEXPAVBoolObjectClosure@@@Z 0803ad70 f i ciMethodData.obj
 0001:00039d70       ?visit@CodeStub@@UAEXPAVLIR_OpVisitState@@@Z 0803ad70 f i c1_CodeStubs_x86.obj
 0001:00039d70       ?do_object@G1IsAliveClosure@@UAEXPAVoopDesc@@@Z 0803ad70 f i g1CollectedHeap.obj
 0001:00039d70       ?do_Invoke@Canonicalizer@@UAEXPAVInvoke@@@Z 0803ad70 f i c1_Canonicalizer.obj
 0001:00039d70       ?do_UnsafePrefetchRead@ValueNumberingVisitor@@MAEXPAVUnsafePrefetchRead@@@Z 0803ad70 f i c1_GraphBuilder.obj
 0001:00039d70       ?oops_do@runtimeStubNode@@UAEXPAVOopClosure@@@Z 0803ad70 f i fprofiler.obj
 0001:00039d70       ?do_NewObjectArray@ValueNumberingVisitor@@MAEXPAVNewObjectArray@@@Z 0803ad70 f i c1_GraphBuilder.obj
 0001:00039d70       ?do_Local@NullCheckVisitor@@UAEXPAVLocal@@@Z 0803ad70 f i c1_Optimizer.obj
 0001:00039d70       ?clear@Space@@UAEX_N@Z     0803ad70 f i space.obj
 0001:00039d70       ?print_instr@LIR_Op1@@UBEXPAVoutputStream@@@Z 0803ad70 f i c1_LinearScan_x86.obj
 0001:00039d70       ?do_Goto@ValueNumberingVisitor@@MAEXPAVGoto@@@Z 0803ad70 f i c1_GraphBuilder.obj
 0001:00039d70       ?do_Phi@ValueNumberingVisitor@@MAEXPAVPhi@@@Z 0803ad70 f i c1_GraphBuilder.obj
 0001:00039d70       ?check_and_handle_earlyret@MacroAssembler@@MAEXPAVRegisterImpl@@@Z 0803ad70 f i assembler_x86.obj
 0001:00039d70       ?eager_initialize@instanceKlass@@QAEXPAVThread@@@Z 0803ad70 f i instanceKlass.obj
 0001:00039d70       ?do_LoadIndexed@ValueNumberingVisitor@@MAEXPAVLoadIndexed@@@Z 0803ad70 f i c1_GraphBuilder.obj
 0001:00039d70       ?do_Return@Canonicalizer@@UAEXPAVReturn@@@Z 0803ad70 f i c1_Canonicalizer.obj
 0001:00039d70       ?print_value_on@LIR_Address@@UBEXPAVoutputStream@@@Z 0803ad70 f i c1_FrameMap_x86.obj
 0001:00039d70       ?do_NegateOp@NullCheckVisitor@@UAEXPAVNegateOp@@@Z 0803ad70 f i c1_Optimizer.obj
 0001:00039d70       ?do_CompareOp@NullCheckVisitor@@UAEXPAVCompareOp@@@Z 0803ad70 f i c1_Optimizer.obj
 0001:00039d70       ?do_ProfileCall@Canonicalizer@@UAEXPAVProfileCall@@@Z 0803ad70 f i c1_Canonicalizer.obj
 0001:00039d70       ?print_instr@LIR_OpArrayCopy@@UBEXPAVoutputStream@@@Z 0803ad70 f i c1_LIR.obj
 0001:00039d70       ?remember_mdo@PushOrMarkClosure@@UAEXPAVDataLayout@@@Z 0803ad70 f i concurrentMarkSweepGeneration.obj
 0001:00039d70       ?other_values_do@Instruction@@UAEXPAVValueVisitor@@@Z 0803ad70 f i c1_Canonicalizer.obj
 0001:00039d70       ?set_alloc_size@instanceKlass@@UAEXI@Z 0803ad70 f i universe.obj
 0001:00039d70       ?gc_epilogue@Generation@@UAEX_N@Z 0803ad70 f i generation.obj
 0001:00039d70       ?do_object@PSIsAliveClosure@@UAEXPAVoopDesc@@@Z 0803ad70 f i psScavenge.obj
 0001:00039d70       ?verify@ICStubInterface@@UAEXPAVStub@@@Z 0803ad70 f i icBuffer.obj
 0001:00039d70       ?do_CompareOp@ValueNumberingVisitor@@MAEXPAVCompareOp@@@Z 0803ad70 f i c1_GraphBuilder.obj
 0001:00039d70       ?do_Local@Canonicalizer@@UAEXPAVLocal@@@Z 0803ad70 f i c1_Canonicalizer.obj
 0001:00039d70       ?do_object@AlwaysAliveClosure@@UAEXPAVoopDesc@@@Z 0803ad70 f i jniHandles.obj
 0001:00039d70       ?do_code_blob@AdjustPointerClosure@PSParallelCompact@@UBEXPAVCodeBlob@@@Z 0803ad70 f i psParallelCompact.obj
 0001:00039d70       ?pop_tag@xmlStream@@MAEXPBD@Z 0803ad70 f i compileLog.obj
 0001:00039d70       ?do_InstanceOf@ValueNumberingVisitor@@MAEXPAVInstanceOf@@@Z 0803ad70 f i c1_GraphBuilder.obj
 0001:00039d70       ?do_RoundFP@ValueNumberingVisitor@@MAEXPAVRoundFP@@@Z 0803ad70 f i c1_GraphBuilder.obj
 0001:00039d70       ?remember_mdo@PushAndMarkClosure@@UAEXPAVDataLayout@@@Z 0803ad70 f i concurrentMarkSweepGeneration.obj
 0001:00039d70       ?do_Convert@ValueNumberingVisitor@@MAEXPAVConvert@@@Z 0803ad70 f i c1_GraphBuilder.obj
 0001:00039d70       ?do_Constant@Canonicalizer@@UAEXPAVConstant@@@Z 0803ad70 f i c1_Canonicalizer.obj
 0001:00039d70       ?print_instr@LIR_OpConvert@@UBEXPAVoutputStream@@@Z 0803ad70 f i c1_LIRGenerator_x86.obj
 0001:00039d70       ?block_comment@AbstractAssembler@@QAEXPBD@Z 0803ad70 f i assembler.obj
 0001:00039d70       ?oops_do@adapterNode@@UAEXPAVOopClosure@@@Z 0803ad70 f i fprofiler.obj
 0001:00039d70       ?fill_stackmap_prolog@ResolveOopMapConflicts@@EAEXH@Z 0803ad70 f i rewriter.obj
 0001:00039d70       ?do_UnsafePutObject@Canonicalizer@@UAEXPAVUnsafePutObject@@@Z 0803ad70 f i c1_Canonicalizer.obj
 0001:00039d70       ?do_UnsafeGetRaw@NullCheckVisitor@@UAEXPAVUnsafeGetRaw@@@Z 0803ad70 f i c1_Optimizer.obj
 0001:00039d70       ?do_IfInstanceOf@Canonicalizer@@UAEXPAVIfInstanceOf@@@Z 0803ad70 f i c1_Canonicalizer.obj
 0001:00039d70       ?print_instr@LIR_OpCompareAndSwap@@UBEXPAVoutputStream@@@Z 0803ad70 f i c1_LIR.obj
 0001:00039d70       ?print_instr@LIR_OpAllocObj@@UBEXPAVoutputStream@@@Z 0803ad70 f i c1_LIR.obj
 0001:00039d70       ?do_If@ValueNumberingVisitor@@MAEXPAVIf@@@Z 0803ad70 f i c1_GraphBuilder.obj
 0001:00039d70       ?print_instr@LIR_OpLock@@UBEXPAVoutputStream@@@Z 0803ad70 f i c1_LIR.obj
 0001:00039d70       ?print_instr@LIR_Op0@@UBEXPAVoutputStream@@@Z 0803ad70 f i c1_LinearScan_x86.obj
 0001:00039d70       ?print_instr@LIR_OpProfileCall@@UBEXPAVoutputStream@@@Z 0803ad70 f i c1_LIRGenerator.obj
 0001:00039d70       ?do_NewTypeArray@Canonicalizer@@UAEXPAVNewTypeArray@@@Z 0803ad70 f i c1_Canonicalizer.obj
 0001:00039d70       ?do_RoundFP@NullCheckVisitor@@UAEXPAVRoundFP@@@Z 0803ad70 f i c1_Optimizer.obj
 0001:00039d70       ?do_If@NullCheckVisitor@@UAEXPAVIf@@@Z 0803ad70 f i c1_Optimizer.obj
 0001:00039d70       ?print_instr@LIR_OpTypeCheck@@UBEXPAVoutputStream@@@Z 0803ad70 f i c1_LIR.obj
 0001:00039d70       ?stub_prolog@StubCodeGenerator@@UAEXPAVStubCodeDesc@@@Z 0803ad70 f i stubCodeGenerator.obj
 0001:00039d70       ?set_method_handle@MethodHandleWalker@@UAEXPAVoopDesc@@@Z 0803ad70 f i methodHandleWalk.obj
 0001:00039d70       ?peephole@LIR_Assembler@@QAEXPAVLIR_List@@@Z 0803ad70 f i c1_LIRAssembler_x86.obj
 0001:00039d70       ?do_Constant@NullCheckVisitor@@UAEXPAVConstant@@@Z 0803ad70 f i c1_Optimizer.obj
 0001:00039d70       ?do_Phi@Canonicalizer@@UAEXPAVPhi@@@Z 0803ad70 f i c1_Canonicalizer.obj
 0001:00039d70       ?delay_compilation@SimpleThresholdPolicy@@UAEXPAVmethodOopDesc@@@Z 0803ad70 f i compilationPolicy.obj
 0001:00039d70       ?do_Throw@Canonicalizer@@UAEXPAVThrow@@@Z 0803ad70 f i c1_Canonicalizer.obj
 0001:00039d70       ?do_ArithmeticOp@ValueNumberingVisitor@@MAEXPAVArithmeticOp@@@Z 0803ad70 f i c1_GraphBuilder.obj
 0001:00039d70       ?print_instr@LIR_OpLabel@@UBEXPAVoutputStream@@@Z 0803ad70 f i c1_LIRGenerator.obj
 0001:00039d70       ?print_impl@ciObject@@MAEXPAVoutputStream@@@Z 0803ad70 f i ciMethod.obj
 0001:00039d70       ?fill_stackmap_prolog@GeneratePairingInfo@@EAEXH@Z 0803ad70 f i ciMethod.obj
 0001:00039d70       ?print_on@LIR_Op@@UBEXPAVoutputStream@@@Z 0803ad70 f i c1_LinearScan_x86.obj
 0001:00039d70       ?do_BlockBegin@NullCheckVisitor@@UAEXPAVBlockBegin@@@Z 0803ad70 f i c1_Optimizer.obj
 0001:00039d70       ?do_OsrEntry@NullCheckVisitor@@UAEXPAVOsrEntry@@@Z 0803ad70 f i c1_Optimizer.obj
 0001:00039d70       ?set_top_for_allocations@MutableNUMASpace@@UAEXPAVHeapWord@@@Z 0803ad70 f i mutableNUMASpace.obj
 0001:00039d70       ?print_instr@LIR_OpBranch@@UBEXPAVoutputStream@@@Z 0803ad70 f i c1_LIR.obj
 0001:00039d70       ?do_object@IsAliveClosure@DefNewGeneration@@UAEXPAVoopDesc@@@Z 0803ad70 f i defNewGeneration.obj
 0001:00039d70       ?do_ShiftOp@ValueNumberingVisitor@@MAEXPAVShiftOp@@@Z 0803ad70 f i c1_GraphBuilder.obj
 0001:00039d70       ?oops_do@VM_Operation@@UAEXPAVOopClosure@@@Z 0803ad70 f i icBuffer.obj
 0001:00039d70       ?do_UnsafeGetObject@Canonicalizer@@UAEXPAVUnsafeGetObject@@@Z 0803ad70 f i c1_Canonicalizer.obj
 0001:00039d70       ?do_UnsafePrefetchWrite@ValueNumberingVisitor@@MAEXPAVUnsafePrefetchWrite@@@Z 0803ad70 f i c1_GraphBuilder.obj
 0001:00039d70       ?do_UnsafePrefetchWrite@Canonicalizer@@UAEXPAVUnsafePrefetchWrite@@@Z 0803ad70 f i c1_Canonicalizer.obj
 0001:00039d70       ?do_LoadField@Canonicalizer@@UAEXPAVLoadField@@@Z 0803ad70 f i c1_Canonicalizer.obj
 0001:00039d70       ?do_Local@ValueNumberingVisitor@@MAEXPAVLocal@@@Z 0803ad70 f i c1_GraphBuilder.obj
 0001:00039d70       ?remember_mdo@Par_PushOrMarkClosure@@UAEXPAVDataLayout@@@Z 0803ad70 f i concurrentMarkSweepGeneration.obj
 0001:00039d70       ?fill_init_vars@GeneratePairingInfo@@EAEXPAV?$GrowableArray@H@@@Z 0803ad70 f i ciMethod.obj
 0001:00039d70       ?do_IfOp@NullCheckVisitor@@UAEXPAVIfOp@@@Z 0803ad70 f i c1_Optimizer.obj
 0001:00039d70       ?set_value@OopMap@@QAEXPAVVMRegImpl@@@Z 0803ad70 f i oopMap.obj
 0001:00039d70       ?input_values_do@ProfileInvoke@@UAEXPAVValueVisitor@@@Z 0803ad70 f i c1_GraphBuilder.obj
 0001:00039d70       ?do_UnsafePutRaw@NullCheckVisitor@@UAEXPAVUnsafePutRaw@@@Z 0803ad70 f i c1_Optimizer.obj
 0001:00039d70       ?read_ref_field@ModRefBarrierSet@@UAEXPAX@Z 0803ad70 f i cardTableModRefBS.obj
 0001:00039d70       ?do_ArrayLength@ValueNumberingVisitor@@MAEXPAVArrayLength@@@Z 0803ad70 f i c1_GraphBuilder.obj
 0001:00039d70       ?par_oop_since_save_marks_iterate_done@Generation@@UAEXH@Z 0803ad70 f i compactingPermGenGen.obj
 0001:00039d70       ?do_OsrEntry@Canonicalizer@@UAEXPAVOsrEntry@@@Z 0803ad70 f i c1_Canonicalizer.obj
 0001:00039d70       ?do_Return@ValueNumberingVisitor@@MAEXPAVReturn@@@Z 0803ad70 f i c1_GraphBuilder.obj
 0001:00039d70       ?do_object@CMSIsAliveClosure@@UAEXPAVoopDesc@@@Z 0803ad70 f i concurrentMarkSweepGeneration.obj
 0001:00039d70       ?check_mangled_unused_area@MutableSpace@@UAEXPAVHeapWord@@@Z 0803ad70 f i mutableSpace.obj
 0001:00039d70       ?do_NewObjectArray@Canonicalizer@@UAEXPAVNewObjectArray@@@Z 0803ad70 f i c1_Canonicalizer.obj
 0001:00039d70       ?remember_klass@OopClosure@@UAEXPAVKlass@@@Z 0803ad70 f i nmethod.obj
 0001:00039d70       ?do_ProfileInvoke@ValueNumberingVisitor@@MAEXPAVProfileInvoke@@@Z 0803ad70 f i c1_GraphBuilder.obj
 0001:00039d70       ?do_Base@ValueNumberingVisitor@@MAEXPAVBase@@@Z 0803ad70 f i c1_GraphBuilder.obj
 0001:00039d70       ?do_oop@DoNothingClosure@@UAEXPAI@Z 0803ad70 f i oopMap.obj
 0001:00039d70       ?do_IfOp@ValueNumberingVisitor@@MAEXPAVIfOp@@@Z 0803ad70 f i c1_GraphBuilder.obj
 0001:00039d70       ?do_ProfileInvoke@Canonicalizer@@UAEXPAVProfileInvoke@@@Z 0803ad70 f i c1_Canonicalizer.obj
 0001:00039d70       ?do_BlockBegin@LIRGenerator@@UAEXPAVBlockBegin@@@Z 0803ad70 f i c1_LIRGenerator_x86.obj
 0001:00039d70       ?do_UnsafeGetObject@NullCheckVisitor@@UAEXPAVUnsafeGetObject@@@Z 0803ad70 f i c1_Optimizer.obj
 0001:00039d70       ?oop_follow_contents@symbolKlass@@UAEXPAVoopDesc@@@Z 0803ad70 f i symbolKlass.obj
 0001:00039d70       ?remember_mdo@Par_PushAndMarkClosure@@UAEXPAVDataLayout@@@Z 0803ad70 f i concurrentMarkSweepGeneration.obj
 0001:00039d70       ?do_Convert@NullCheckVisitor@@UAEXPAVConvert@@@Z 0803ad70 f i c1_Optimizer.obj
 0001:00039d70       ?input_values_do@Constant@@UAEXPAVValueVisitor@@@Z 0803ad70 f i c1_Canonicalizer.obj
 0001:00039d70       ?oop_set_partially_loaded@Klass@@UAEXPAVoopDesc@@@Z 0803ad70 f i universe.obj
 0001:00039d70       ?do_ProfileInvoke@NullCheckVisitor@@UAEXPAVProfileInvoke@@@Z 0803ad70 f i c1_Optimizer.obj
 0001:00039d70       ?translate_from@ProfileData@@UAEXPAV1@@Z 0803ad70 f i ciMethodData.obj
 0001:00039d70       ?par_promote_alloc_done@Generation@@UAEXH@Z 0803ad70 f i compactingPermGenGen.obj
 0001:00039d70       ?do_LookupSwitch@ValueNumberingVisitor@@MAEXPAVLookupSwitch@@@Z 0803ad70 f i c1_GraphBuilder.obj
 0001:00039d70       ?input_values_do@Local@@UAEXPAVValueVisitor@@@Z 0803ad70 f i c1_GraphBuilder.obj
 0001:00039d70       ?do_LogicOp@NullCheckVisitor@@UAEXPAVLogicOp@@@Z 0803ad70 f i c1_Optimizer.obj
 0001:00039d70       ?do_BlockBegin@Canonicalizer@@UAEXPAVBlockBegin@@@Z 0803ad70 f i c1_Canonicalizer.obj
 0001:00039d70       ?print_instr@LIR_OpRoundFP@@UBEXPAVoutputStream@@@Z 0803ad70 f i c1_LIRGenerator.obj
 0001:00039d70       ?input_values_do@Phi@@UAEXPAVValueVisitor@@@Z 0803ad70 f i c1_ValueStack.obj
 0001:00039d70       ?check_mangled_unused_area@MutableNUMASpace@@UAEXPAVHeapWord@@@Z 0803ad70 f i mutableNUMASpace.obj
 0001:00039d70       ?oop_iterate@ProfileData@@UAEXPAVOopClosure@@@Z 0803ad70 f i ciMethodData.obj
 0001:00039d70       ?do_Base@NullCheckVisitor@@UAEXPAVBase@@@Z 0803ad70 f i c1_Optimizer.obj
 0001:00039d70       ?do_RoundFP@Canonicalizer@@UAEXPAVRoundFP@@@Z 0803ad70 f i c1_Canonicalizer.obj
 0001:00039d70       ?do_LookupSwitch@NullCheckVisitor@@UAEXPAVLookupSwitch@@@Z 0803ad70 f i c1_Optimizer.obj
 0001:00039d70       ?print_instr@LIR_OpJavaCall@@UBEXPAVoutputStream@@@Z 0803ad70 f i c1_LIRGenerator.obj
 0001:00039d70       ?fill_stackmap_prolog@OopMapForCacheEntry@@EAEXH@Z 0803ad70 f i oopMapCache.obj
 0001:00039d70       ?print_instr@LIR_OpAllocArray@@UBEXPAVoutputStream@@@Z 0803ad70 f i c1_LIR.obj
 0001:00039d70       ?print_on@G1BlockOffsetArrayContigSpace@@UAEXPAVoutputStream@@@Z 0803ad70 f i g1BlockOffsetTable.obj
 0001:00039d70       ?do_OsrEntry@ValueNumberingVisitor@@MAEXPAVOsrEntry@@@Z 0803ad70 f i c1_GraphBuilder.obj
 0001:00039d70       ?do_Base@Canonicalizer@@UAEXPAVBase@@@Z 0803ad70 f i c1_Canonicalizer.obj
 0001:00039d70       ?verify_oop_map@LIR_Assembler@@QAEXPAVCodeEmitInfo@@@Z 0803ad70 f i c1_LIRAssembler.obj
 0001:00039d70       ?print_on@G1BlockOffsetArray@@UAEXPAVoutputStream@@@Z 0803ad70 f i g1BlockOffsetTable.obj
 0001:00039d70       ?print_impl@ciMethodData@@EAEXPAVoutputStream@@@Z 0803ad70 f i ciMethodData.obj
 0001:00039d70       ?do_ProfileCall@ValueNumberingVisitor@@MAEXPAVProfileCall@@@Z 0803ad70 f i c1_GraphBuilder.obj
 0001:00039d70       ?input_values_do@StateSplit@@UAEXPAVValueVisitor@@@Z 0803ad70 f i c1_Canonicalizer.obj
 0001:00039d70       ?do_Throw@ValueNumberingVisitor@@MAEXPAVThrow@@@Z 0803ad70 f i c1_GraphBuilder.obj
 0001:00039d70       ?younger_refs_iterate@DefNewGeneration@@UAEXPAVOopsInGenClosure@@@Z 0803ad70 f i defNewGeneration.obj
 0001:00039d70       ?print_value_on@LIR_Const@@UBEXPAVoutputStream@@@Z 0803ad70 f i c1_LinearScan_x86.obj
 0001:00039d70       ?do_UnsafeGetObject@ValueNumberingVisitor@@MAEXPAVUnsafeGetObject@@@Z 0803ad70 f i c1_GraphBuilder.obj
 0001:00039d70       ?do_NewInstance@ValueNumberingVisitor@@MAEXPAVNewInstance@@@Z 0803ad70 f i c1_GraphBuilder.obj
 0001:00039d70       ?do_TableSwitch@NullCheckVisitor@@UAEXPAVTableSwitch@@@Z 0803ad70 f i c1_Optimizer.obj
 0001:00039d70       ?do_UnsafeGetRaw@ValueNumberingVisitor@@MAEXPAVUnsafeGetRaw@@@Z 0803ad70 f i c1_GraphBuilder.obj
 0001:00039d70       ?do_UnsafePrefetchRead@Canonicalizer@@UAEXPAVUnsafePrefetchRead@@@Z 0803ad70 f i c1_Canonicalizer.obj
 0001:00039d70       ?array_klasses_do@Klass@@UAEXP6AXPAVklassOopDesc@@@Z@Z 0803ad70 f i universe.obj
 0001:00039d70       ?gc_epilogue@G1CollectedHeap@@UAEX_N@Z 0803ad70 f i g1CollectedHeap.obj
 0001:00039d70       ?print_instr@LIR_Op2@@UBEXPAVoutputStream@@@Z 0803ad70 f i c1_LIRGenerator_x86.obj
 0001:00039d70       ?do_NewInstance@Canonicalizer@@UAEXPAVNewInstance@@@Z 0803ad70 f i c1_Canonicalizer.obj
 0001:00039d70       ?do_ShiftOp@NullCheckVisitor@@UAEXPAVShiftOp@@@Z 0803ad70 f i c1_Optimizer.obj
 0001:00039d70       ?oop_follow_contents@typeArrayKlass@@UAEXPAVoopDesc@@@Z 0803ad70 f i typeArrayKlass.obj
 0001:00039d70       ?oops_do@vmNode@@UAEXPAVOopClosure@@@Z 0803ad70 f i fprofiler.obj
 0001:00039d70       ?do_ExceptionObject@ValueNumberingVisitor@@MAEXPAVExceptionObject@@@Z 0803ad70 f i c1_GraphBuilder.obj
 0001:00039d70       ?do_oop@DoNothingClosure@@UAEXPAPAVoopDesc@@@Z 0803ad70 f i oopMap.obj
 0001:00039d70       ?fill_in_ext_msg_extra@HeapRegionSetBase@@MAEXPAVhrl_ext_msg@@@Z 0803ad70 f i concurrentMark.obj
 0001:00039d70       ?do_IfInstanceOf@NullCheckVisitor@@UAEXPAVIfInstanceOf@@@Z 0803ad70 f i c1_Optimizer.obj
 0001:00039d70       ?input_values_do@ExceptionObject@@UAEXPAVValueVisitor@@@Z 0803ad70 f i c1_GraphBuilder.obj
 0001:00039d70       ?print_value_on@nmethod@@UBEXPAVoutputStream@@@Z 0803ad70 f i nmethod.obj
 0001:00039d70       ?note_change_in_marked_bytes@G1CollectorPolicy_BestRegionsFirst@@UAEXPAVHeapRegion@@@Z 0803ad70 f i universe.obj
 0001:00039d70       ?do_UnsafePutObject@NullCheckVisitor@@UAEXPAVUnsafePutObject@@@Z 0803ad70 f i c1_Optimizer.obj
 0001:00039d70       ?do_UnsafePrefetchRead@NullCheckVisitor@@UAEXPAVUnsafePrefetchRead@@@Z 0803ad70 f i c1_Optimizer.obj
 0001:00039d70       ?do_CheckCast@ValueNumberingVisitor@@MAEXPAVCheckCast@@@Z 0803ad70 f i c1_GraphBuilder.obj
 0001:00039d70       ?do_BlockBegin@ValueNumberingVisitor@@MAEXPAVBlockBegin@@@Z 0803ad70 f i c1_GraphBuilder.obj
 0001:00039d70       ?do_InstanceOf@NullCheckVisitor@@UAEXPAVInstanceOf@@@Z 0803ad70 f i c1_Optimizer.obj
 0001:00039d70       ?check_and_handle_popframe@MacroAssembler@@MAEXPAVRegisterImpl@@@Z 0803ad70 f i assembler_x86.obj
 0001:00039d70       ?print_instr@LIR_Op3@@UBEXPAVoutputStream@@@Z 0803ad70 f i c1_LIR.obj
 0001:00039d70       ?do_NewMultiArray@Canonicalizer@@UAEXPAVNewMultiArray@@@Z 0803ad70 f i c1_Canonicalizer.obj
 0001:00039d70       ?set_top_for_allocations@MutableSpace@@UAEXPAVHeapWord@@@Z 0803ad70 f i mutableSpace.obj
 0001:00039d70       ?follow_contents@ProfileData@@UAEXPAVParCompactionManager@@@Z 0803ad70 f i ciMethodData.obj
 0001:00039d70       ?do_NewMultiArray@ValueNumberingVisitor@@MAEXPAVNewMultiArray@@@Z 0803ad70 f i c1_GraphBuilder.obj
 0001:00039d80       ?pinned@jmpConUNode@@UBE_NXZ 0803ad80 f i ad_x86_32_gen.obj
 0001:00039d80       ?is_constant@LongConstant@@UBE_NXZ 0803ad80 f i c1_Canonicalizer.obj
 0001:00039d80       ?is_alive@SingletonBlob@@UBE_NXZ 0803ad80 f i codeBlob.obj
 0001:00039d80       ?can_trap@NewArray@@UBE_NXZ 0803ad80 f i c1_GraphBuilder.obj
 0001:00039d80       ?has_write_ref_barrier@ModRefBarrierSet@@UAE_NXZ 0803ad80 f i cardTableModRefBS.obj
 0001:00039d80       ?is_CFG@CProjNode@@UBE_NXZ 0803ad80 f i callGenerator.obj
 0001:00039d80       ?is_obj_array@ciObjArray@@UAE_NXZ 0803ad80 f i ciObjectFactory.obj
 0001:00039d80       ?must_be_oldest@TenuredGeneration@@UBE_NXZ 0803ad80 f i tenuredGeneration.obj
 0001:00039d80       ?is_JumpData@JumpData@@UAE_NXZ 0803ad80 f i ciMethodData.obj
 0001:00039d80       ?is_jvmti_agent_thread@JvmtiAgentThread@@UBE_NXZ 0803ad80 f i jvmtiImpl.obj
 0001:00039d80       ?is_top@vframe@@UBE_NXZ    0803ad80 f i vframe.obj
 0001:00039d80       ?is_runtime_stub@RuntimeStub@@UBE_NXZ 0803ad80 f i codeBlob.obj
 0001:00039d80       ?is_array@ciArray@@UAE_NXZ 0803ad80 f i ciObjectFactory.obj
 0001:00039d80       ?can_trap@MonitorEnter@@UBE_NXZ 0803ad80 f i c1_GraphBuilder.obj
 0001:00039d80       ?apply_to_weak_ref_discovered_field@UpdateRSOopClosure@@UAE_NXZ 0803ad80 f i g1CollectedHeap.obj
 0001:00039d80       ?is_constant@InstanceConstant@@UBE_NXZ 0803ad80 f i c1_GraphBuilder.obj
 0001:00039d80       ?is_interpreted@interpretedNode@@UBE_NXZ 0803ad80 f i fprofiler.obj
 0001:00039d80       ?has_write_ref_array_opt@CardTableModRefBS@@UAE_NXZ 0803ad80 f i cardTableModRefBS.obj
 0001:00039d80       ?allow_nested_vm_operations@VM_EnterInterpOnlyMode@@UBE_NXZ 0803ad80 f i jvmtiEventController.obj
 0001:00039d80       ?oop_is_instanceKlass@instanceKlassKlass@@UBE_NXZ 0803ad80 f i universe.obj
 0001:00039d80       ?oop_is_compiledICHolder@compiledICHolderKlass@@UBE_NXZ 0803ad80 f i universe.obj
 0001:00039d80       ?oop_is_constantPool@constantPoolKlass@@UBE_NXZ 0803ad80 f i universe.obj
 0001:00039d80       ?is_alive@RuntimeStub@@UBE_NXZ 0803ad80 f i codeBlob.obj
 0001:00039d80       ?is_type@ciType@@UAE_NXZ   0803ad80 f i ciArrayKlass.obj
 0001:00039d80       ?pinned@jmpConNode@@UBE_NXZ 0803ad80 f i ad_x86_32_expand.obj
 0001:00039d80       ?is_trap@UncommonTrapCallGenerator@@UBE_NXZ 0803ad80 f i callGenerator.obj
 0001:00039d80       ?is_alive@BufferBlob@@UBE_NXZ 0803ad80 f i codeBlob.obj
 0001:00039d80       ?apply_to_weak_ref_discovered_field@G1ParClosureSuper@@UAE_NXZ 0803ad80 f i g1CollectedHeap.obj
 0001:00039d80       ?apply_to_weak_ref_discovered_field@FilterOutOfRegionClosure@@UAE_NXZ 0803ad80 f i heapRegion.obj
 0001:00039d80       ?is_method@ciMethod@@UAE_NXZ 0803ad80 f i ciMethod.obj
 0001:00039d80       ?is_dynamic_code_event@JvmtiDynamicCodeEventCollector@@UAE_NXZ 0803ad80 f i jvmtiExport.obj
 0001:00039d80       ?evaluate_at_safepoint@VM_CMS_Operation@@UBE_NXZ 0803ad80 f i concurrentMarkSweepGeneration.obj
 0001:00039d80       ?pinned@jmpConUCF2_shortNode@@UBE_NXZ 0803ad80 f i ad_x86_32.obj
 0001:00039d80       ?is_constant@FloatConstant@@UBE_NXZ 0803ad80 f i c1_Canonicalizer.obj
 0001:00039d80       ?is_data@poll_Relocation@@EAE_NXZ 0803ad80 f i relocInfo.obj
 0001:00039d80       ?allow_nested_vm_operations@VM_HandleFullCodeCache@@UBE_NXZ 0803ad80 f i sweeper.obj
 0001:00039d80       ?can_trap@NewInstance@@UBE_NXZ 0803ad80 f i c1_GraphBuilder.obj
 0001:00039d80       ?is_ArgInfoData@ArgInfoData@@UAE_NXZ 0803ad80 f i ciMethodData.obj
 0001:00039d80       ?is_VirtualCallData@VirtualCallData@@UAE_NXZ 0803ad80 f i ciMethodData.obj
 0001:00039d80       ?supports_native@Compiler@@UAE_NXZ 0803ad80 f i c1_Compiler.obj
 0001:00039d80       ?oop_is_instance_slow@instanceKlass@@UBE_NXZ 0803ad80 f i universe.obj
 0001:00039d80       ?is_interpreted_frame@interpretedVFrame@@UBE_NXZ 0803ad80 f i vframe.obj
 0001:00039d80       ?is_RetData@RetData@@UAE_NXZ 0803ad80 f i ciMethodData.obj
 0001:00039d80       ?is_CFG@RethrowNode@@UBE_NXZ 0803ad80 f i callnode.obj
 0001:00039d80       ?pinned@tailjmpIndNode@@UBE_NXZ 0803ad80 f i ad_x86_32_gen.obj
 0001:00039d80       ?is_compiled@CompiledRFrame@@UBE_NXZ 0803ad80 f i rframe.obj
 0001:00039d80       ?has_write_region_opt@CardTableModRefBS@@UAE_NXZ 0803ad80 f i cardTableModRefBS.obj
 0001:00039d80       ?pinned@jumpXtndNode@@UBE_NXZ 0803ad80 f i ad_x86_32_gen.obj
 0001:00039d80       ?is_cheap_allocated@VM_ForceAsyncSafepoint@@UBE_NXZ 0803ad80 f i synchronizer.obj
 0001:00039d80       ?is_divbyzero_stub@DivByZeroStub@@UBE_NXZ 0803ad80 f i c1_LIRGenerator_x86.obj
 0001:00039d80       ?pinned@jmpLoopEnd_shortNode@@UBE_NXZ 0803ad80 f i ad_x86_32.obj
 0001:00039d80       ?is_hidden_from_external_view@LowMemoryDetectorThread@@UBE_NXZ 0803ad80 f i lowMemoryDetector.obj
 0001:00039d80       ?is_range_check_stub@RangeCheckStub@@UBE_NXZ 0803ad80 f i c1_CodeStubs_x86.obj
 0001:00039d80       ?pinned@ShouldNotReachHereNode@@UBE_NXZ 0803ad80 f i ad_x86_32_gen.obj
 0001:00039d80       ?is_Watcher_thread@WatcherThread@@UBE_NXZ 0803ad80 f i thread.obj
 0001:00039d80       ?is_hidden_from_external_view@SurrogateLockerThread@@UBE_NXZ 0803ad80 f i concurrentGCThread.obj
 0001:00039d80       ?is_ConcurrentGC_thread@ConcurrentMarkSweepThread@@UBE_NXZ 0803ad80 f i concurrentMarkSweepThread.obj
 0001:00039d80       ?is_vm_object_alloc_event@JvmtiVMObjectAllocEventCollector@@UAE_NXZ 0803ad80 f i jvmtiExport.obj
 0001:00039d80       ?is_commutative@LogicOp@@UBE_NXZ 0803ad80 f i c1_Instruction.obj
 0001:00039d80       ?pinned@jmpLoopEndUCF_shortNode@@UBE_NXZ 0803ad80 f i ad_x86_32.obj
 0001:00039d80       ?is_VM_thread@VMThread@@UBE_NXZ 0803ad80 f i vmThread.obj
 0001:00039d80       ?is_instance_klass@ciInstanceKlass@@UAE_NXZ 0803ad80 f i ciInstanceKlass.obj
 0001:00039d80       ?can_trap@Throw@@UBE_NXZ   0803ad80 f i c1_GraphBuilder.obj
 0001:00039d80       ?is_uncommon_trap_stub@UncommonTrapBlob@@UBE_NXZ 0803ad80 f i codeBlob.obj
 0001:00039d80       ?is_jar_file@ClassPathZipEntry@@UAE_NXZ 0803ad80 f i classLoader.obj
 0001:00039d80       ?check_mt_safety@HeapRegionSetBase@@MAE_NXZ 0803ad80 f i concurrentMark.obj
 0001:00039d80       ?is_MultiBranchData@MultiBranchData@@UAE_NXZ 0803ad80 f i ciMethodData.obj
 0001:00039d80       ?is_late_inline@LateInlineCallGenerator@@UBE_NXZ 0803ad80 f i callGenerator.obj
 0001:00039d80       ?is_exception_throw_stub@SimpleExceptionStub@@UBE_NXZ 0803ad80 f i c1_LIRGenerator_x86.obj
 0001:00039d80       ?is_java_klass@ciInstanceKlass@@UAE_NXZ 0803ad80 f i ciInstanceKlass.obj
 0001:00039d80       ?is_type_array_klass_klass@ciTypeArrayKlassKlass@@UAE_NXZ 0803ad80 f i ciObjectFactory.obj
 0001:00039d80       ?is_constant_oop@ConstantOopWriteValue@@UBE_NXZ 0803ad80 f i c1_LinearScan.obj
 0001:00039d80       ?supports_heap_inspection@GenCollectedHeap@@UBE_NXZ 0803ad80 f i genCollectedHeap.obj
 0001:00039d80       ?is_cpcache@ciCPCache@@UBE_NXZ 0803ad80 f i ciObjectFactory.obj
 0001:00039d80       ?is_inline@InlineCallGenerator@@EBE_NXZ 0803ad80 f i callGenerator.obj
 0001:00039d80       ?is_exception_throw_stub@RangeCheckStub@@UBE_NXZ 0803ad80 f i c1_CodeStubs_x86.obj
 0001:00039d80       ?is_parse@ParseGenerator@@UBE_NXZ 0803ad80 f i callGenerator.obj
 0001:00039d80       ?is_obj_array_klass@ciObjArrayKlass@@UAE_NXZ 0803ad80 f i ciObjArrayKlass.obj
 0001:00039d80       ?is_klass_klass@ciKlassKlass@@UAE_NXZ 0803ad80 f i ciObjectFactory.obj
 0001:00039d80       ?is_intrinsic@LibraryIntrinsic@@UBE_NXZ 0803ad80 f i library_call.obj
 0001:00039d80       ?is_instance@ciInstance@@UAE_NXZ 0803ad80 f i ciObjectFactory.obj
 0001:00039d80       ?activate_current@IntervalWalker@@MAE_NXZ 0803ad80 f i c1_LinearScan.obj
 0001:00039d80       ?pinned@cmpL_EQNENode@@UBE_NXZ 0803ad80 f i ad_x86_32_gen.obj
 0001:00039d80       ?oop_is_symbol@symbolKlass@@UBE_NXZ 0803ad80 f i universe.obj
 0001:00039d80       ?is_CFG@RegionNode@@UBE_NXZ 0803ad80 f i block.obj
 0001:00039d80       ?needs_exception_state@Instruction@@UBE_NXZ 0803ad80 f i c1_Canonicalizer.obj
 0001:00039d80       ?is_deoptimization_stub@DeoptimizationBlob@@UBE_NXZ 0803ad80 f i codeBlob.obj
 0001:00039d80       ?regions_empty@FreeRegionList@@MAE_NXZ 0803ad80 f i concurrentMark.obj
 0001:00039d80       ?is_BranchData@BranchData@@UAE_NXZ 0803ad80 f i ciMethodData.obj
 0001:00039d80       ?pinned@jmpConU_shortNode@@UBE_NXZ 0803ad80 f i ad_x86_32.obj
 0001:00039d80       ?is_adapter_blob@AdapterBlob@@UBE_NXZ 0803ad80 f i codeBlob.obj
 0001:00039d80       ?can_elide_tlab_store_barriers@ParallelScavengeHeap@@UBE_NXZ 0803ad80 f i universe.obj
 0001:00039d80       ?is_stub@stubNode@@UBE_NXZ 0803ad80 f i fprofiler.obj
 0001:00039d80       ?is_compiled@unknown_compiledNode@@UBE_NXZ 0803ad80 f i fprofiler.obj
 0001:00039d80       ?is_location@LocationValue@@UBE_NXZ 0803ad80 f i debugInfo.obj
 0001:00039d80       ?should_remember_mdo@MarkAndPushClosure@MarkSweep@@UBE?B_NXZ 0803ad80 f i markSweep.obj
 0001:00039d80       ?pinned@PCTableNode@@UBE_NXZ 0803ad80 f i doCall.obj
 0001:00039d80       ?regions_humongous@HumongousRegionSet@@MAE_NXZ 0803ad80 f i concurrentMark.obj
 0001:00039d80       ?pinned@jmpLoopEndUNode@@UBE_NXZ 0803ad80 f i ad_x86_32_gen.obj
 0001:00039d80       ?is_klass@ciKlass@@UAE_NXZ 0803ad80 f i ciArrayKlass.obj
 0001:00039d80       ?pinned@CreateExNode@@UBE_NXZ 0803ad80 f i doCall.obj
 0001:00039d80       ?can_trap@TypeCheck@@UBE_NXZ 0803ad80 f i c1_GraphBuilder.obj
 0001:00039d80       ?is_ReceiverTypeData@ReceiverTypeData@@UAE_NXZ 0803ad80 f i ciMethodData.obj
 0001:00039d80       ?is_classless@ciNullObject@@UBE_NXZ 0803ad80 f i ciObjectFactory.obj
 0001:00039d80       ?doit_prologue@VM_Operation@@UAE_NXZ 0803ad80 f i icBuffer.obj
 0001:00039d80       ?allow_nested_vm_operations@VM_DeoptimizeFrame@@UBE_NXZ 0803ad80 f i vm_operations.obj
 0001:00039d80       ?is_safepoint_stub@SafepointBlob@@UBE_NXZ 0803ad80 f i codeBlob.obj
 0001:00039d80       ?is_exception_throw_stub@ImplicitNullCheckStub@@UBE_NXZ 0803ad80 f i c1_LIRAssembler.obj
 0001:00039d80       ?allow_nested_vm_operations@VM_ThreadStop@@UBE_NXZ 0803ad80 f i thread.obj
 0001:00039d80       ?is_buffer_blob@BufferBlob@@UBE_NXZ 0803ad80 f i codeBlob.obj
 0001:00039d80       ?is_array_klass_klass@ciArrayKlassKlass@@UAE_NXZ 0803ad80 f i ciObjectFactory.obj
 0001:00039d80       ?is_deferred@WarmCallGenerator@@UBE_NXZ 0803ad80 f i callGenerator.obj
 0001:00039d80       ?is_call_site@ciCallSite@@UBE_NXZ 0803ad80 f i ciObjectFactory.obj
 0001:00039d80       ?pinned@cmpL_LTGENode@@UBE_NXZ 0803ad80 f i ad_x86_32_gen.obj
 0001:00039d80       ?doit_prologue@VM_BulkRevokeBias@@UAE_NXZ 0803ad80 f i biasedLocking.obj
 0001:00039d80       ?is_ArrayData@ArrayData@@UAE_NXZ 0803ad80 f i ciMethodData.obj
 0001:00039d80       ?is_finite@TypeInt@@UBE_NXZ 0803ad80 f i type.obj
 0001:00039d80       ?has_write_ref_array_pre_opt@BarrierSet@@UAE_NXZ 0803ad80 f i cardTableModRefBS.obj
 0001:00039d80       ?is_compiled@compiledNode@@UBE_NXZ 0803ad80 f i fprofiler.obj
 0001:00039d80       ?is_switch_pad@ChangeSwitchPad@@UAE_NXZ 0803ad80 f i relocator.obj
 0001:00039d80       ?pinned@jmpConUCF2Node@@UBE_NXZ 0803ad80 f i ad_x86_32_gen.obj
 0001:00039d80       ?can_execute_large_page_memory@os@@SA_NXZ 0803ad80 f i os_windows.obj
 0001:00039d80       ?allow_nested_vm_operations@VM_GetOrSetLocal@@UBE_NXZ 0803ad80 f i jvmtiImpl.obj
 0001:00039d80       ?is_block@Block@@UAE_NXZ   0803ad80 f i block.obj
 0001:00039d80       ?pinned@TailCalljmpIndNode@@UBE_NXZ 0803ad80 f i ad_x86_32_gen.obj
 0001:00039d80       ?supports_tlab_allocation@G1CollectedHeap@@UBE_NXZ 0803ad80 f i g1CollectedHeap.obj
 0001:00039d80       ?is_null_object@ciNullObject@@UBE_NXZ 0803ad80 f i ciObjectFactory.obj
 0001:00039d80       ?is_cheap_allocated@VM_ThreadStop@@UBE_NXZ 0803ad80 f i thread.obj
 0001:00039d80       ?is_Named_thread@NamedThread@@UBE_NXZ 0803ad80 f i thread.obj
 0001:00039d80       ?is_finite@TypeLong@@UBE_NXZ 0803ad80 f i type.obj
 0001:00039d80       ?pinned@IfNode@@UBE_NXZ    0803ad80 f i callGenerator.obj
 0001:00039d80       ?is_GC_task_thread@GCTaskThread@@UBE_NXZ 0803ad80 f i gcTaskThread.obj
 0001:00039d80       ?allow_nested_vm_operations@VM_ChangeSingleStep@@UBE_NXZ 0803ad80 f i jvmtiEventController.obj
 0001:00039d80       ?supports_heap_inspection@G1CollectedHeap@@UBE_NXZ 0803ad80 f i g1CollectedHeap.obj
 0001:00039d80       ?is_data@DataRelocation@@UAE_NXZ 0803ad80 f i compiledIC.obj
 0001:00039d80       ?is_nmethod@nmethod@@UBE_NXZ 0803ad80 f i nmethod.obj
 0001:00039d80       ?is_constant_long@ConstantLongValue@@UBE_NXZ 0803ad80 f i debugInfo.obj
 0001:00039d80       ?is_gc_memory_manager@GCMemoryManager@@UAE_NXZ 0803ad80 f i memoryManager.obj
 0001:00039d80       ?pinned@RetNode@@UBE_NXZ   0803ad80 f i ad_x86_32_gen.obj
 0001:00039d80       ?is_compiled@adapterNode@@UBE_NXZ 0803ad80 f i fprofiler.obj
 0001:00039d80       ?pinned@NeverBranchNode@@UBE_NXZ 0803ad80 f i loopnode.obj
 0001:00039d80       ?is_CounterData@CounterData@@UAE_NXZ 0803ad80 f i ciMethodData.obj
 0001:00039d80       ?is_virtual@PredictedCallGenerator@@UBE_NXZ 0803ad80 f i callGenerator.obj
 0001:00039d80       ?is_compiled@vmNode@@UBE_NXZ 0803ad80 f i fprofiler.obj
 0001:00039d80       ?pinned@jmpCon_shortNode@@UBE_NXZ 0803ad80 f i ad_x86_32.obj
 0001:00039d80       ?performs_in_place_marking@Generation@@UBE_NXZ 0803ad80 f i compactingPermGenGen.obj
 0001:00039d80       ?pinned@cmpL_LEGTNode@@UBE_NXZ 0803ad80 f i ad_x86_32_gen.obj
 0001:00039d80       ?oop_is_typeArrayKlass@typeArrayKlassKlass@@UBE_NXZ 0803ad80 f i universe.obj
 0001:00039d80       ?is_c2@C2Compiler@@UAE_NXZ 0803ad80 f i compileBroker.obj
 0001:00039d80       ?pinned@jmpLoopEndUCFNode@@UBE_NXZ 0803ad80 f i ad_x86_32_gen.obj
 0001:00039d80       ?supports_osr@AbstractCompiler@@UAE_NXZ 0803ad80 f i compileBroker.obj
 0001:00039d80       ?singleton@TypeD@@UBE_NXZ  0803ad80 f i type.obj
 0001:00039d80       ?supports_heap_inspection@ParallelScavengeHeap@@UBE_NXZ 0803ad80 f i universe.obj
 0001:00039d80       ?pinned@jmpDir_shortNode@@UBE_NXZ 0803ad80 f i ad_x86_32.obj
 0001:00039d80       ?can_elide_tlab_store_barriers@GenCollectedHeap@@UBE_NXZ 0803ad80 f i genCollectedHeap.obj
 0001:00039d80       ?report_init_vars@GenerateOopMap@@UBE_NXZ 0803ad80 f i oopMapCache.obj
 0001:00039d80       ?guaranteed_safepoint@CallNode@@UAE_NXZ 0803ad80 f i callGenerator.obj
 0001:00039d80       ?must_be_youngest@DefNewGeneration@@UBE_NXZ 0803ad80 f i defNewGeneration.obj
 0001:00039d80       ?apply_to_weak_ref_discovered_field@UpdateRSOrPushRefOopClosure@@UAE_NXZ 0803ad80 f i g1RemSet.obj
 0001:00039d80       ?validate_frame@FrameMap@@IAE_NXZ 0803ad80 f i c1_FrameMap_x86.obj
 0001:00039d80       ?is_exception_throw_stub@ArrayStoreExceptionStub@@UBE_NXZ 0803ad80 f i c1_CodeStubs_x86.obj
 0001:00039d80       ?is_lazy@LazyClassPathEntry@@UAE_NXZ 0803ad80 f i classLoader.obj
 0001:00039d80       ?convL2FSupported@Matcher@@SA?B_NXZ 0803ad80 f i ad_x86_32.obj
 0001:00039d80       ?oop_is_objArrayKlass@objArrayKlassKlass@@UBE_NXZ 0803ad80 f i universe.obj
 0001:00039d80       ?allow_rewrites@ResolveOopMapConflicts@@EBE_NXZ 0803ad80 f i rewriter.obj
 0001:00039d80       ?oop_is_objArray_slow@objArrayKlass@@UBE_NXZ 0803ad80 f i universe.obj
 0001:00039d80       ?supports_tlab_allocation@ParallelScavengeHeap@@UBE_NXZ 0803ad80 f i universe.obj
 0001:00039d80       ?is_symbol_klass@ciSymbolKlass@@UAE_NXZ 0803ad80 f i ciObjectFactory.obj
 0001:00039d80       ?is_Compiler_thread@CompilerThread@@UBE_NXZ 0803ad80 f i thread.obj
 0001:00039d80       ?is_BitData@BitData@@UAE_NXZ 0803ad80 f i ciMethodData.obj
 0001:00039d80       ?is_java_object@ciArray@@UAE_NXZ 0803ad80 f i ciObjectFactory.obj
 0001:00039d80       ?oop_is_method@methodKlass@@UBE_NXZ 0803ad80 f i universe.obj
 0001:00039d80       ?supports_tlab_allocation@DefNewGeneration@@UBE_NXZ 0803ad80 f i defNewGeneration.obj
 0001:00039d80       ?is_constant@ArrayConstant@@UBE_NXZ 0803ad80 f i c1_GraphBuilder.obj
 0001:00039d80       ?can_elide_permanent_oop_store_barriers@G1CollectedHeap@@UBE_NXZ 0803ad80 f i g1CollectedHeap.obj
 0001:00039d80       ?is_method_handle@ciMethodHandle@@UBE_NXZ 0803ad80 f i ciObjectFactory.obj
 0001:00039d80       ?pinned@RethrowExceptionNode@@UBE_NXZ 0803ad80 f i ad_x86_32_gen.obj
 0001:00039d80       ?is_object@ObjectValue@@UBE_NXZ 0803ad80 f i debugInfo.obj
 0001:00039d80       ?oop_is_arrayKlass@arrayKlassKlass@@UBE_NXZ 0803ad80 f i universe.obj
 0001:00039d80       ?report_results@GenerateOopMap@@UBE_NXZ 0803ad80 f i generateOopMap.obj
 0001:00039d80       ?is_hidden_from_external_view@CompilerThread@@UBE_NXZ 0803ad80 f i thread.obj
 0001:00039d80       ?pinned@jmpDirNode@@UBE_NXZ 0803ad80 f i ad_x86_32_gen.obj
 0001:00039d80       ?is_obj_array_klass_klass@ciObjArrayKlassKlass@@UAE_NXZ 0803ad80 f i ciObjectFactory.obj
 0001:00039d80       ?pinned@jmpConUCF_shortNode@@UBE_NXZ 0803ad80 f i ad_x86_32.obj
 0001:00039d80       ?is_constant@IntConstant@@UBE_NXZ 0803ad80 f i c1_Canonicalizer.obj
 0001:00039d80       ?is_entry_frame@entryVFrame@@UBE_NXZ 0803ad80 f i vframe.obj
 0001:00039d80       ?pinned@jmpLoopEndNode@@UBE_NXZ 0803ad80 f i ad_x86_32_gen.obj
 0001:00039d80       ?is_constant@ClassConstant@@UBE_NXZ 0803ad80 f i c1_GraphBuilder.obj
 0001:00039d80       ?is_array_klass@ciArrayKlass@@UAE_NXZ 0803ad80 f i ciArrayKlass.obj
 0001:00039d80       ?should_enqueue_buffer@PtrQueue@@UAE_NXZ 0803ad80 f i thread.obj
 0001:00039d80       ?pinned@jmpLoopEndU_shortNode@@UBE_NXZ 0803ad80 f i ad_x86_32.obj
 0001:00039d80       ?is_Java_thread@JavaThread@@UBE_NXZ 0803ad80 f i jvmtiImpl.obj
 0001:00039d80       ?is_method_handles_adapter_blob@MethodHandlesAdapterBlob@@UBE_NXZ 0803ad80 f i codeBlob.obj
 0001:00039d80       ?is_c1@Compiler@@UAE_NXZ   0803ad80 f i c1_Compiler.obj
 0001:00039d80       ?is_java_object@ciInstance@@UAE_NXZ 0803ad80 f i ciObjectFactory.obj
 0001:00039d80       ?is_exception_stub@ExceptionBlob@@UBE_NXZ 0803ad80 f i codeBlob.obj
 0001:00039d80       ?pinned@GotoNode@@UBE_NXZ  0803ad80 f i block.obj
 0001:00039d80       ?needs_pll@VM_CMS_Final_Remark@@UBE?B_NXZ 0803ad80 f i concurrentMarkSweepGeneration.obj
 0001:00039d80       ?is_widen@ChangeWiden@@UAE_NXZ 0803ad80 f i relocator.obj
 0001:00039d80       ?pinned@jmpConUCFNode@@UBE_NXZ 0803ad80 f i ad_x86_32_gen.obj
 0001:00039d80       ?supports_native@AbstractCompiler@@UAE_NXZ 0803ad80 f i compileBroker.obj
 0001:00039d80       ?is_compiled_frame@compiledVFrame@@UBE_NXZ 0803ad80 f i vframe_hp.obj
 0001:00039d80       ?refs_discovery_is_atomic@Generation@@UBE_NXZ 0803ad80 f i compactingPermGenGen.obj
 0001:00039d80       ?card_mark_must_follow_store@G1CollectedHeap@@UBE_NXZ 0803ad80 f i g1CollectedHeap.obj
 0001:00039d80       ?pinned@SafePointNode@@UBE_NXZ 0803ad80 f i callGenerator.obj
 0001:00039d80       ?is_constant@ObjectConstant@@UBE_NXZ 0803ad80 f i c1_GraphBuilder.obj
 0001:00039d80       ?allow_nested_vm_operations@VM_Deoptimize@@UBE_NXZ 0803ad80 f i universe.obj
 0001:00039d80       ?is_virtual@VirtualCallGenerator@@UBE_NXZ 0803ad80 f i callGenerator.obj
 0001:00039d80       ?is_loop@CFGLoop@@UAE_NXZ  0803ad80 f i gcm.obj
 0001:00039d80       ?has_write_ref_pre_barrier@G1SATBCardTableModRefBS@@UAE_NXZ 0803ad80 f i g1SATBCardTableModRefBS.obj
 0001:00039d80       ?is_type_array@ciTypeArray@@UAE_NXZ 0803ad80 f i ciObjectFactory.obj
 0001:00039d80       ?is_exception_throw_stub@DivByZeroStub@@UBE_NXZ 0803ad80 f i c1_LIRGenerator_x86.obj
 0001:00039d80       ?pinned@HaltNode@@UBE_NXZ  0803ad80 f i rootnode.obj
 0001:00039d80       ?is_call@CallRelocation@@UAE_NXZ 0803ad80 f i compiledIC.obj
 0001:00039d80       ?singleton@TypeF@@UBE_NXZ  0803ad80 f i type.obj
 0001:00039d80       ?is_data@poll_return_Relocation@@EAE_NXZ 0803ad80 f i relocInfo.obj
 0001:00039d80       ?is_return_address@ciReturnAddress@@UAE_NXZ 0803ad80 f i ciType.obj
 0001:00039d80       ?supports_inline_contig_alloc@DefNewGeneration@@UBE_NXZ 0803ad80 f i defNewGeneration.obj
 0001:00039d80       ?depends_only_on_test@LoadKlassNode@@UBE_NXZ 0803ad80 f i memnode.obj
 0001:00039d80       ?report_init_vars@ResolveOopMapConflicts@@EBE_NXZ 0803ad80 f i rewriter.obj
 0001:00039d80       ?is_ConcurrentGC_thread@ConcurrentGCThread@@UBE_NXZ 0803ad80 f i concurrentGCThread.obj
 0001:00039d80       ?is_maximal_no_gc@DefNewGeneration@@UBE_NXZ 0803ad80 f i defNewGeneration.obj
 0001:00039d80       ?is_interpreted@InterpretedRFrame@@UBE_NXZ 0803ad80 f i rframe.obj
 0001:00039d80       ?oop_is_constMethod@constMethodKlass@@UBE_NXZ 0803ad80 f i universe.obj
 0001:00039d80       ?is_constant@AddressConstant@@UBE_NXZ 0803ad80 f i c1_GraphBuilder.obj
 0001:00039d80       ?oop_is_typeArray_slow@typeArrayKlass@@UBE_NXZ 0803ad80 f i universe.obj
 0001:00039d80       ?is_java_object@ciNullObject@@UAE_NXZ 0803ad80 f i ciObjectFactory.obj
 0001:00039d80       ?is_method_klass@ciMethodKlass@@UAE_NXZ 0803ad80 f i ciObjectFactory.obj
 0001:00039d80       ?is_CFG@HaltNode@@UBE_NXZ  0803ad80 f i rootnode.obj
 0001:00039d80       ?is_java_frame@javaVFrame@@UBE_NXZ 0803ad80 f i vframe.obj
 0001:00039d80       ?is_CFG@ReturnNode@@UBE_NXZ 0803ad80 f i callnode.obj
 0001:00039d80       ?is_constant@DoubleConstant@@UBE_NXZ 0803ad80 f i c1_Canonicalizer.obj
 0001:00039d80       ?must_be_oldest@ConcurrentMarkSweepGeneration@@UBE_NXZ 0803ad80 f i generationSpec.obj
 0001:00039d80       ?is_constant_int@ConstantIntValue@@UBE_NXZ 0803ad80 f i debugInfo.obj
 0001:00039d80       ?is_method_data@ciMethodData@@UAE_NXZ 0803ad80 f i ciMethodData.obj
 0001:00039d80       ?apply_to_weak_ref_discovered_field@FilterIntoCSClosure@@UAE_NXZ 0803ad80 f i g1RemSet.obj
 0001:00039d80       ?allow_nested_vm_operations@VM_GC_Operation@@UBE_NXZ 0803ad80 f i collectedHeap.obj
 0001:00039d80       ?is_CFG@MultiNode@@UBE_NXZ 0803ad80 f i callGenerator.obj
 0001:00039d80       ?is_instance_klass_klass@ciInstanceKlassKlass@@UAE_NXZ 0803ad80 f i ciObjectFactory.obj
 0001:00039d80       ?is_constant_double@ConstantDoubleValue@@UBE_NXZ 0803ad80 f i debugInfo.obj
 0001:00039d80       ?is_collected_pool@CollectedMemoryPool@@UAE_NXZ 0803ad80 f i g1MemoryPool.obj
 0001:00039d80       ?pinned@StartNode@@UBE_NXZ 0803ad80 f i compile.obj
 0001:00039d80       ?is_symbol@ciSymbol@@UAE_NXZ 0803ad80 f i ciSymbol.obj
 0001:00039d80       ?is_leaf_class@klassKlass@@UBE_NXZ 0803ad80 f i universe.obj
 0001:00039d80       ?oop_is_klass@instanceKlassKlass@@UBE_NXZ 0803ad80 f i universe.obj
 0001:00039d80       ?is_runtime_stub@runtimeStubNode@@UBE_NXZ 0803ad80 f i fprofiler.obj
 0001:00039d80       ?is_CFG@GotoNode@@UBE_NXZ  0803ad80 f i block.obj
 0001:00039d80       ?is_type_array_klass@ciTypeArrayKlass@@UAE_NXZ 0803ad80 f i ciTypeArrayKlass.obj
 0001:00039d80       ?pinned@SafePointScalarObjectNode@@UBE_NXZ 0803ad80 f i callnode.obj
 0001:00039d80       ?reading@ReadClosure@@UBE_NXZ 0803ad80 f i restore.obj
 0001:00039d80       ?adapter_match@adapterNode@@UBE_NXZ 0803ad80 f i fprofiler.obj
 0001:00039d80       ?depends_only_on_test@Node@@UBE_NXZ 0803ad80 f i addnode.obj
 0001:00039d80       ?getting_receiver@VM_GetReceiver@@MBE_NXZ 0803ad80 f i jvmtiImpl.obj
 0001:00039d80       ?pinned@MachNullCheckNode@@UBE_NXZ 0803ad80 f i lcm.obj
 0001:00039d80       ?depends_only_on_test@LoadPLockedNode@@UBE_NXZ 0803ad80 f i macro.obj
 0001:00039d80       ?is_Worker_thread@WorkerThread@@UBE_NXZ 0803ad80 f i workgroup.obj
 0001:00039d80       ?can_trap@Invoke@@UBE_NXZ  0803ad80 f i c1_Instruction.obj
 0001:00039d80       ?is_CFG@JProjNode@@UBE_NXZ 0803ad80 f i parse2.obj
 0001:00039d80       ?supports_osr@Compiler@@UAE_NXZ 0803ad80 f i c1_Compiler.obj
 0001:00039d80       ?can_elide_permanent_oop_store_barriers@ParallelScavengeHeap@@UBE_NXZ 0803ad80 f i universe.obj
 0001:00039d80       ?allow_nested_vm_operations@VM_RedefineClasses@@UBE_NXZ 0803ad80 f i jvmtiRedefineClasses.obj
 0001:00039d80       ?register_code_area@os@@SA_NPAD0@Z 0803ad80 f i os_windows_x86.obj
 0001:00039d80       ?is_exception_throw_stub@DeoptimizeStub@@UBE_NXZ 0803ad80 f i c1_LIRGenerator.obj
 0001:00039d80       ?oop_is_array@arrayKlass@@UBE_NXZ 0803ad80 f i universe.obj
 0001:00039d80       ?is_jump_widen@ChangeJumpWiden@@UAE_NXZ 0803ad80 f i relocator.obj
 0001:00039d80       ?oop_is_klass@klassKlass@@UBE_NXZ 0803ad80 f i universe.obj
 0001:00039d80       ?oop_is_instanceRef@instanceRefKlass@@UBE_NXZ 0803ad80 f i universe.obj
 0001:00039d80       ?is_constant_oop@ConstantOopReadValue@@UBE_NXZ 0803ad80 f i debugInfo.obj
 0001:00039d80       ?oop_is_constantPoolCache@constantPoolCacheKlass@@UBE_NXZ 0803ad80 f i universe.obj
 0001:00039d80       ?is_java_klass@ciArrayKlass@@UAE_NXZ 0803ad80 f i ciArrayKlass.obj
 0001:00039d80       ?needs_stubs@C2Compiler@@UAE_NXZ 0803ad80 f i compileBroker.obj
 0001:00039d80       ?pinned@MachReturnNode@@UBE_NXZ 0803ad80 f i ad_x86_32_gen.obj
 0001:00039d80       ?oop_is_methodData@methodDataKlass@@UBE_NXZ 0803ad80 f i universe.obj
 0001:00039d90       ?value@CallRelocation@@UAEPAEXZ 0803ad90 f i compiledIC.obj
 0001:00039da0       ?set_value@CallRelocation@@UAEXPAE@Z 0803ada0 f i compiledIC.obj
 0001:00039db0       ?opt_virtual_call_reloc@RelocIterator@@QAEPAVopt_virtual_call_Relocation@@XZ 0803adb0 f i compiledIC.obj
 0001:00039dd0       ?static_call_reloc@RelocIterator@@QAEPAVstatic_call_Relocation@@XZ 0803add0 f i compiledIC.obj
 0001:00039df0       ??0RelocIterator@@QAE@PAVnmethod@@PAE1@Z 0803adf0 f i compiledIC.obj
 0001:00039e30       ?set_data@NativeMovConstReg@@QAEXH@Z 0803ae30 f i compiledIC.obj
 0001:00039e50       ?cached_oop@CompiledIC@@QBEPAVoopDesc@@XZ 0803ae50 f   compiledIC.obj
 0001:00039e90       ?set_ic_destination@CompiledIC@@AAEXPAE@Z 0803ae90 f   compiledIC.obj
 0001:00039ed0       ?ic_destination@CompiledIC@@QBEPAEXZ 0803aed0 f   compiledIC.obj
 0001:00039f00       ?is_megamorphic@CompiledIC@@QBE_NXZ 0803af00 f   compiledIC.obj
 0001:00039f40       ?is_clean@CompiledIC@@QBE_NXZ 0803af40 f   compiledIC.obj
 0001:00039f90       ?compute_monomorphic_entry@CompiledIC@@SAXVmethodHandle@@VKlassHandle@@_N2AAVCompiledICInfo@@PAVThread@@@Z 0803af90 f   compiledIC.obj
 0001:0003a040       ??0CompiledIC@@AAE@PAVNativeCall@@@Z 0803b040 f   compiledIC.obj
 0001:0003a090       ??0CompiledIC@@AAE@PAVRelocation@@@Z 0803b090 f   compiledIC.obj
 0001:0003a0f0       ?set_to_clean@CompiledStaticCall@@QAEXXZ 0803b0f0 f   compiledIC.obj
 0001:0003a130       ?is_clean@CompiledStaticCall@@QBE_NXZ 0803b130 f   compiledIC.obj
 0001:0003a150       ?compute_entry@CompiledStaticCall@@SAXVmethodHandle@@AAVStaticCallInfo@@@Z 0803b150 f   compiledIC.obj
 0001:0003a190       ?set_stub_to_clean@CompiledStaticCall@@SAXPAVstatic_stub_Relocation@@@Z 0803b190 f   compiledIC.obj
 0001:0003a1d0       ?find_stub@CompiledStaticCall@@QAEPAEXZ 0803b1d0 f   compiledIC.obj
 0001:0003a2c0       ?set_value@DataRelocation@@UAEXPAE@Z 0803b2c0 f i compiledIC.obj
 0001:0003a300       ?value@oop_Relocation@@UAEPAEXZ 0803b300 f i compiledIC.obj
 0001:0003a310       ?oop_reloc@RelocIterator@@QAEPAVoop_Relocation@@XZ 0803b310 f i compiledIC.obj
 0001:0003a340       ?set_cached_oop@CompiledIC@@AAEXPAVoopDesc@@@Z 0803b340 f   compiledIC.obj
 0001:0003a420       ?set_to_megamorphic@CompiledIC@@QAEXPAVCallInfo@@W4Code@Bytecodes@@PAVThread@@@Z 0803b420 f   compiledIC.obj
 0001:0003a4c0       ?set_to_clean@CompiledIC@@QAEXXZ 0803b4c0 f   compiledIC.obj
 0001:0003a560       ?set_to_interpreted@CompiledStaticCall@@AAEXVmethodHandle@@PAE@Z 0803b560 f   compiledIC.obj
 0001:0003a5c0       ?set@CompiledStaticCall@@QAEXABVStaticCallInfo@@@Z 0803b5c0 f   compiledIC.obj
 0001:0003a610       ?set_to_monomorphic@CompiledIC@@QAEXABVCompiledICInfo@@@Z 0803b610 f   compiledIC.obj
 0001:0003a770       ?reverse_int@CompressedStream@@KAII@Z 0803b770 f i compressedStream.obj
 0001:0003a7e0       ?grow@CompressedWriteStream@@AAEXXZ 0803b7e0 f   compressedStream.obj
 0001:0003a820       ??0CompressedWriteStream@@QAE@H@Z 0803b820 f   compressedStream.obj
 0001:0003a860       ?read_int_mb@CompressedReadStream@@AAEHH@Z 0803b860 f   compressedStream.obj
 0001:0003a8e0       ?write_int_mb@CompressedWriteStream@@AAEXH@Z 0803b8e0 f   compressedStream.obj
 0001:0003a990       ?read_signed_int@CompressedReadStream@@QAEHXZ 0803b990 f   compressedStream.obj
 0001:0003a9c0       ?read_double@CompressedReadStream@@QAENXZ 0803b9c0 f   compressedStream.obj
 0001:0003aa40       ?read_long@CompressedReadStream@@QAE_JXZ 0803ba40 f   compressedStream.obj
 0001:0003aab0       ?write_signed_int@CompressedWriteStream@@QAEXH@Z 0803bab0 f   compressedStream.obj
 0001:0003aaf0       ?write_double@CompressedWriteStream@@QAEXN@Z 0803baf0 f   compressedStream.obj
 0001:0003ab80       ?write_long@CompressedWriteStream@@QAEX_J@Z 0803bb80 f   compressedStream.obj
 0001:0003abf0       ??0DebugInfoWriteStream@@QAE@PAVDebugInformationRecorder@@H@Z 0803bbf0 f   debugInfo.obj
 0001:0003ac10       ?write_on@ConstantOopReadValue@@UAEXPAVDebugInfoWriteStream@@@Z 0803bc10 f   debugInfo.obj
 0001:0003ac30       ?write_handle@DebugInfoWriteStream@@QAEXPAV_jobject@@@Z 0803bc30 f   debugInfo.obj
 0001:0003ac90       ?get_cached_object@DebugInfoReadStream@@QAEPAVScopeValue@@XZ 0803bc90 f   debugInfo.obj
 0001:0003acf0       ??0LocationValue@@QAE@PAVDebugInfoReadStream@@@Z 0803bcf0 f   debugInfo.obj
 0001:0003ad20       ?write_on@LocationValue@@UAEXPAVDebugInfoWriteStream@@@Z 0803bd20 f   debugInfo.obj
 0001:0003ad60       ?write_on@ObjectValue@@UAEXPAVDebugInfoWriteStream@@@Z 0803bd60 f   debugInfo.obj
 0001:0003ae60       ??0ConstantIntValue@@QAE@PAVDebugInfoReadStream@@@Z 0803be60 f   debugInfo.obj
 0001:0003ae80       ?write_on@ConstantIntValue@@UAEXPAVDebugInfoWriteStream@@@Z 0803be80 f   debugInfo.obj
 0001:0003aed0       ??0ConstantLongValue@@QAE@PAVDebugInfoReadStream@@@Z 0803bed0 f   debugInfo.obj
 0001:0003af00       ?write_on@ConstantLongValue@@UAEXPAVDebugInfoWriteStream@@@Z 0803bf00 f   debugInfo.obj
 0001:0003af40       ??0ConstantDoubleValue@@QAE@PAVDebugInfoReadStream@@@Z 0803bf40 f   debugInfo.obj
 0001:0003af60       ?write_on@ConstantDoubleValue@@UAEXPAVDebugInfoWriteStream@@@Z 0803bf60 f   debugInfo.obj
 0001:0003afa0       ?write_on@ConstantOopWriteValue@@UAEXPAVDebugInfoWriteStream@@@Z 0803bfa0 f   debugInfo.obj
 0001:0003aff0       ??0MonitorValue@@QAE@PAVScopeValue@@VLocation@@_N@Z 0803bff0 f   debugInfo.obj
 0001:0003b020       ?write_on@MonitorValue@@QAEXPAVDebugInfoWriteStream@@@Z 0803c020 f   debugInfo.obj
 0001:0003b070       ??0ConstantOopReadValue@@QAE@PAVDebugInfoReadStream@@@Z 0803c070 f   debugInfo.obj
 0001:0003b0d0       ??0ObjectValue@@QAE@H@Z    0803c0d0 f i debugInfo.obj
 0001:0003b130       ?read_object@ObjectValue@@QAEXPAVDebugInfoReadStream@@@Z 0803c130 f   debugInfo.obj
 0001:0003b1b0       ?read_object_value@DebugInfoReadStream@@QAEPAVScopeValue@@XZ 0803c1b0 f   debugInfo.obj
 0001:0003b220       ?read_from@ScopeValue@@SAPAV1@PAVDebugInfoReadStream@@@Z 0803c220 f   debugInfo.obj
 0001:0003b340       ??0MonitorValue@@QAE@PAVDebugInfoReadStream@@@Z 0803c340 f   debugInfo.obj
 0001:0003b390       ?add_new_pc_offset@DebugInformationRecorder@@AAEXH@Z 0803c390 f   debugInfoRec.obj
 0001:0003b440       ?is_same_info@PcDesc@@QAE_NPBV1@@Z 0803c440 f i debugInfoRec.obj
 0001:0003b470       ??0DIR_Chunk@@AAE@HHPAVDebugInformationRecorder@@@Z 0803c470 f i debugInfoRec.obj
 0001:0003b4c0       ?find_match@DIR_Chunk@@AAEPAV1@PAV?$GrowableArray@PAVDIR_Chunk@@@@HPAVDebugInformationRecorder@@@Z 0803c4c0 f i debugInfoRec.obj
 0001:0003b550       ?add_safepoint@DebugInformationRecorder@@QAEXHPAVOopMap@@@Z 0803c550 f   debugInfoRec.obj
 0001:0003b580       ?add_non_safepoint@DebugInformationRecorder@@QAEXH@Z 0803c580 f   debugInfoRec.obj
 0001:0003b590       ?end_scopes@DebugInformationRecorder@@AAEXH_N@Z 0803c590 f   debugInfoRec.obj
 0001:0003b650       ?data_size@DebugInformationRecorder@@QAEHXZ 0803c650 f   debugInfoRec.obj
 0001:0003b660       ?pcs_size@DebugInformationRecorder@@QAEHXZ 0803c660 f   debugInfoRec.obj
 0001:0003b6b0       ?copy_to@DebugInformationRecorder@@QAEXPAVnmethod@@@Z 0803c6b0 f   debugInfoRec.obj
 0001:0003b6e0       ??0DebugInformationRecorder@@QAE@PAVOopRecorder@@@Z 0803c6e0 f   debugInfoRec.obj
 0001:0003b830       ?find_sharable_decode_offset@DebugInformationRecorder@@AAEHH@Z 0803c830 f   debugInfoRec.obj
 0001:0003b940       ?describe_scope@DebugInformationRecorder@@QAEXHPAVciMethod@@H_N11PAVDebugToken@@22@Z 0803c940 f   debugInfoRec.obj
 0001:0003baf0       ?serialize_monitor_values@DebugInformationRecorder@@AAEHPAV?$GrowableArray@PAVMonitorValue@@@@@Z 0803caf0 f   debugInfoRec.obj
 0001:0003bb80       ?serialize_scope_values@DebugInformationRecorder@@AAEHPAV?$GrowableArray@PAVScopeValue@@@@@Z 0803cb80 f   debugInfoRec.obj
 0001:0003bc10       ?dump_object_pool@DebugInformationRecorder@@QAEXPAV?$GrowableArray@PAVScopeValue@@@@@Z 0803cc10 f   debugInfoRec.obj
 0001:0003bc80       ?create_scope_values@DebugInformationRecorder@@QAEPAVDebugToken@@PAV?$GrowableArray@PAVScopeValue@@@@@Z 0803cc80 f   debugInfoRec.obj
 0001:0003bc90       ?create_monitor_values@DebugInformationRecorder@@QAEPAVDebugToken@@PAV?$GrowableArray@PAVMonitorValue@@@@@Z 0803cc90 f   debugInfoRec.obj
 0001:0003bd60       ?ignore_witness@ClassHierarchyWalker@@QAE_NPAVklassOopDesc@@@Z 0803cd60 f i dependencies.obj
 0001:0003bda0       ?in_list@ClassHierarchyWalker@@SA_NPAVklassOopDesc@@PAPAV2@@Z 0803cda0 f i dependencies.obj
 0001:0003bdd0       ?has_finalizable_subclass@Dependencies@@SA_NPAVciInstanceKlass@@@Z 0803cdd0 f   dependencies.obj
 0001:0003bde0       ?next@DepStream@Dependencies@@QAE_NXZ 0803cde0 f   dependencies.obj
 0001:0003bec0       ?find_finalizable_subclass@Dependencies@@SAPAVKlass@@PAV2@@Z 0803cec0 f   dependencies.obj
 0001:0003bf10       ?check_evol_method@Dependencies@@SAPAVklassOopDesc@@PAVmethodOopDesc@@@Z 0803cf10 f   dependencies.obj
 0001:0003bf40       ?check_leaf_type@Dependencies@@SAPAVklassOopDesc@@PAV2@@Z 0803cf40 f   dependencies.obj
 0001:0003bf80       ?check_has_no_finalizable_subclasses@Dependencies@@SAPAVklassOopDesc@@PAV2@PAVDepChange@@@Z 0803cf80 f   dependencies.obj
 0001:0003bfb0       ?initialize@Dependencies@@AAEXPAVciEnv@@@Z 0803cfb0 f   dependencies.obj
 0001:0003c0a0       ?copy_to@Dependencies@@QAEXPAVnmethod@@@Z 0803d0a0 f   dependencies.obj
 0001:0003c100       ?sort_all_deps@Dependencies@@AAEXXZ 0803d100 f   dependencies.obj
 0001:0003c1d0       ?encode_content_bytes@Dependencies@@QAEXXZ 0803d1d0 f   dependencies.obj
 0001:0003c450       ?write_dependency_to@Dependencies@@SAXPAVCompileLog@@W4DepType@1@HQAPAVciObject@@PAVklassOopDesc@@@Z 0803d450 f   dependencies.obj
 0001:0003c5a0       ?write_dependency_to@Dependencies@@SAXPAVxmlStream@@W4DepType@1@HQAPAVoopDesc@@PAVklassOopDesc@@@Z 0803d5a0 f   dependencies.obj
 0001:0003c700       ?recorded_oop_at@DepStream@Dependencies@@AAEPAVoopDesc@@H@Z 0803d700 f i dependencies.obj
 0001:0003c740       ?argument@DepStream@Dependencies@@QAEPAVoopDesc@@H@Z 0803d740 f   dependencies.obj
 0001:0003c740       ?method_argument@DepStream@Dependencies@@QAEPAVmethodOopDesc@@H@Z 0803d740 f   dependencies.obj
 0001:0003c740       ?type_argument@DepStream@Dependencies@@QAEPAVklassOopDesc@@H@Z 0803d740 f   dependencies.obj
 0001:0003c780       ?context_type@DepStream@Dependencies@@QAEPAVklassOopDesc@@XZ 0803d780 f   dependencies.obj
 0001:0003c810       ?is_witness@ClassHierarchyWalker@@QAE_NPAVklassOopDesc@@@Z 0803d810 f i dependencies.obj
 0001:0003c880       ?find_witness_in@ClassHierarchyWalker@@AAEPAVklassOopDesc@@AAVDepChange@@PAV2@_N@Z 0803d880 f   dependencies.obj
 0001:0003c920       ?find_witness_anywhere@ClassHierarchyWalker@@AAEPAVklassOopDesc@@PAV2@_N1@Z 0803d920 f   dependencies.obj
 0001:0003cbd0       ?log_dependency@Dependencies@@QAEXW4DepType@1@PAVciObject@@11@Z 0803dbd0 f i dependencies.obj
 0001:0003cc30       ?assert_common_1@Dependencies@@AAEXW4DepType@1@PAVciObject@@@Z 0803dc30 f   dependencies.obj
 0001:0003ccc0       ?assert_common_2@Dependencies@@AAEXW4DepType@1@PAVciKlass@@PAVciObject@@@Z 0803dcc0 f   dependencies.obj
 0001:0003cdb0       ?log_all_dependencies@Dependencies@@QAEXXZ 0803ddb0 f   dependencies.obj
 0001:0003ce80       ?write_dependency_to@Dependencies@@SAXPAVCompileLog@@W4DepType@1@HQAPAVoopDesc@@PAVklassOopDesc@@@Z 0803de80 f   dependencies.obj
 0001:0003cf00       ?log_dependency@DepStream@Dependencies@@QAEXPAVklassOopDesc@@@Z 0803df00 f   dependencies.obj
 0001:0003cff0       ?find_witness_subtype@ClassHierarchyWalker@@QAEPAVklassOopDesc@@PAV2@PAVDepChange@@@Z 0803dff0 f i dependencies.obj
 0001:0003d270       ?check_abstract_with_unique_concrete_subtype@Dependencies@@SAPAVklassOopDesc@@PAV2@0PAVDepChange@@@Z 0803e270 f   dependencies.obj
 0001:0003d2c0       ?check_abstract_with_no_concrete_subtype@Dependencies@@SAPAVklassOopDesc@@PAV2@PAVDepChange@@@Z 0803e2c0 f   dependencies.obj
 0001:0003d2f0       ?check_concrete_with_no_concrete_subtype@Dependencies@@SAPAVklassOopDesc@@PAV2@PAVDepChange@@@Z 0803e2f0 f   dependencies.obj
 0001:0003d330       ?check_abstract_with_exclusive_concrete_subtypes@Dependencies@@SAPAVklassOopDesc@@PAV2@00PAVDepChange@@@Z 0803e330 f   dependencies.obj
 0001:0003d380       ?check_unique_concrete_method@Dependencies@@SAPAVklassOopDesc@@PAV2@PAVmethodOopDesc@@PAVDepChange@@@Z 0803e380 f   dependencies.obj
 0001:0003d400       ?find_unique_concrete_method@Dependencies@@SAPAVmethodOopDesc@@PAVklassOopDesc@@PAV2@@Z 0803e400 f   dependencies.obj
 0001:0003d490       ?check_exclusive_concrete_methods@Dependencies@@SAPAVklassOopDesc@@PAV2@PAVmethodOopDesc@@1PAVDepChange@@@Z 0803e490 f   dependencies.obj
 0001:0003d520       ?check_dependency_impl@DepStream@Dependencies@@AAEPAVklassOopDesc@@PAVDepChange@@@Z 0803e520 f   dependencies.obj
 0001:0003d690       ?spot_check_dependency_at@DepStream@Dependencies@@QAEPAVklassOopDesc@@AAVDepChange@@@Z 0803e690 f   dependencies.obj
 0001:0003d6d0       ?assert_evol_method@Dependencies@@QAEXPAVciMethod@@@Z 0803e6d0 f   dependencies.obj
 0001:0003d6f0       ?assert_leaf_type@Dependencies@@QAEXPAVciKlass@@@Z 0803e6f0 f   dependencies.obj
 0001:0003d730       ?assert_abstract_with_unique_concrete_subtype@Dependencies@@QAEXPAVciKlass@@0@Z 0803e730 f   dependencies.obj
 0001:0003d750       ?assert_unique_concrete_method@Dependencies@@QAEXPAVciKlass@@PAVciMethod@@@Z 0803e750 f   dependencies.obj
 0001:0003d770       ?assert_has_no_finalizable_subclasses@Dependencies@@QAEXPAVciKlass@@@Z 0803e770 f   dependencies.obj
 0001:0003d790       ?next@ContextStream@DepChange@@QAE_NXZ 0803e790 f   dependencies.obj
 0001:0003d840       ?initialize@DepChange@@AAEXXZ 0803e840 f   dependencies.obj
 0001:0003d8a0       ??1DepChange@@QAE@XZ       0803e8a0 f   dependencies.obj
 0001:0003d900       ?set_size@ImplicitExceptionTable@@QAEXI@Z 0803e900 f   exceptionHandlerTable.obj
 0001:0003d930       ?add_entry@ExceptionHandlerTable@@AAEXVHandlerTableEntry@@@Z 0803e930 f   exceptionHandlerTable.obj
 0001:0003d9b0       ?subtable_for@ExceptionHandlerTable@@ABEPAVHandlerTableEntry@@H@Z 0803e9b0 f   exceptionHandlerTable.obj
 0001:0003d9f0       ??0ExceptionHandlerTable@@QAE@H@Z 0803e9f0 f   exceptionHandlerTable.obj
 0001:0003da40       ??0ExceptionHandlerTable@@QAE@PBVnmethod@@@Z 0803ea40 f   exceptionHandlerTable.obj
 0001:0003da80       ?add_subtable@ExceptionHandlerTable@@QAEXHPAV?$GrowableArray@H@@00@Z 0803ea80 f   exceptionHandlerTable.obj
 0001:0003db00       ?copy_to@ExceptionHandlerTable@@QAEXPAVnmethod@@@Z 0803eb00 f   exceptionHandlerTable.obj
 0001:0003db30       ?entry_for@ExceptionHandlerTable@@QBEPAVHandlerTableEntry@@HHH@Z 0803eb30 f   exceptionHandlerTable.obj
 0001:0003db70       ?print_subtable@ExceptionHandlerTable@@QBEXPAVHandlerTableEntry@@@Z 0803eb70 f   exceptionHandlerTable.obj
 0001:0003dbd0       ?print@ExceptionHandlerTable@@QBEXXZ 0803ebd0 f   exceptionHandlerTable.obj
 0001:0003dc30       ?append@ImplicitExceptionTable@@QAEXII@Z 0803ec30 f   exceptionHandlerTable.obj
 0001:0003dc90       ?at@ImplicitExceptionTable@@QBEII@Z 0803ec90 f   exceptionHandlerTable.obj
 0001:0003dcd0       ??0ImplicitExceptionTable@@QAE@PBVnmethod@@@Z 0803ecd0 f   exceptionHandlerTable.obj
 0001:0003dd20       ?copy_to@ImplicitExceptionTable@@QAEXPAVnmethod@@@Z 0803ed20 f   exceptionHandlerTable.obj
 0001:0003dd60       ?clear@ICStub@@QAEXXZ      0803ed60 f   icBuffer.obj
 0001:0003dd70       ?evaluate_at_safepoint@VM_Operation@@UBE_NXZ 0803ed70 f i icBuffer.obj
 0001:0003dda0       ?evaluate_concurrently@VM_Operation@@UBE_NXZ 0803eda0 f i icBuffer.obj
 0001:0003ddd0       ?CompiledIC_at@@YAPAVCompiledIC@@PAE@Z 0803edd0 f i icBuffer.obj
 0001:0003de00       ?initialize@ICStubInterface@@UAEXPAVStub@@H@Z 0803ee00 f i icBuffer.obj
 0001:0003de20       ?size@InterpreterCodeletInterface@@UBEHPAVStub@@@Z 0803ee20 f i templateInterpreter.obj
 0001:0003de20       ?size@ICStubInterface@@UBEHPAVStub@@@Z 0803ee20 f i icBuffer.obj
 0001:0003de30       ?code_end@ICStubInterface@@UBEPAEPAVStub@@@Z 0803ee30 f i icBuffer.obj
 0001:0003de30       ?code_end@InterpreterCodeletInterface@@UBEPAEPAVStub@@@Z 0803ee30 f i templateInterpreter.obj
 0001:0003de40       ?code_size_to_size@InterpreterCodeletInterface@@UBEHH@Z 0803ee40 f i templateInterpreter.obj
 0001:0003de40       ?code_begin@ICStubInterface@@UBEPAEPAVStub@@@Z 0803ee40 f i icBuffer.obj
 0001:0003de40       ?code_begin@InterpreterCodeletInterface@@UBEPAEPAVStub@@@Z 0803ee40 f i templateInterpreter.obj
 0001:0003de40       ?code_size_to_size@ICStubInterface@@UBEHH@Z 0803ee40 f i icBuffer.obj
 0001:0003de50       ?update_inline_caches@InlineCacheBuffer@@SAXXZ 0803ee50 f   icBuffer.obj
 0001:0003de80       ?contains@InlineCacheBuffer@@SA_NPAE@Z 0803ee80 f   icBuffer.obj
 0001:0003deb0       ?is_empty@InlineCacheBuffer@@SA_NXZ 0803eeb0 f   icBuffer.obj
 0001:0003ded0       ?ic_destination_for@InlineCacheBuffer@@SAPAEPAVCompiledIC@@@Z 0803eed0 f   icBuffer.obj
 0001:0003def0       ?cached_oop_for@InlineCacheBuffer@@SAPAVoopDesc@@PAVCompiledIC@@@Z 0803eef0 f   icBuffer.obj
 0001:0003df10       ?finalize@ICStub@@IAEXXZ   0803ef10 f   icBuffer.obj
 0001:0003dfc0       ?initialize@InlineCacheBuffer@@SAXXZ 0803efc0 f   icBuffer.obj
 0001:0003e030       ?new_ic_stub@InlineCacheBuffer@@CAPAVICStub@@XZ 0803f030 f   icBuffer.obj
 0001:0003e0e0       ?InlineCacheBuffer_init@@YAXXZ 0803f0e0 f   icBuffer.obj
 0001:0003e0f0       ?create_transition_stub@InlineCacheBuffer@@SAXPAVCompiledIC@@PAVoopDesc@@PAE@Z 0803f0f0 f   icBuffer.obj
 0001:0003e150       ?finalize@ICStubInterface@@UAEXPAVStub@@@Z 0803f150 f i icBuffer.obj
 0001:0003e160       ?legal_offset_in_bytes@Location@@SA_NH@Z 0803f160 f   location.obj
 0001:0003e190       ??0Location@@QAE@PAVDebugInfoReadStream@@@Z 0803f190 f   location.obj
 0001:0003e1c0       ?write_on@Location@@QAEXPAVDebugInfoWriteStream@@@Z 0803f1c0 f   location.obj
 0001:0003e1f0       ?init_defaults@nmethod@@AAEXXZ 0803f1f0 f   nmethod.obj
 0001:0003e250       ?do_oop_v@OopClosure@@UAEXPAPAVoopDesc@@@Z 0803f250 f i nmethod.obj
 0001:0003e260       ?do_oop_v@OopClosure@@UAEXPAI@Z 0803f260 f i nmethod.obj
 0001:0003e270       ?inc@Atomic@@SAXPCH@Z      0803f270 f i nmethod.obj
 0001:0003e2a0       ??0Bytecode_member_ref@@IAE@VmethodHandle@@H@Z 0803f2a0 f i nmethod.obj
 0001:0003e300       ??0Bytecode_invoke@@QAE@VmethodHandle@@H@Z 0803f300 f i nmethod.obj
 0001:0003e300       ??0Bytecode_field@@QAE@VmethodHandle@@H@Z 0803f300 f i nmethod.obj
 0001:0003e330       ?is_compiled_by_c1@nmethod@@UBE_NXZ 0803f330 f   nmethod.obj
 0001:0003e360       ?is_compiled_by_c2@nmethod@@UBE_NXZ 0803f360 f   nmethod.obj
 0001:0003e390       ?add_address_and_handler@ExceptionCache@@QAE_NPAE0@Z 0803f390 f   nmethod.obj
 0001:0003e400       ?find_pc_desc@PcDescCache@@QAEPAVPcDesc@@H_N@Z 0803f400 f   nmethod.obj
 0001:0003e480       ?remove_from_exception_cache@nmethod@@QAEXPAVExceptionCache@@@Z 0803f480 f   nmethod.obj
 0001:0003e4e0       ?total_size@nmethod@@QBEHXZ 0803f4e0 f   nmethod.obj
 0001:0003e500       ?log_identity@nmethod@@QBEXPAVxmlStream@@@Z 0803f500 f   nmethod.obj
 0001:0003e5a0       ?is_at_poll_return@nmethod@@QAE_NPAE@Z 0803f5a0 f   nmethod.obj
 0001:0003e660       ?clear_inline_caches@nmethod@@QAEXXZ 0803f660 f   nmethod.obj
 0001:0003e6c0       ?mark_as_seen_on_stack@nmethod@@QAEXXZ 0803f6c0 f   nmethod.obj
 0001:0003e6d0       ?can_not_entrant_be_converted@nmethod@@QAE_NXZ 0803f6d0 f   nmethod.obj
 0001:0003e6f0       ?inc_decompile_count@nmethod@@AAEXXZ 0803f6f0 f   nmethod.obj
 0001:0003e730       ?flush@nmethod@@IAEXXZ     0803f730 f   nmethod.obj
 0001:0003e7a0       ?flush_dependencies@nmethod@@QAEXPAVBoolObjectClosure@@@Z 0803f7a0 f   nmethod.obj
 0001:0003e820       ?test_set_oops_do_mark@nmethod@@QAE_NXZ 0803f820 f   nmethod.obj
 0001:0003e8b0       ?oops_do_marking_prologue@nmethod@@SAXXZ 0803f8b0 f   nmethod.obj
 0001:0003e910       ?oops_do_marking_epilogue@nmethod@@SAXXZ 0803f910 f   nmethod.obj
 0001:0003e990       ?do_oop@DetectScavengeRoot@@UAEXPAI@Z 0803f990 f i nmethod.obj
 0001:0003e9b0       ?do_oop@DetectScavengeRoot@@UAEXPAPAVoopDesc@@@Z 0803f9b0 f i nmethod.obj
 0001:0003e9e0       ?copy_scopes_pcs@nmethod@@QAEXPAVPcDesc@@H@Z 0803f9e0 f   nmethod.obj
 0001:0003ea90       ?copy_scopes_data@nmethod@@QAEXPAEH@Z 0803fa90 f   nmethod.obj
 0001:0003eac0       ?find_pc_desc_internal@nmethod@@AAEPAVPcDesc@@PAE_N@Z 0803fac0 f   nmethod.obj
 0001:0003ebc0       ?check_dependency_on@nmethod@@QAE_NAAVDepChange@@@Z 0803fbc0 f   nmethod.obj
 0001:0003ec30       ?is_dependent_on_method@nmethod@@QAE_NPAVmethodOopDesc@@@Z 0803fc30 f   nmethod.obj
 0001:0003eca0       ?continuation_for_implicit_exception@nmethod@@QAEPAEPAE@Z 0803fca0 f   nmethod.obj
 0001:0003ece0       ?lock_nmethod@nmethodLocker@@CAXPAVnmethod@@@Z 0803fce0 f   nmethod.obj
 0001:0003ed40       ?unlock_nmethod@nmethodLocker@@CAXPAVnmethod@@@Z 0803fd40 f   nmethod.obj
 0001:0003eda0       ?do_oop@VerifyOopsClosure@@UAEXPAI@Z 0803fda0 f i nmethod.obj
 0001:0003edc0       ?java_code_at@methodOopDesc@@QBE?AW4Code@Bytecodes@@H@Z 0803fdc0 f i nmethod.obj
 0001:0003ee00       ?is_compiledICHolder@oopDesc@@QBE_NXZ 0803fe00 f i nmethod.obj
 0001:0003ee10       ??0SimpleScopeDesc@@QAE@PAVnmethod@@PAE@Z 0803fe10 f i nmethod.obj
 0001:0003eee0       ?exception_cache_entry_for_exception@nmethod@@AAEPAVExceptionCache@@VHandle@@@Z 0803fee0 f   nmethod.obj
 0001:0003ef20       ?handler_for_exception_and_pc@nmethod@@QAEPAEVHandle@@PAE@Z 0803ff20 f   nmethod.obj
 0001:0003ef80       ?add_handler_for_exception_and_pc@nmethod@@QAEXVHandle@@PAE1@Z 0803ff80 f   nmethod.obj
 0001:0003f020       ?print_compilation@nmethod@@SAXPAVoutputStream@@PBD1PAVmethodOopDesc@@_NHHH@Z 08040020 f   nmethod.obj
 0001:0003f1e0       ?print_on@nmethod@@QBEXPAVoutputStream@@PBD@Z 080401e0 f   nmethod.obj
 0001:0003f240       ?fix_oop_relocations@nmethod@@AAEXPAE0_N@Z 08040240 f   nmethod.obj
 0001:0003f350       ?scope_desc_at@nmethod@@QAEPAVScopeDesc@@PAE@Z 08040350 f   nmethod.obj
 0001:0003f3f0       ?cleanup_inline_caches@nmethod@@QAEXXZ 080403f0 f   nmethod.obj
 0001:0003f600       ?log_state_change@nmethod@@QBEXXZ 08040600 f   nmethod.obj
 0001:0003f6e0       ?post_compiled_method_unload@nmethod@@AAEXXZ 080406e0 f   nmethod.obj
 0001:0003f740       ?oops_do@nmethod@@QAEXPAVOopClosure@@_N@Z 08040740 f   nmethod.obj
 0001:0003f8b0       ?embeddedOop_at@nmethod@@QAEPAVoopDesc@@PAE@Z 080408b0 f   nmethod.obj
 0001:0003f990       ??0nmethodLocker@@QAE@PAE@Z 08040990 f   nmethod.obj
 0001:0003f9f0       ?get_deopt_original_pc@nmethod@@SAPAEPBVframe@@@Z 080409f0 f   nmethod.obj
 0001:0003fa40       ?is_method_handle_return@nmethod@@QAE_NPAE@Z 08040a40 f   nmethod.obj
 0001:0003fa90       ?verify_interrupt_point@nmethod@@QAEXPAE@Z 08040a90 f   nmethod.obj
 0001:0003fbd0       ?verify_scopes@nmethod@@QAEXXZ 08040bd0 f   nmethod.obj
 0001:0003fcc0       ?print@nmethod@@QBEXXZ     08040cc0 f   nmethod.obj
 0001:00040010       ?print_code@nmethod@@QAEXXZ 08041010 f   nmethod.obj
 0001:00040090       ?reloc_string_for@nmethod@@AAEPBDPAE0@Z 08041090 f   nmethod.obj
 0001:000402c0       ?scope_desc_in@nmethod@@AAEPAVScopeDesc@@PAE0@Z 080412c0 f   nmethod.obj
 0001:00040350       ?print_code_comment_on@nmethod@@QAEXPAVoutputStream@@HPAE1@Z 08041350 f   nmethod.obj
 0001:000405f0       ?jmethod_id@methodOopDesc@@QAEPAU_jmethodID@@XZ 080415f0 f i nmethod.obj
 0001:00040620       ??0nmethod@@AAE@PAVmethodOopDesc@@HPAVCodeOffsets@@PAVCodeBuffer@@HHHPAVOopMapSet@@@Z 08041620 f   nmethod.obj
 0001:000407e0       ?is_alive@nmethod@@UBE_NXZ 080417e0 f i nmethod.obj
 0001:00040800       ?is_not_entrant@nmethod@@UBE_NXZ 08041800 f i nmethod.obj
 0001:00040810       ?is_zombie@nmethod@@UBE_NXZ 08041810 f i nmethod.obj
 0001:00040820       ?is_unloaded@nmethod@@UBE_NXZ 08041820 f i nmethod.obj
 0001:00040830       ?is_locked_by_vm@nmethod@@UBE_NXZ 08041830 f i nmethod.obj
 0001:00040840       ?print_on@nmethod@@UBEXPAVoutputStream@@@Z 08041840 f i nmethod.obj
 0001:00040850       ?log_new_nmethod@nmethod@@QBEXXZ 08041850 f   nmethod.obj
 0001:00040a70       ?print_nmethod@nmethod@@QAEX_N@Z 08041a70 f   nmethod.obj
 0001:00040b00       ?copy_oops@nmethod@@QAEXPAV?$GrowableArray@PAV_jobject@@@@@Z 08041b00 f   nmethod.obj
 0001:00040b60       ?make_unloaded@nmethod@@QAEXPAVBoolObjectClosure@@PAVoopDesc@@@Z 08041b60 f   nmethod.obj
 0001:00040bf0       ?make_not_entrant_or_zombie@nmethod@@AAE_NI@Z 08041bf0 f   nmethod.obj
 0001:00040d80       ?can_unload@nmethod@@QAE_NPAVBoolObjectClosure@@PAVOopClosure@@PAPAVoopDesc@@_N@Z 08041d80 f   nmethod.obj
 0001:00040e00       ?get_and_cache_jmethod_id@nmethod@@QAEPAU_jmethodID@@XZ 08041e00 f   nmethod.obj
 0001:00040e50       ?do_unloading@nmethod@@QAEXPAVBoolObjectClosure@@PAVOopClosure@@_N@Z 08041e50 f   nmethod.obj
 0001:000410b0       ?detect_scavenge_root_oops@nmethod@@QAE_NXZ 080420b0 f   nmethod.obj
 0001:000410e0       ?preserve_callee_argument_oops@nmethod@@UAEXVframe@@PBVRegisterMap@@PAVOopClosure@@@Z 080420e0 f   nmethod.obj
 0001:00041170       ?do_oop@VerifyOopsClosure@@UAEXPAPAVoopDesc@@@Z 08042170 f i nmethod.obj
 0001:000411d0       ?verify@nmethod@@UAEXXZ    080421d0 f   nmethod.obj
 0001:00041360       ?print_nmethod_labels@nmethod@@QAEXPAVoutputStream@@PAE@Z 08042360 f   nmethod.obj
 0001:00041800       ?print_block_comment@nmethod@@UAEXPAVoutputStream@@PAE@Z 08042800 f i nmethod.obj
 0001:00041810       ?new_native_nmethod@nmethod@@SAPAV1@VmethodHandle@@PAVCodeBuffer@@HHHHHPAVOopMapSet@@@Z 08042810 f   nmethod.obj
 0001:00041900       ??0nmethod@@AAE@PAVmethodOopDesc@@HHHPAVCodeOffsets@@HPAVDebugInformationRecorder@@PAVDependencies@@PAVCodeBuffer@@HPAVOopMapSet@@PAVExceptionHandlerTable@@PAVImplicitExceptionTable@@PAVAbstractCompiler@@H@Z 08042900 f   nmethod.obj
 0001:00041bc0       ?post_compiled_method_load_event@nmethod@@QAEXXZ 08042bc0 f   nmethod.obj
 0001:00041c30       ?new_nmethod@nmethod@@SAPAV1@VmethodHandle@@HHPAVCodeOffsets@@HPAVDebugInformationRecorder@@PAVDependencies@@PAVCodeBuffer@@HPAVOopMapSet@@PAVExceptionHandlerTable@@PAVImplicitExceptionTable@@PAVAbstractCompiler@@H@Z 08042c30 f   nmethod.obj
 0001:00041df0       ?is_evol_dependent_on@nmethod@@QAE_NPAVklassOopDesc@@@Z 08042df0 f   nmethod.obj
 0001:00041f90       ??0OopRecorder@@QAE@PAVArena@@@Z 08042f90 f   oopRecorder.obj
 0001:00041fb0       ?oop_size@OopRecorder@@QAEHXZ 08042fb0 f   oopRecorder.obj
 0001:00041fd0       ?handle_at@OopRecorder@@QAEPAV_jobject@@H@Z 08042fd0 f   oopRecorder.obj
 0001:00041ff0       ??0?$GrowableArray@PAVJsrRecord@ciTypeFlow@@@@QAE@HHABQAVJsrRecord@ciTypeFlow@@_N@Z 08042ff0 f i ciTypeFlow.obj
 0001:00041ff0       ??0?$GrowableArray@PAV_jobject@@@@QAE@HHABQAV_jobject@@_N@Z 08042ff0 f i oopRecorder.obj
 0001:00041ff0       ??0?$GrowableArray@H@@QAE@HHABH_N@Z 08042ff0 f i oopRecorder.obj
 0001:00041ff0       ??0?$GrowableArray@VHandle@@@@QAE@HHABVHandle@@_N@Z 08042ff0 f i unsafe.obj
 0001:00042060       ?maybe_initialize@OopRecorder@@AAEXXZ 08043060 f   oopRecorder.obj
 0001:00042130       ?maybe_find_index@OopRecorder@@QAEHPAV_jobject@@@Z 08043130 f   oopRecorder.obj
 0001:00042230       ?copy_to@OopRecorder@@QAEXPAVnmethod@@@Z 08043230 f   oopRecorder.obj
 0001:00042250       ?add_handle@OopRecorder@@AAEHPAV_jobject@@_N@Z 08043250 f   oopRecorder.obj
 0001:000423b0       ??0PcDesc@@QAE@HHH@Z       080433b0 f   pcDesc.obj
 0001:000423e0       ?real_pc@PcDesc@@QBEPAEPBVnmethod@@@Z 080433e0 f   pcDesc.obj
 0001:00042400       ?value@Relocation@@UAEPAEXZ 08043400 f   relocInfo.obj
 0001:00042420       ?set_value@Relocation@@UAEXPAE@Z 08043420 f   relocInfo.obj
 0001:00042440       ?set_destination@CallRelocation@@QAEXPAE@Z 08043440 f   relocInfo.obj
 0001:00042450       ?clear_inline_cache@static_stub_Relocation@@UAEXXZ 08043450 f   relocInfo.obj
 0001:00042460       ?fix_relocation_after_move@external_word_Relocation@@UAEXPBVCodeBuffer@@PAV2@@Z 08043460 f   relocInfo.obj
 0001:00042470       ?pack_2_ints_to@Relocation@@IAEPAFPAFHH@Z 08043470 f i relocInfo.obj
 0001:000424e0       ?value@internal_word_Relocation@@UAEPAEXZ 080434e0 f i relocInfo.obj
 0001:000424e0       ?value@external_word_Relocation@@UAEPAEXZ 080434e0 f i relocInfo.obj
 0001:000424f0       ?runtime_call_reloc@RelocIterator@@QAEPAVruntime_call_Relocation@@XZ 080434f0 f i relocInfo.obj
 0001:00042510       ?finish_prefix@relocInfo@@QAEPAV1@PAF@Z 08043510 f   relocInfo.obj
 0001:00042570       ?addr_in_const@RelocIterator@@QBE_NXZ 08043570 f   relocInfo.obj
 0001:00042590       ?advance_over_prefix@RelocIterator@@AAEXXZ 08043590 f   relocInfo.obj
 0001:000425e0       ?new_addr_for@Relocation@@IAEPAEPAEPBVCodeBuffer@@PAV2@@Z 080435e0 f   relocInfo.obj
 0001:00042650       ?fix_relocation_after_move@CallRelocation@@UAEXPBVCodeBuffer@@PAV2@@Z 08043650 f   relocInfo.obj
 0001:000426c0       ?pack_data_to@oop_Relocation@@UAEXPAVCodeSection@@@Z 080436c0 f   relocInfo.obj
 0001:000426e0       ?pack_data_to@virtual_call_Relocation@@UAEXPAVCodeSection@@@Z 080436e0 f   relocInfo.obj
 0001:00042780       ?pack_data_to@static_stub_Relocation@@UAEXPAVCodeSection@@@Z 08043780 f   relocInfo.obj
 0001:000427f0       ?pack_data_to@external_word_Relocation@@UAEXPAVCodeSection@@@Z 080437f0 f   relocInfo.obj
 0001:00042860       ?pack_data_to@internal_word_Relocation@@UAEXPAVCodeSection@@@Z 08043860 f   relocInfo.obj
 0001:000429f0       ?oop_addr@oop_Relocation@@QAEPAPAVoopDesc@@XZ 080439f0 f   relocInfo.obj
 0001:00042a10       ?oop_value@oop_Relocation@@QAEPAVoopDesc@@XZ 08043a10 f   relocInfo.obj
 0001:00042a50       ?fix_oop_relocation@oop_Relocation@@QAEXXZ 08043a50 f   relocInfo.obj
 0001:00042a70       ?clear_inline_cache@static_call_Relocation@@UAEXXZ 08043a70 f   relocInfo.obj
 0001:00042a80       ?unpack_2_ints@Relocation@@IAEXAAH0@Z 08043a80 f i relocInfo.obj
 0001:00042b10       ?poll_reloc@RelocIterator@@QAEPAVpoll_Relocation@@XZ 08043b10 f i relocInfo.obj
 0001:00042b30       ?poll_return_reloc@RelocIterator@@QAEPAVpoll_return_Relocation@@XZ 08043b30 f i relocInfo.obj
 0001:00042b50       ?initialize@relocInfo@@QAEXPAVCodeSection@@PAVRelocation@@@Z 08043b50 f   relocInfo.obj
 0001:00042b90       ?change_reloc_info_for_address@relocInfo@@SAXPAVRelocIterator@@PAEW4relocType@1@2@Z 08043b90 f   relocInfo.obj
 0001:00042c90       ?create_index@RelocIterator@@SAXPAVrelocInfo@@H0@Z 08043c90 f   relocInfo.obj
 0001:00042cc0       ?set_limits@RelocIterator@@AAEXPAE0@Z 08043cc0 f   relocInfo.obj
 0001:00042db0       ?unpack_data@oop_Relocation@@UAEXXZ 08043db0 f   relocInfo.obj
 0001:00042dc0       ?unpack_data@virtual_call_Relocation@@UAEXXZ 08043dc0 f   relocInfo.obj
 0001:00042e10       ?unpack_data@static_stub_Relocation@@UAEXXZ 08043e10 f   relocInfo.obj
 0001:00042e50       ?unpack_data@external_word_Relocation@@UAEXXZ 08043e50 f   relocInfo.obj
 0001:00042eb0       ?unpack_data@internal_word_Relocation@@UAEXXZ 08043eb0 f   relocInfo.obj
 0001:00042f00       ?unpack_data@section_word_Relocation@@UAEXXZ 08043f00 f   relocInfo.obj
 0001:00042f40       ?pack_data_to@breakpoint_Relocation@@UAEXPAVCodeSection@@@Z 08043f40 f   relocInfo.obj
 0001:00043020       ?unpack_data@breakpoint_Relocation@@UAEXXZ 08044020 f   relocInfo.obj
 0001:000430e0       ?clear_inline_cache@virtual_call_Relocation@@UAEXXZ 080440e0 f   relocInfo.obj
 0001:000430e0       ?clear_inline_cache@opt_virtual_call_Relocation@@UAEXXZ 080440e0 f   relocInfo.obj
 0001:00043150       ?fix_relocation_after_move@internal_word_Relocation@@UAEXPBVCodeBuffer@@PAV2@@Z 08044150 f   relocInfo.obj
 0001:000431a0       ?virtual_call_reloc@RelocIterator@@QAEPAVvirtual_call_Relocation@@XZ 080441a0 f i relocInfo.obj
 0001:00043210       ?static_stub_reloc@RelocIterator@@QAEPAVstatic_stub_Relocation@@XZ 08044210 f i relocInfo.obj
 0001:00043270       ?external_word_reloc@RelocIterator@@QAEPAVexternal_word_Relocation@@XZ 08044270 f i relocInfo.obj
 0001:000432a0       ?internal_word_reloc@RelocIterator@@QAEPAVinternal_word_Relocation@@XZ 080442a0 f i relocInfo.obj
 0001:00043300       ?breakpoint_reloc@RelocIterator@@QAEPAVbreakpoint_Relocation@@XZ 08044300 f i relocInfo.obj
 0001:00043330       ?section_word_reloc@RelocIterator@@QAEPAVsection_word_Relocation@@XZ 08044330 f i relocInfo.obj
 0001:00043390       ?initialize@RelocIterator@@AAEXPAVnmethod@@PAE1@Z 08044390 f   relocInfo.obj
 0001:00043440       ??0RelocIterator@@QAE@PAVCodeSection@@PAE1@Z 08044440 f   relocInfo.obj
 0001:000434d0       ?reloc@RelocIterator@@QAEPAVRelocation@@XZ 080444d0 f   relocInfo.obj
 0001:000435a0       ?spec_simple@Relocation@@SA?AVRelocationHolder@@W4relocType@relocInfo@@@Z 080445a0 f   relocInfo.obj
 0001:00043640       ?parse_ic@virtual_call_Relocation@@SA?AVRelocIterator@@AAPAVnmethod@@AAPAE1AAPAPAVoopDesc@@PA_N@Z 08044640 f   relocInfo.obj
 0001:00043b00       ?static_stub@opt_virtual_call_Relocation@@QAEPAEXZ 08044b00 f   relocInfo.obj
 0001:00043b00       ?static_stub@static_call_Relocation@@QAEPAEXZ 08044b00 f   relocInfo.obj
 0001:00043c40       ?is_top@ScopeDesc@@QBE_NXZ 08044c40 f   scopeDesc.obj
 0001:00043c50       ?decode_object_values@ScopeDesc@@AAEPAV?$GrowableArray@PAVScopeValue@@@@H@Z 08044c50 f   scopeDesc.obj
 0001:00043cf0       ?decode_body@ScopeDesc@@AAEXXZ 08044cf0 f   scopeDesc.obj
 0001:00043e50       ??0ScopeDesc@@QAE@PBVnmethod@@HH_N1@Z 08044e50 f   scopeDesc.obj
 0001:00043e90       ??0ScopeDesc@@QAE@PBVnmethod@@H_N1@Z 08044e90 f   scopeDesc.obj
 0001:00043ed0       ?decode_scope_values@ScopeDesc@@AAEPAV?$GrowableArray@PAVScopeValue@@@@H@Z 08044ed0 f   scopeDesc.obj
 0001:00043f90       ?decode_monitor_values@ScopeDesc@@AAEPAV?$GrowableArray@PAVMonitorValue@@@@H@Z 08044f90 f   scopeDesc.obj
 0001:00044060       ?locals@ScopeDesc@@QAEPAV?$GrowableArray@PAVScopeValue@@@@XZ 08045060 f   scopeDesc.obj
 0001:00044070       ?expressions@ScopeDesc@@QAEPAV?$GrowableArray@PAVScopeValue@@@@XZ 08045070 f   scopeDesc.obj
 0001:00044080       ?monitors@ScopeDesc@@QAEPAV?$GrowableArray@PAVMonitorValue@@@@XZ 08045080 f   scopeDesc.obj
 0001:00044090       ?sender@ScopeDesc@@QBEPAV1@XZ 08045090 f   scopeDesc.obj
 0001:000440e0       ?verify@ScopeDesc@@QAEXXZ  080450e0 f   scopeDesc.obj
 0001:00044170       ?stub_containing@StubQueue@@QBEPAVStub@@PAE@Z 08045170 f   stubs.obj
 0001:00044200       ?request@StubQueue@@QAEPAVStub@@H@Z 08045200 f   stubs.obj
 0001:000442b0       ?commit@StubQueue@@QAEXH@Z 080452b0 f   stubs.obj
 0001:00044300       ?remove_first@StubQueue@@QAEXXZ 08045300 f   stubs.obj
 0001:00044370       ?remove_all@StubQueue@@QAEXXZ 08045370 f   stubs.obj
 0001:00044390       ?print@StubQueue@@QAEXXZ   08045390 f   stubs.obj
 0001:00044410       ??0StubQueue@@QAE@PAVStubInterface@@HPAVMutex@@PBD@Z 08045410 f   stubs.obj
 0001:000444e0       ?request_committed@StubQueue@@QAEPAVStub@@H@Z 080454e0 f   stubs.obj
 0001:00044510       ?print_on@VMRegImpl@@QBEXPAVoutputStream@@@Z 08045510 f   vmreg.obj
 0001:00044580       ?print_on@VtableStub@@QBEXPAVoutputStream@@@Z 08045580 f   vtableStubs.obj
 0001:000445c0       ?stub_containing@VtableStubs@@SAPAVVtableStub@@PAE@Z 080455c0 f   vtableStubs.obj
 0001:00044620       ??2VtableStub@@CAPAXIH@Z   08045620 f   vtableStubs.obj
 0001:00044740       ?lookup@VtableStubs@@CAPAVVtableStub@@_NH@Z 08045740 f   vtableStubs.obj
 0001:000447a0       ?enter@VtableStubs@@CAX_NHPAVVtableStub@@@Z 080457a0 f   vtableStubs.obj
 0001:00044800       ?is_entry_point@VtableStubs@@SA_NPAE@Z 08045800 f   vtableStubs.obj
 0001:00044870       ?contains@VtableStubs@@SA_NPAE@Z 08045870 f   vtableStubs.obj
 0001:00044890       ?vtableStubs_init@@YAXXZ   08045890 f   vtableStubs.obj
 0001:000448c0       ?create_stub@VtableStubs@@SAPAE_NHPAVmethodOopDesc@@@Z 080458c0 f   vtableStubs.obj
 0001:00044960       ?initialize_runtimes@AbstractCompiler@@IAEXP6AXXZPCH@Z 08045960 f   abstractCompiler.obj
 0001:00044a30       ?compile_method@AbstractCompiler@@UAEXPAVciEnv@@PAVciMethod@@H@Z 08045a30 f i compileBroker.obj
 0001:00044a50       ?print_timers@AbstractCompiler@@UAEXXZ 08045a50 f i compileBroker.obj
 0001:00044a70       ?should_compile_new_jobs@CompileBroker@@SA_NXZ 08045a70 f i compileBroker.obj
 0001:00044a90       ?name@C2Compiler@@UAEPBDXZ 08045a90 f i compileBroker.obj
 0001:00044aa0       ?set_should_block@CompileBroker@@SAXXZ 08045aa0 f   compileBroker.obj
 0001:00044ab0       ?handle_full_code_cache@CompileBroker@@SAXXZ 08045ab0 f   compileBroker.obj
 0001:00044b30       ?create_constant@PerfDataManager@@SAPAVPerfLongConstant@@W4CounterNS@@PBDW4Units@PerfData@@_JPAVThread@@@Z 08045b30 f i compileBroker.obj
 0001:00044b60       ?create_variable@PerfDataManager@@SAPAVPerfLongVariable@@W4CounterNS@@PBDW4Units@PerfData@@_JPAVThread@@@Z 08045b60 f i compileBroker.obj
 0001:00044b90       ?lookup_osr_nmethod_for@methodOopDesc@@QAEPAVnmethod@@HH_N@Z 08045b90 f i compileBroker.obj
 0001:00044bc0       ?needs_flushing@CodeCache@@SA_NXZ 08045bc0 f i compileBroker.obj
 0001:00044bf0       ?compiler@CompileBroker@@SAPAVAbstractCompiler@@H@Z 08045bf0 f i compileBroker.obj
 0001:00044c20       ?initialize@CompileTask@@QAEXHVmethodHandle@@HH0HPBD_N@Z 08045c20 f   compileBroker.obj
 0001:00044cd0       ?set_code@CompileTask@@QAEXPAVnmethod@@@Z 08045cd0 f   compileBroker.obj
 0001:00044d30       ?free@CompileTask@@QAEXXZ  08045d30 f   compileBroker.obj
 0001:00044d80       ?print_line_on_error@CompileTask@@QAEXPAVoutputStream@@PADH@Z 08045d80 f   compileBroker.obj
 0001:00044e10       ?get@CompileQueue@@QAEPAVCompileTask@@XZ 08045e10 f   compileBroker.obj
 0001:00044f20       ?compilation_is_complete@CompileBroker@@CA_NVmethodHandle@@HH@Z 08045f20 f   compileBroker.obj
 0001:00044fb0       ?compilation_is_in_queue@CompileBroker@@SA_NVmethodHandle@@H@Z 08045fb0 f   compileBroker.obj
 0001:00044fd0       ?assign_compile_id@CompileBroker@@CAIVmethodHandle@@H@Z 08045fd0 f   compileBroker.obj
 0001:00045010       ?allocate_task@CompileBroker@@CAPAVCompileTask@@XZ 08046010 f   compileBroker.obj
 0001:000450b0       ?print_times@CompileBroker@@SAXXZ 080460b0 f   compileBroker.obj
 0001:00045270       ?resolve_string_constants@constantPoolOopDesc@@QAEXPAVThread@@@Z 08046270 f i compileBroker.obj
 0001:000452a0       ?print_line@CompileTask@@QAEXXZ 080462a0 f   compileBroker.obj
 0001:00045350       ?log_task@CompileTask@@QAEXPAVxmlStream@@@Z 08046350 f   compileBroker.obj
 0001:00045450       ?log_task_queued@CompileTask@@QAEXXZ 08046450 f   compileBroker.obj
 0001:00045570       ?log_task_done@CompileTask@@QAEXPAVCompileLog@@@Z 08046570 f   compileBroker.obj
 0001:000456a0       ??0CompilerCounters@@QAE@PBDHPAVThread@@@Z 080466a0 f   compileBroker.obj
 0001:00045820       ?make_compiler_thread@CompileBroker@@CAPAVCompilerThread@@PBDPAVCompileQueue@@PAVCompilerCounters@@PAVThread@@@Z 08046820 f   compileBroker.obj
 0001:000459c0       ?compilation_is_prohibited@CompileBroker@@CA_NVmethodHandle@@HH@Z 080469c0 f   compileBroker.obj
 0001:00045af0       ?wait_for_completion@CompileBroker@@CAXPAVCompileTask@@@Z 08046af0 f   compileBroker.obj
 0001:00045b90       ?init_compiler_thread_log@CompileBroker@@SAXXZ 08046b90 f   compileBroker.obj
 0001:00045d20       ?maybe_block@CompileBroker@@SAXXZ 08046d20 f   compileBroker.obj
 0001:00045d50       ?set_last_compile@CompileBroker@@CAXPAVCompilerThread@@VmethodHandle@@_NH@Z 08046d50 f   compileBroker.obj
 0001:00045ed0       ?collect_statistics@CompileBroker@@CAXPAVCompilerThread@@VelapsedTimer@@PAVCompileTask@@@Z 08046ed0 f   compileBroker.obj
 0001:000462b0       ??1CompileTaskWrapper@@QAE@XZ 080472b0 f   compileBroker.obj
 0001:00046340       ?add@CompileQueue@@QAEXPAVCompileTask@@@Z 08047340 f   compileBroker.obj
 0001:000463c0       ?init_compiler_threads@CompileBroker@@CAXHH@Z 080473c0 f   compileBroker.obj
 0001:00046630       ?create_compile_task@CompileBroker@@CAPAVCompileTask@@PAVCompileQueue@@HVmethodHandle@@HH1HPBD_N@Z 08047630 f   compileBroker.obj
 0001:00046670       ?invoke_compiler_on_method@CompileBroker@@CAXPAVCompileTask@@@Z 08047670 f   compileBroker.obj
 0001:00046a90       ?compilation_init@CompileBroker@@SAXXZ 08047a90 f   compileBroker.obj
 0001:00046e50       ?compile_method_base@CompileBroker@@CAXVmethodHandle@@HH0HPBDPAVThread@@@Z 08047e50 f   compileBroker.obj
 0001:00046f90       ?compile_method@CompileBroker@@SAPAVnmethod@@VmethodHandle@@HH0HPBDPAVThread@@@Z 08047f90 f   compileBroker.obj
 0001:000471b0       ?compiler_thread_loop@CompileBroker@@SAXXZ 080481b0 f   compileBroker.obj
 0001:00047490       ?clear_identities@CompileLog@@QAEXXZ 08048490 f   compileLog.obj
 0001:000474a0       ?print_raw_cr@outputStream@@QAEXPBD@Z 080484a0 f i compileLog.obj
 0001:000474d0       ??_GoutputStream@@UAEPAXI@Z 080484d0 f i compileLog.obj
 0001:000474d0       ??_GstaticBufferStream@@UAEPAXI@Z 080484d0 f i ostream.obj
 0001:000474d0       ??_GstringStream@@UAEPAXI@Z 080484d0 f i ostream.obj
 0001:000474d0       ??_EstringStream@@UAEPAXI@Z 080484d0 f i ostream.obj
 0001:000474d0       ??_GxmlTextStream@@UAEPAXI@Z 080484d0 f i compileLog.obj
 0001:000474d0       ??_ExmlTextStream@@UAEPAXI@Z 080484d0 f i compileLog.obj
 0001:000474d0       ??_EoutputStream@@UAEPAXI@Z 080484d0 f i compileLog.obj
 0001:000474d0       ??_EstaticBufferStream@@UAEPAXI@Z 080484d0 f i ostream.obj
 0001:00047500       ??_GfileStream@@UAEPAXI@Z  08048500 f i compileLog.obj
 0001:00047500       ??_EfileStream@@UAEPAXI@Z  08048500 f i compileLog.obj
 0001:00047530       ?ReallocateHeap@@YAPADPADIPBD@Z 08048530 f i compileLog.obj
 0001:00047570       ??0CompileLog@@QAE@PBDPAU_iobuf@@H@Z 08048570 f   compileLog.obj
 0001:00047680       ?see_tag@CompileLog@@UAEXPBD_N@Z 08048680 f   compileLog.obj
 0001:000476d0       ?pop_tag@CompileLog@@UAEXPBD@Z 080486d0 f   compileLog.obj
 0001:000476f0       ?name@CompileLog@@QAEXPAVciSymbol@@@Z 080486f0 f   compileLog.obj
 0001:00047730       ?finish_log_on_error@CompileLog@@SAXPAVoutputStream@@PADH@Z 08048730 f   compileLog.obj
 0001:000479b0       ?finish_log@CompileLog@@SAXPAVoutputStream@@@Z 080489b0 f   compileLog.obj
 0001:000479e0       ??_GxmlStream@@UAEPAXI@Z   080489e0 f i compileLog.obj
 0001:000479e0       ??_ExmlStream@@UAEPAXI@Z   080489e0 f i compileLog.obj
 0001:00047a10       ??_ECompileLog@@UAEPAXI@Z  08048a10 f i compileLog.obj
 0001:00047a10       ??_GCompileLog@@UAEPAXI@Z  08048a10 f i compileLog.obj
 0001:00047a70       ?identify@CompileLog@@QAEHPAVciObject@@@Z 08048a70 f   compileLog.obj
 0001:00048110       ?parse_from_string@CompilerOracle@@SAXPBDP6AXPAD@Z@Z 08049110 f   compilerOracle.obj
 0001:00048180       ?new_symbol_handle@oopFactory@@SA?AVsymbolHandle@@PBDPAVThread@@@Z 08049180 f i compilerOracle.obj
 0001:00048180       ?new_symbol_handle@oopFactory@@SA?AVsymbolHandle@@PADPAVThread@@@Z 08049180 f i compilerOracle.obj
 0001:000481c0       ??0MethodMatcher@@QAE@VsymbolHandle@@W4Mode@0@010PAV0@@Z 080491c0 f   compilerOracle.obj
 0001:00048240       ?match@MethodMatcher@@KA_NVsymbolHandle@@0W4Mode@1@@Z 08049240 f   compilerOracle.obj
 0001:00048490       ?parse_from_line@CompilerOracle@@SAXPAD@Z 08049490 f   compilerOracle.obj
 0001:000487f0       ?parse_from_file@CompilerOracle@@SAXXZ 080497f0 f   compilerOracle.obj
 0001:00048890       ?parse_compile_only@CompilerOracle@@SAXPAD@Z 08049890 f   compilerOracle.obj
 0001:00048c00       ?find@MethodMatcher@@QAEPAV1@VmethodHandle@@@Z 08049c00 f i compilerOracle.obj
 0001:00048d00       ?print@MethodMatcher@@UAEXXZ 08049d00 f i compilerOracle.obj
 0001:00048d10       ?print_base@MethodMatcher@@QAEXXZ 08049d10 f i compilerOracle.obj
 0001:00048dc0       ?print_symbol@MethodMatcher@@SAXVsymbolHandle@@W4Mode@1@@Z 08049dc0 f i compilerOracle.obj
 0001:00048e70       ?match@MethodOptionMatcher@@QAE_NVmethodHandle@@PBD@Z 08049e70 f i compilerOracle.obj
 0001:00048ee0       ?print@MethodOptionMatcher@@UAEXXZ 08049ee0 f i compilerOracle.obj
 0001:00048f10       ?has_option_string@CompilerOracle@@SA_NVmethodHandle@@PBD@Z 08049f10 f   compilerOracle.obj
 0001:00048f40       ?should_exclude@CompilerOracle@@SA_NVmethodHandle@@AA_N@Z 08049f40 f   compilerOracle.obj
 0001:00048f90       ?should_inline@CompilerOracle@@SA_NVmethodHandle@@@Z 08049f90 f   compilerOracle.obj
 0001:00048fc0       ?should_not_inline@CompilerOracle@@SA_NVmethodHandle@@@Z 08049fc0 f   compilerOracle.obj
 0001:00048ff0       ?should_print@CompilerOracle@@SA_NVmethodHandle@@@Z 08049ff0 f   compilerOracle.obj
 0001:00049020       ?should_log@CompilerOracle@@SA_NVmethodHandle@@@Z 0804a020 f   compilerOracle.obj
 0001:00049060       ?should_break_at@CompilerOracle@@SA_NVmethodHandle@@@Z 0804a060 f   compilerOracle.obj
 0001:00049090       ?compilerOracle_init@@YAXXZ 0804a090 f   compilerOracle.obj
 0001:00049100       ?match@decode_env@@CA_NPBD0@Z 0804a100 f i disassembler.obj
 0001:00049160       ?collect_options@decode_env@@AAEXPBD@Z 0804a160 f i disassembler.obj
 0001:00049210       ?bol@outputStream@@QAEXXZ  0804a210 f i disassembler.obj
 0001:00049220       ?contains@StubRoutines@@SA_NPAE@Z 0804a220 f i disassembler.obj
 0001:00049260       ?load_library@Disassembler@@CA_NXZ 0804a260 f   disassembler.obj
 0001:00049420       ?start_insn@decode_env@@QAEXPAE@Z 0804a420 f i disassembler.obj
 0001:00049480       ??0decode_env@@QAE@PAVCodeBlob@@PAVoutputStream@@@Z 0804a480 f   disassembler.obj
 0001:000495f0       ?print_insn_bytes@decode_env@@AAEXPAE0@Z 0804a5f0 f   disassembler.obj
 0001:00049780       ?end_insn@decode_env@@QAEXPAE@Z 0804a780 f i disassembler.obj
 0001:00049830       ?print_address@decode_env@@AAEXPAE@Z 0804a830 f   disassembler.obj
 0001:000499e0       ?handle_event@decode_env@@QAEPAEPBDPAE@Z 0804a9e0 f   disassembler.obj
 0001:00049ad0       ?decode_instructions@decode_env@@QAEPAEPAE0@Z 0804aad0 f   disassembler.obj
 0001:00049b70       ?decode@Disassembler@@SAXPAVCodeBlob@@PAVoutputStream@@@Z 0804ab70 f   disassembler.obj
 0001:00049bd0       ?decode@Disassembler@@SAXPAE0PAVoutputStream@@@Z 0804abd0 f   disassembler.obj
 0001:00049c30       ?decode@Disassembler@@SAXPAVnmethod@@PAVoutputStream@@@Z 0804ac30 f   disassembler.obj
 0001:00049d90       ?at@BitMap@@QBE_NI@Z       0804ad90 f i methodLiveness.obj
 0001:00049dc0       ??0MethodLiveness@@QAE@PAVArena@@PAVciMethod@@@Z 0804adc0 f   methodLiveness.obj
 0001:00049e60       ?load_one@BasicBlock@MethodLiveness@@AAEXH@Z 0804ae60 f   methodLiveness.obj
 0001:00049ea0       ?store_one@BasicBlock@MethodLiveness@@AAEXH@Z 0804aea0 f   methodLiveness.obj
 0001:00049ee0       ?propagate@BasicBlock@MethodLiveness@@AAEXPAV2@@Z 0804aee0 f   methodLiveness.obj
 0001:00049fe0       ?propagate_liveness@MethodLiveness@@AAEXXZ 0804afe0 f   methodLiveness.obj
 0001:0004a030       ??0BasicBlock@MethodLiveness@@AAE@PAV1@HH@Z 0804b030 f   methodLiveness.obj
 0001:0004a330       ?load_two@BasicBlock@MethodLiveness@@AAEXH@Z 0804b330 f   methodLiveness.obj
 0001:0004a390       ?store_two@BasicBlock@MethodLiveness@@AAEXH@Z 0804b390 f   methodLiveness.obj
 0001:0004a3f0       ?init_basic_blocks@MethodLiveness@@AAEXXZ 0804b3f0 f   methodLiveness.obj
 0001:0004acb0       ?compute_gen_kill_single@BasicBlock@MethodLiveness@@AAEXPAVciBytecodeStream@@@Z 0804bcb0 f   methodLiveness.obj
 0001:0004af80       ?compute_gen_kill_range@BasicBlock@MethodLiveness@@AAEXPAVciBytecodeStream@@@Z 0804bf80 f   methodLiveness.obj
 0001:0004b010       ?get_liveness_at@BasicBlock@MethodLiveness@@AAE?AVMethodLivenessResult@@PAVciMethod@@H@Z 0804c010 f   methodLiveness.obj
 0001:0004b120       ?get_liveness_at@MethodLiveness@@QAE?AVMethodLivenessResult@@H@Z 0804c120 f   methodLiveness.obj
 0001:0004b1e0       ?init_gen_kill@MethodLiveness@@AAEXXZ 0804c1e0 f   methodLiveness.obj
 0001:0004b290       ?compute_liveness@MethodLiveness@@QAEXXZ 0804c290 f   methodLiveness.obj
 0001:0004b3d0       ?set_location@RegisterMap@@QAEXPAVVMRegImpl@@PAE@Z 0804c3d0 f i oopMap.obj
 0001:0004b430       ??0OopMap@@QAE@HH@Z        0804c430 f   oopMap.obj
 0001:0004b470       ??0OopMapSet@@QAE@XZ       0804c470 f   oopMap.obj
 0001:0004b4a0       ?grow_om_data@OopMapSet@@AAEXXZ 0804c4a0 f   oopMap.obj
 0001:0004b4f0       ?copy_to@OopMapSet@@QAEXPAE@Z 0804c4f0 f   oopMap.obj
 0001:0004b5e0       ?add_gc_map@OopMapSet@@QAEXHPAVOopMap@@@Z 0804c5e0 f   oopMap.obj
 0001:0004b610       ?heap_size@OopMapSet@@QBEHXZ 0804c610 f   oopMap.obj
 0001:0004b650       ?find_map_at_offset@OopMapSet@@QBEPAVOopMap@@H@Z 0804c650 f   oopMap.obj
 0001:0004b6a0       ?update_pointers@DerivedPointerTable@@SAXXZ 0804c6a0 f   oopMap.obj
 0001:0004b700       ?write_on@OopMapValue@@QAEXPAVCompressedWriteStream@@@Z 0804c700 f i oopMap.obj
 0001:0004b780       ??0OopMapStream@@QAE@PAVOopMap@@@Z 0804c780 f   oopMap.obj
 0001:0004b7f0       ??0OopMapStream@@QAE@PAVOopMap@@H@Z 0804c7f0 f   oopMap.obj
 0001:0004b860       ?find_next@OopMapStream@@AAEXXZ 0804c860 f   oopMap.obj
 0001:0004b900       ?set_oop@OopMap@@QAEXPAVVMRegImpl@@@Z 0804c900 f   oopMap.obj
 0001:0004b930       ?set_narrowoop@OopMap@@QAEXPAVVMRegImpl@@@Z 0804c930 f   oopMap.obj
 0001:0004b960       ?set_callee_saved@OopMap@@QAEXPAVVMRegImpl@@0@Z 0804c960 f   oopMap.obj
 0001:0004b990       ?set_derived_oop@OopMap@@QAEXPAVVMRegImpl@@0@Z 0804c990 f   oopMap.obj
 0001:0004b9e0       ?clear@DerivedPointerTable@@SAXXZ 0804c9e0 f   oopMap.obj
 0001:0004ba30       ??0OopMap@@AAE@W4DeepCopyToken@0@PAV0@@Z 0804ca30 f   oopMap.obj
 0001:0004bad0       ?deep_copy@OopMap@@QAEPAV1@XZ 0804cad0 f   oopMap.obj
 0001:0004bb00       ?all_do@OopMapSet@@SAXPBVframe@@PBVRegisterMap@@PAVOopClosure@@P6AXPAPAVoopDesc@@3@Z2@Z 0804cb00 f   oopMap.obj
 0001:0004bc60       ?update_register_map@OopMapSet@@SAXPBVframe@@PAVRegisterMap@@@Z 0804cc60 f   oopMap.obj
 0001:0004bd90       ?print_on@OopMap@@QBEXPAVoutputStream@@@Z 0804cd90 f   oopMap.obj
 0001:0004be30       ?print_on@OopMapSet@@QBEXPAVoutputStream@@@Z 0804ce30 f   oopMap.obj
 0001:0004be90       ?add@DerivedPointerTable@@SAXPAPAVoopDesc@@0@Z 0804ce90 f   oopMap.obj
 0001:0004bf10       ?oops_do@OopMapSet@@SAXPBVframe@@PBVRegisterMap@@PAVOopClosure@@@Z 0804cf10 f   oopMap.obj
 0001:0004bf40       ?pre_initialize@CollectedHeap@@IAEXXZ 0804cf40 f   collectedHeap.obj
 0001:0004bf80       ?allocate_new_tlab@CollectedHeap@@MAEPAVHeapWord@@I@Z 0804cf80 f   collectedHeap.obj
 0001:0004bfb0       ?accumulate_statistics_all_tlabs@CollectedHeap@@MAEXXZ 0804cfb0 f   collectedHeap.obj
 0001:0004bfc0       ?resize_all_tlabs@CollectedHeap@@MAEXXZ 0804cfc0 f   collectedHeap.obj
 0001:0004bfd0       ?length@Store16BNode@@UBEIXZ 0804cfd0 f i vectornode.obj
 0001:0004bfd0       ?stack_alignment_in_bytes@Matcher@@SAIXZ 0804cfd0 f i ad_x86_32.obj
 0001:0004bfd0       ?ideal_Opcode@addL_eReg_mem_0Node@@EBEHXZ 0804cfd0 f i ad_x86_32_gen.obj
 0001:0004bfd0       ?ideal_Opcode@addL_eRegNode@@EBEHXZ 0804cfd0 f i ad_x86_32_gen.obj
 0001:0004bfd0       ?jvmti_class_status@arrayKlass@@UBEHXZ 0804cfd0 f i arrayKlass.obj
 0001:0004bfd0       ?opcode@immI_1_31Oper@@UBEIXZ 0804cfd0 f i ad_x86_32_clone.obj
 0001:0004bfd0       ?length@Load16BNode@@UBEIXZ 0804cfd0 f i vectornode.obj
 0001:0004bfd0       ?type@VM_GC_HeapInspection@@UBE?AW4VMOp_Type@VM_Operation@@XZ 0804cfd0 f i collectedHeap.obj
 0001:0004bfd0       ?Opcode@AddLNode@@UBEHXZ   0804cfd0 f i classes.obj
 0001:0004bfd0       ?ideal_Opcode@addL_eReg_immNode@@EBEHXZ 0804cfd0 f i ad_x86_32_gen.obj
 0001:0004bfd0       ?add_opcode@MulLNode@@UBEHXZ 0804cfd0 f i compile.obj
 0001:0004bfd0       ?ideal_Opcode@addL_eReg_memNode@@EBEHXZ 0804cfd0 f i ad_x86_32.obj
 0001:0004bfe0       ?flush_deferred_store_barrier@CollectedHeap@@UAEXPAVJavaThread@@@Z 0804cfe0 f   collectedHeap.obj
 0001:0004c030       ?ensure_parsability@CollectedHeap@@UAEX_N@Z 0804d030 f   collectedHeap.obj
 0001:0004c090       ?pre_full_gc_dump@CollectedHeap@@QAEXXZ 0804d090 f   collectedHeap.obj
 0001:0004c160       ?post_full_gc_dump@CollectedHeap@@QAEXXZ 0804d160 f   collectedHeap.obj
 0001:0004c230       ?new_store_pre_barrier@CollectedHeap@@UAEPAVoopDesc@@PAVJavaThread@@PAV2@@Z 0804d230 f   collectedHeap.obj
 0001:0004c2c0       ?max_array_length@arrayOopDesc@@SAHW4BasicType@@@Z 0804d2c0 f i collectedHeap.obj
 0001:0004c310       ?compute_size@ThreadLocalAllocBuffer@@QAEII@Z 0804d310 f i collectedHeap.obj
 0001:0004c3b0       ?allocate_from_tlab_slow@CollectedHeap@@KAPAVHeapWord@@PAVThread@@I@Z 0804d3b0 f   collectedHeap.obj
 0001:0004c460       ??0CollectedHeap@@IAE@XZ   0804d460 f   collectedHeap.obj
 0001:0004c570       ?is_in_closed_subset@CollectedHeap@@UBE_NPBX@Z 0804d570 f i collectedHeap.obj
 0001:0004c5a0       ?set_par_threads@CollectedHeap@@UAEXH@Z 0804d5a0 f i collectedHeap.obj
 0001:0004c5b0       ?preload_and_dump@CollectedHeap@@UAEXPAVThread@@@Z 0804d5b0 f i collectedHeap.obj
 0001:0004c5d0       ?top_addr@CollectedHeap@@UBEPAPAVHeapWord@@XZ 0804d5d0 f i collectedHeap.obj
 0001:0004c5f0       ?end_addr@CollectedHeap@@UBEPAPAVHeapWord@@XZ 0804d5f0 f i collectedHeap.obj
 0001:0004c610       ?tlab_capacity@CollectedHeap@@UBEIPAVThread@@@Z 0804d610 f i collectedHeap.obj
 0001:0004c640       ?unsafe_max_tlab_alloc@CollectedHeap@@UBEIPAVThread@@@Z 0804d640 f i collectedHeap.obj
 0001:0004c670       ?post_allocation_setup_common@CollectedHeap@@KAXVKlassHandle@@PAVHeapWord@@I@Z 0804d670 f i collectedHeap.obj
 0001:0004c6d0       ?fill_with_object_impl@CollectedHeap@@KAXPAVHeapWord@@I_N@Z 0804d6d0 f i collectedHeap.obj
 0001:0004c740       ?fill_with_objects@CollectedHeap@@SAXPAVHeapWord@@I_N@Z 0804d740 f   collectedHeap.obj
 0001:0004c740       ?fill_with_object@CollectedHeap@@SAXPAVHeapWord@@I_N@Z 0804d740 f   collectedHeap.obj
 0001:0004c780       ?to_string@GCCause@@SAPBDW4Cause@1@@Z 0804d780 f   gcCause.obj
 0001:0004c890       ??0ResultTypeFinder@@QAE@VsymbolHandle@@@Z 0804d890 f i bytecode.obj
 0001:0004c8c0       ?set@ResultTypeFinder@@EAEXHW4BasicType@@@Z 0804d8c0 f i bytecode.obj
 0001:0004c8d0       ?dest_offset_at@Bytecode_tableswitch@@QBEHH@Z 0804d8d0 f   bytecode.obj
 0001:0004c8f0       ?index@Bytecode_member_ref@@QBEHXZ 0804d8f0 f   bytecode.obj
 0001:0004c910       ?signature@Bytecode_member_ref@@QBEPAVsymbolOopDesc@@XZ 0804d910 f   bytecode.obj
 0001:0004c940       ?name@Bytecode_member_ref@@QBEPAVsymbolOopDesc@@XZ 0804d940 f   bytecode.obj
 0001:0004c970       ?result_type@Bytecode_member_ref@@QBE?AW4BasicType@@PAVThread@@@Z 0804d970 f   bytecode.obj
 0001:0004ca00       ?static_target@Bytecode_invoke@@QAE?AVmethodHandle@@PAVThread@@@Z 0804da00 f   bytecode.obj
 0001:0004caf0       ?pool_index@Bytecode_loadconstant@@QBEHXZ 0804daf0 f   bytecode.obj
 0001:0004cb60       ?resolve_constant@Bytecode_loadconstant@@QBEPAVoopDesc@@PAVThread@@@Z 0804db60 f   bytecode.obj
 0001:0004cc00       ?result_type@Bytecode_loadconstant@@QBE?AW4BasicType@@XZ 0804dc00 f   bytecode.obj
 0001:0004cc30       ?non_breakpoint_code_at@Bytecodes@@SA?AW4Code@1@PBVmethodOopDesc@@PAE@Z 0804dc30 f   bytecodes.obj
 0001:0004cc50       ?compute_flags@Bytecodes@@SAHPBDH@Z 0804dc50 f   bytecodes.obj
 0001:0004cf30       ?def@Bytecodes@@CAXW4Code@1@PBD11W4BasicType@@H_N0@Z 0804df30 f   bytecodes.obj
 0001:0004cff0       ?special_length_at@Bytecodes@@SAHW4Code@1@PAE1@Z 0804dff0 f   bytecodes.obj
 0001:0004d1a0       ?raw_special_length_at@Bytecodes@@SAHPAE0@Z 0804e1a0 f   bytecodes.obj
 0001:0004d1d0       ?initialize@Bytecodes@@SAXXZ 0804e1d0 f   bytecodes.obj
 0001:0004f830       ?bytecodes_init@@YAXXZ     08050830 f   bytecodes.obj
 0001:0004f840       ?raw_next_special@RawBytecodeStream@@QAE?AW4Code@Bytecodes@@W423@@Z 08050840 f   bytecodeStream.obj
 0001:0004f8c0       ??0AbstractInterpreterGenerator@@QAE@PAVStubQueue@@@Z 080508c0 f   interpreter.obj
 0001:0004f8d0       ?bytecode_should_reexecute@AbstractInterpreter@@SA_NW4Code@Bytecodes@@@Z 080508d0 f   interpreter.obj
 0001:0004f9a0       ?bang_stack_shadow_pages@AbstractInterpreterGenerator@@IAEX_N@Z 080509a0 f   interpreter.obj
 0001:0004f9f0       ?as_TosState@@YA?AW4TosState@@W4BasicType@@@Z 080509f0 f i interpreter.obj
 0001:0004fa80       ?bang_stack_with_offset@MacroAssembler@@UAEXH@Z 08050a80 f i interpreter.obj
 0001:0004fad0       ??0Address@@QAE@PAVRegisterImpl@@H@Z 08050ad0 f i interpreter.obj
 0001:0004fb10       ?length_at@Bytecodes@@SAHPAVmethodOopDesc@@PAE@Z 08050b10 f i interpreter.obj
 0001:0004fb50       ?print_on@InterpreterCodelet@@QBEXPAVoutputStream@@@Z 08050b50 f   interpreter.obj
 0001:0004fbf0       ?initialize@AbstractInterpreter@@SAXXZ 08050bf0 f   interpreter.obj
 0001:0004fc10       ?print@AbstractInterpreter@@SAXXZ 08050c10 f   interpreter.obj
 0001:0004fd80       ?interpreter_init@@YAXXZ   08050d80 f   interpreter.obj
 0001:0004fdd0       ?method_kind@AbstractInterpreter@@SA?AW4MethodKind@1@VmethodHandle@@@Z 08050dd0 f   interpreter.obj
 0001:0004fee0       ?set_parameter_size@ConstantPoolCacheEntry@@QAEXH@Z 08050ee0 f i interpreter.obj
 0001:0004ff60       ??0CodeletMark@@QAE@AAPAVInterpreterMacroAssembler@@PBDW4Code@Bytecodes@@@Z 08050f60 f i interpreter.obj
 0001:00050050       ??1CodeletMark@@QAE@XZ     08051050 f i interpreter.obj
 0001:000500d0       ??0Bytecode_loadconstant@@QAE@VmethodHandle@@H@Z 080510d0 f i interpreter.obj
 0001:00050120       ?generate_all@AbstractInterpreterGenerator@@IAEXXZ 08051120 f   interpreter.obj
 0001:00050160       ?deopt_continue_after_entry@AbstractInterpreter@@SAPAEPAVmethodOopDesc@@PAEH_N@Z 08051160 f   interpreter.obj
 0001:000504a0       ?deopt_reexecute_entry@AbstractInterpreter@@SAPAEPAVmethodOopDesc@@PAE@Z 080514a0 f   interpreter.obj
 0001:000504e0       ?find@?$GrowableArray@_K@@QBEHAB_K@Z 080514e0 f i interpreterRuntime.obj
 0001:00050520       ?contains@TemplateInterpreter@@SA_NPAE@Z 08051520 f i interpreterRuntime.obj
 0001:00050550       ?fingerprint@Fingerprinter@@QAE_KXZ 08051550 f i interpreterRuntime.obj
 0001:00050660       ?transition@ThreadStateTransition@@SAXPAVJavaThread@@W4JavaThreadState@@1@Z 08051660 f i interpreterRuntime.obj
 0001:000506d0       ??1ThreadInVMfromJava@@QAE@XZ 080516d0 f i interpreterRuntime.obj
 0001:00050700       ??1ThreadInVMfromJavaNoAsyncException@@QAE@XZ 08051700 f i interpreterRuntime.obj
 0001:00050730       ?to_jfieldID@jfieldIDWorkaround@@SAPAU_jfieldID@@VinstanceKlassHandle@@H_N@Z 08051730 f i interpreterRuntime.obj
 0001:00050770       ?newarray@InterpreterRuntime@@SAXPAVJavaThread@@W4BasicType@@H@Z 08051770 f   interpreterRuntime.obj
 0001:00050800       ?register_finalizer@InterpreterRuntime@@SAXPAVJavaThread@@PAVoopDesc@@@Z 08051800 f   interpreterRuntime.obj
 0001:000508d0       ?throw_StackOverflowError@InterpreterRuntime@@SAXPAVJavaThread@@@Z 080518d0 f   interpreterRuntime.obj
 0001:00050990       ?throw_pending_exception@InterpreterRuntime@@SAXPAVJavaThread@@@Z 08051990 f   interpreterRuntime.obj
 0001:00050a00       ?throw_AbstractMethodError@InterpreterRuntime@@SAXPAVJavaThread@@@Z 08051a00 f   interpreterRuntime.obj
 0001:00050a90       ?throw_IncompatibleClassChangeError@InterpreterRuntime@@SAXPAVJavaThread@@@Z 08051a90 f   interpreterRuntime.obj
 0001:00050b20       ?monitorenter@InterpreterRuntime@@SAXPAVJavaThread@@PAVBasicObjectLock@@@Z 08051b20 f   interpreterRuntime.obj
 0001:00050c20       ?monitorexit@InterpreterRuntime@@SAXPAVJavaThread@@PAVBasicObjectLock@@@Z 08051c20 f   interpreterRuntime.obj
 0001:00050d10       ?throw_illegal_monitor_state_exception@InterpreterRuntime@@SAXPAVJavaThread@@@Z 08051d10 f   interpreterRuntime.obj
 0001:00050da0       ?get_original_bytecode_at@InterpreterRuntime@@SA?AW4Code@Bytecodes@@PAVJavaThread@@PAVmethodOopDesc@@PAE@Z 08051da0 f   interpreterRuntime.obj
 0001:00050e30       ?set_original_bytecode_at@InterpreterRuntime@@SAXPAVJavaThread@@PAVmethodOopDesc@@PAEW4Code@Bytecodes@@@Z 08051e30 f   interpreterRuntime.obj
 0001:00050eb0       ?_breakpoint@InterpreterRuntime@@SAXPAVJavaThread@@PAVmethodOopDesc@@PAE@Z 08051eb0 f   interpreterRuntime.obj
 0001:00050f30       ?bcp_to_di@InterpreterRuntime@@SAHPAVmethodOopDesc@@PAE@Z 08051f30 f   interpreterRuntime.obj
 0001:00050f70       ?interpreter_contains@InterpreterRuntime@@SAHPAE@Z 08051f70 f   interpreterRuntime.obj
 0001:00050fb0       ?set_handler@SignatureHandlerLibrary@@CAPAEPAVCodeBuffer@@@Z 08051fb0 f   interpreterRuntime.obj
 0001:00051050       ??0?$GrowableArray@_K@@QAE@H_N@Z 08052050 f i interpreterRuntime.obj
 0001:000510b0       ?grow@?$GrowableArray@VBlockProbPair@@@@AAEXH@Z 080520b0 f i gcm.obj
 0001:000510b0       ?grow@?$GrowableArray@_K@@AAEXH@Z 080520b0 f i interpreterRuntime.obj
 0001:00051160       ?klass_at@constantPoolOopDesc@@QAEPAVklassOopDesc@@HPAVThread@@@Z 08052160 f i interpreterRuntime.obj
 0001:00051190       ??0Fingerprinter@@QAE@VmethodHandle@@@Z 08052190 f i interpreterRuntime.obj
 0001:000511d0       ?do_bool@Fingerprinter@@UAEXXZ 080521d0 f i interpreterRuntime.obj
 0001:00051200       ?do_char@Fingerprinter@@UAEXXZ 08052200 f i interpreterRuntime.obj
 0001:00051230       ?do_byte@Fingerprinter@@UAEXXZ 08052230 f i interpreterRuntime.obj
 0001:00051260       ?do_short@Fingerprinter@@UAEXXZ 08052260 f i interpreterRuntime.obj
 0001:00051290       ?do_int@Fingerprinter@@UAEXXZ 08052290 f i interpreterRuntime.obj
 0001:000512c0       ?do_long@Fingerprinter@@UAEXXZ 080522c0 f i interpreterRuntime.obj
 0001:000512f0       ?do_float@Fingerprinter@@UAEXXZ 080522f0 f i interpreterRuntime.obj
 0001:00051320       ?do_double@Fingerprinter@@UAEXXZ 08052320 f i interpreterRuntime.obj
 0001:00051350       ?do_object@Fingerprinter@@UAEXHH@Z 08052350 f i interpreterRuntime.obj
 0001:00051350       ?do_array@Fingerprinter@@UAEXHH@Z 08052350 f i interpreterRuntime.obj
 0001:00051380       ?do_void@Fingerprinter@@UAEXXZ 08052380 f i interpreterRuntime.obj
 0001:000513a0       ??0NativeSignatureIterator@@QAE@VmethodHandle@@@Z 080523a0 f i interpreterRuntime.obj
 0001:00051400       ?do_float@NativeSignatureIterator@@EAEXXZ 08052400 f i interpreterRuntime.obj
 0001:00051420       ?do_double@NativeSignatureIterator@@EAEXXZ 08052420 f i interpreterRuntime.obj
 0001:00051440       ?do_bool@NativeSignatureIterator@@EAEXXZ 08052440 f i interpreterRuntime.obj
 0001:00051440       ?do_byte@NativeSignatureIterator@@EAEXXZ 08052440 f i interpreterRuntime.obj
 0001:00051440       ?do_int@NativeSignatureIterator@@EAEXXZ 08052440 f i interpreterRuntime.obj
 0001:00051440       ?do_char@NativeSignatureIterator@@EAEXXZ 08052440 f i interpreterRuntime.obj
 0001:00051440       ?do_short@NativeSignatureIterator@@EAEXXZ 08052440 f i interpreterRuntime.obj
 0001:00051460       ?do_long@NativeSignatureIterator@@EAEXXZ 08052460 f i interpreterRuntime.obj
 0001:00051480       ?do_void@NativeSignatureIterator@@EAEXXZ 08052480 f i interpreterRuntime.obj
 0001:000514a0       ?do_object@NativeSignatureIterator@@EAEXHH@Z 080524a0 f i interpreterRuntime.obj
 0001:000514a0       ?do_array@NativeSignatureIterator@@EAEXHH@Z 080524a0 f i interpreterRuntime.obj
 0001:000514c0       ?pass_double@NativeSignatureIterator@@UAEXXZ 080524c0 f i interpreterRuntime.obj
 0001:000514d0       ??0SignatureHandlerGenerator@InterpreterRuntime@@QAE@VmethodHandle@@PAVCodeBuffer@@@Z 080524d0 f i interpreterRuntime.obj
 0001:00051520       ?_new@InterpreterRuntime@@SAXPAVJavaThread@@PAVconstantPoolOopDesc@@H@Z 08052520 f   interpreterRuntime.obj
 0001:00051660       ?anewarray@InterpreterRuntime@@SAXPAVJavaThread@@PAVconstantPoolOopDesc@@HH@Z 08052660 f   interpreterRuntime.obj
 0001:00051730       ?new_illegal_monitor_state_exception@InterpreterRuntime@@SAXPAVJavaThread@@@Z 08052730 f   interpreterRuntime.obj
 0001:00051820       ?initialize@SignatureHandlerLibrary@@CAXXZ 08052820 f   interpreterRuntime.obj
 0001:000518f0       ?append@?$GrowableArray@_K@@QAEHAB_K@Z 080528f0 f i interpreterRuntime.obj
 0001:00051930       ?method@InterpreterRuntime@@CAPAVmethodOopDesc@@PAVJavaThread@@@Z 08052930 f i interpreterRuntime.obj
 0001:00051990       ?bcp@InterpreterRuntime@@CAPAEPAVJavaThread@@@Z 08052990 f i interpreterRuntime.obj
 0001:000519f0       ?bci@InterpreterRuntime@@CAHPAVJavaThread@@@Z 080529f0 f i interpreterRuntime.obj
 0001:00051a50       ?get_index_u2@InterpreterRuntime@@CAHPAVJavaThread@@W4Code@Bytecodes@@@Z 08052a50 f i interpreterRuntime.obj
 0001:00051ab0       ?cache_entry@InterpreterRuntime@@CAPAVConstantPoolCacheEntry@@PAVJavaThread@@@Z 08052ab0 f i interpreterRuntime.obj
 0001:00051ae0       ?set_bcp_and_mdp@InterpreterRuntime@@CAXPAEPAVJavaThread@@@Z 08052ae0 f   interpreterRuntime.obj
 0001:00051c40       ?resolve_ldc@InterpreterRuntime@@SAXPAVJavaThread@@W4Code@Bytecodes@@@Z 08052c40 f   interpreterRuntime.obj
 0001:00051d40       ?multianewarray@InterpreterRuntime@@SAXPAVJavaThread@@PAH@Z 08052d40 f   interpreterRuntime.obj
 0001:00051ee0       ?quicken_io_cc@InterpreterRuntime@@SAXPAVJavaThread@@@Z 08052ee0 f   interpreterRuntime.obj
 0001:00051f90       ?note_trap@InterpreterRuntime@@CAXPAVJavaThread@@HPAVThread@@@Z 08052f90 f   interpreterRuntime.obj
 0001:00052030       ?create_exception@InterpreterRuntime@@SAXPAVJavaThread@@PAD1@Z 08053030 f   interpreterRuntime.obj
 0001:00052180       ?create_klass_exception@InterpreterRuntime@@SAXPAVJavaThread@@PADPAVoopDesc@@@Z 08053180 f   interpreterRuntime.obj
 0001:000522e0       ?throw_ArrayIndexOutOfBoundsException@InterpreterRuntime@@SAXPAVJavaThread@@PADH@Z 080532e0 f   interpreterRuntime.obj
 0001:000523e0       ?throw_ClassCastException@InterpreterRuntime@@SAXPAVJavaThread@@PAVoopDesc@@@Z 080533e0 f   interpreterRuntime.obj
 0001:00052510       ?throw_WrongMethodTypeException@InterpreterRuntime@@SAXPAVJavaThread@@PAVoopDesc@@1@Z 08053510 f   interpreterRuntime.obj
 0001:00052630       ?exception_handler_for_exception@InterpreterRuntime@@SAPAEPAVJavaThread@@PAVoopDesc@@@Z 08053630 f   interpreterRuntime.obj
 0001:000528a0       ?resolve_invokedynamic@InterpreterRuntime@@SAXPAVJavaThread@@@Z 080538a0 f   interpreterRuntime.obj
 0001:00052c30       ?frequency_counter_overflow_inner@InterpreterRuntime@@CAPAVnmethod@@PAVJavaThread@@PAE@Z 08053c30 f   interpreterRuntime.obj
 0001:00052e40       ?profile_method@InterpreterRuntime@@SAXPAVJavaThread@@@Z 08053e40 f   interpreterRuntime.obj
 0001:00052f30       ?update_mdp_for_ret@InterpreterRuntime@@SAXPAVJavaThread@@H@Z 08053f30 f   interpreterRuntime.obj
 0001:000530a0       ?at_safepoint@InterpreterRuntime@@SAXPAVJavaThread@@@Z 080540a0 f   interpreterRuntime.obj
 0001:00053130       ?post_method_entry@InterpreterRuntime@@SAXPAVJavaThread@@@Z 08054130 f   interpreterRuntime.obj
 0001:00053220       ?post_method_exit@InterpreterRuntime@@SAXPAVJavaThread@@@Z 08054220 f   interpreterRuntime.obj
 0001:00053310       ?add@SignatureHandlerLibrary@@SAXVmethodHandle@@@Z 08054310 f   interpreterRuntime.obj
 0001:000534f0       ?prepare_native_call@InterpreterRuntime@@SAXPAVJavaThread@@PAVmethodOopDesc@@@Z 080544f0 f   interpreterRuntime.obj
 0001:000535a0       ?popframe_move_outgoing_args@InterpreterRuntime@@SAXPAVJavaThread@@PAX1@Z 080545a0 f   interpreterRuntime.obj
 0001:00053720       ?already_resolved@InterpreterRuntime@@CA_NPAVJavaThread@@@Z 08054720 f i interpreterRuntime.obj
 0001:00053780       ?ldc@InterpreterRuntime@@SAXPAVJavaThread@@_N@Z 08054780 f   interpreterRuntime.obj
 0001:000538e0       ?resolve_get_put@InterpreterRuntime@@SAXPAVJavaThread@@W4Code@Bytecodes@@@Z 080548e0 f   interpreterRuntime.obj
 0001:00053b30       ?resolve_invoke@InterpreterRuntime@@SAXPAVJavaThread@@W4Code@Bytecodes@@@Z 08054b30 f   interpreterRuntime.obj
 0001:00053fa0       ?frequency_counter_overflow@InterpreterRuntime@@SAPAVnmethod@@PAVJavaThread@@PAE@Z 08054fa0 f   interpreterRuntime.obj
 0001:00054040       ?post_field_access@InterpreterRuntime@@SAXPAVJavaThread@@PAVoopDesc@@PAVConstantPoolCacheEntry@@@Z 08055040 f   interpreterRuntime.obj
 0001:000541b0       ?post_field_modification@InterpreterRuntime@@SAXPAVJavaThread@@PAVoopDesc@@PAVConstantPoolCacheEntry@@PATjvalue@@@Z 080551b0 f   interpreterRuntime.obj
 0001:00054370       ?dummy_invocation_counter_overflow@@YAPAEVmethodHandle@@PAVThread@@@Z 08055370 f   invocationCounter.obj
 0001:00054390       ?set_carry@InvocationCounter@@QAEXXZ 08055390 f   invocationCounter.obj
 0001:000543d0       ?set_state@InvocationCounter@@QAEXW4State@1@@Z 080553d0 f   invocationCounter.obj
 0001:000544d0       ?reinitialize@InvocationCounter@@SAX_N@Z 080554d0 f   invocationCounter.obj
 0001:00054590       ?invocationCounter_init@@YAXXZ 08055590 f   invocationCounter.obj
 0001:000545a0       ?reset@InvocationCounter@@QAEXXZ 080555a0 f   invocationCounter.obj
 0001:000545d0       ?init@InvocationCounter@@QAEXXZ 080555d0 f   invocationCounter.obj
 0001:000545f0       ?set@FieldAccessInfo@@QAEXVKlassHandle@@VsymbolHandle@@HHW4BasicType@@VAccessFlags@@@Z 080555f0 f   linkResolver.obj
 0001:00054620       ?is_method_handle_invoke_name@methodOopDesc@@SA_NPAVsymbolOopDesc@@@Z 08055620 f i linkResolver.obj
 0001:00054640       ?set_common@CallInfo@@AAEXVKlassHandle@@0VmethodHandle@@1HPAVThread@@@Z 08055640 f   linkResolver.obj
 0001:000546b0       ?set_interface@CallInfo@@AAEXVKlassHandle@@0VmethodHandle@@1PAVThread@@@Z 080556b0 f   linkResolver.obj
 0001:00054700       ?check_klass_accessability@LinkResolver@@SAXVKlassHandle@@0PAVThread@@@Z 08055700 f   linkResolver.obj
 0001:000547a0       ?lookup_method_in_klasses@LinkResolver@@CAXAAVmethodHandle@@VKlassHandle@@VsymbolHandle@@2PAVThread@@@Z 080557a0 f   linkResolver.obj
 0001:00054810       ?lookup_instance_method_in_klasses@LinkResolver@@CAXAAVmethodHandle@@VKlassHandle@@VsymbolHandle@@2PAVThread@@@Z 08055810 f   linkResolver.obj
 0001:00054930       ?vtable_index_of_miranda_method@LinkResolver@@CAHVKlassHandle@@VsymbolHandle@@1PAVThread@@@Z 08055930 f   linkResolver.obj
 0001:000549b0       ?lookup_method_in_interfaces@LinkResolver@@CAXAAVmethodHandle@@VKlassHandle@@VsymbolHandle@@2PAVThread@@@Z 080559b0 f   linkResolver.obj
 0001:00054a00       ?lookup_implicit_method@LinkResolver@@CAXAAVmethodHandle@@VKlassHandle@@VsymbolHandle@@21PAVThread@@@Z 08055a00 f   linkResolver.obj
 0001:00054ac0       ?check_method_accessability@LinkResolver@@CAXVKlassHandle@@00VmethodHandle@@PAVThread@@@Z 08055ac0 f   linkResolver.obj
 0001:00054c00       ?resolve_method@LinkResolver@@CAXAAVmethodHandle@@VKlassHandle@@VsymbolHandle@@21_NPAVThread@@@Z 08055c00 f   linkResolver.obj
 0001:00054fb0       ?resolve_interface_method@LinkResolver@@CAXAAVmethodHandle@@VKlassHandle@@VsymbolHandle@@21_NPAVThread@@@Z 08055fb0 f   linkResolver.obj
 0001:000552c0       ?check_field_accessability@LinkResolver@@CAXVKlassHandle@@00AAVfieldDescriptor@@PAVThread@@@Z 080562c0 f   linkResolver.obj
 0001:00055390       ?resolve_field@LinkResolver@@SAXAAVFieldAccessInfo@@VconstantPoolHandle@@HW4Code@Bytecodes@@_N3PAVThread@@@Z 08056390 f   linkResolver.obj
 0001:00055870       ?linktime_resolve_static_method@LinkResolver@@CAXAAVmethodHandle@@VKlassHandle@@VsymbolHandle@@21_NPAVThread@@@Z 08056870 f   linkResolver.obj
 0001:00055930       ?linktime_resolve_special_method@LinkResolver@@CAXAAVmethodHandle@@VKlassHandle@@VsymbolHandle@@21_NPAVThread@@@Z 08056930 f   linkResolver.obj
 0001:00055ab0       ?runtime_resolve_special_method@LinkResolver@@CAXAAVCallInfo@@VmethodHandle@@VKlassHandle@@2_NPAVThread@@@Z 08056ab0 f   linkResolver.obj
 0001:00055d80       ?linktime_resolve_virtual_method@LinkResolver@@CAXAAVmethodHandle@@VKlassHandle@@VsymbolHandle@@21_NPAVThread@@@Z 08056d80 f   linkResolver.obj
 0001:00055e40       ?runtime_resolve_virtual_method@LinkResolver@@CAXAAVCallInfo@@VmethodHandle@@VKlassHandle@@VHandle@@2_NPAVThread@@@Z 08056e40 f   linkResolver.obj
 0001:00056080       ?runtime_resolve_interface_method@LinkResolver@@CAXAAVCallInfo@@VmethodHandle@@VKlassHandle@@VHandle@@2_NPAVThread@@@Z 08057080 f   linkResolver.obj
 0001:000562e0       ?linktime_resolve_interface_method_or_null@LinkResolver@@SA?AVmethodHandle@@VKlassHandle@@VsymbolHandle@@10_N@Z 080572e0 f   linkResolver.obj
 0001:00056360       ?linktime_resolve_virtual_method_or_null@LinkResolver@@SA?AVmethodHandle@@VKlassHandle@@VsymbolHandle@@10_N@Z 08057360 f   linkResolver.obj
 0001:000563e0       ?resolve_pool@LinkResolver@@CAXAAVKlassHandle@@AAVsymbolHandle@@10VconstantPoolHandle@@HPAVThread@@@Z 080573e0 f   linkResolver.obj
 0001:00056470       ?resolve_invokedynamic@LinkResolver@@SAXAAVCallInfo@@VconstantPoolHandle@@HPAVThread@@@Z 08057470 f   linkResolver.obj
 0001:00056520       ?resolve_method@LinkResolver@@SAXAAVmethodHandle@@AAVKlassHandle@@VconstantPoolHandle@@HPAVThread@@@Z 08057520 f   linkResolver.obj
 0001:000565c0       ?resolve_dynamic_method@LinkResolver@@SAXAAVmethodHandle@@AAVKlassHandle@@VconstantPoolHandle@@HPAVThread@@@Z 080575c0 f   linkResolver.obj
 0001:00056620       ?resolve_interface_method@LinkResolver@@SAXAAVmethodHandle@@AAVKlassHandle@@VconstantPoolHandle@@HPAVThread@@@Z 08057620 f   linkResolver.obj
 0001:000566c0       ?resolve_field@LinkResolver@@SAXAAVFieldAccessInfo@@VconstantPoolHandle@@HW4Code@Bytecodes@@_NPAVThread@@@Z 080576c0 f   linkResolver.obj
 0001:000566f0       ?resolve_static_call@LinkResolver@@SAXAAVCallInfo@@AAVKlassHandle@@VsymbolHandle@@2V3@_N4PAVThread@@@Z 080576f0 f   linkResolver.obj
 0001:000567c0       ?resolve_special_call@LinkResolver@@SAXAAVCallInfo@@VKlassHandle@@VsymbolHandle@@21_NPAVThread@@@Z 080577c0 f   linkResolver.obj
 0001:00056820       ?resolve_virtual_call@LinkResolver@@SAXAAVCallInfo@@VHandle@@VKlassHandle@@2VsymbolHandle@@32_N4PAVThread@@@Z 08057820 f   linkResolver.obj
 0001:00056880       ?resolve_interface_call@LinkResolver@@SAXAAVCallInfo@@VHandle@@VKlassHandle@@2VsymbolHandle@@32_N4PAVThread@@@Z 08057880 f   linkResolver.obj
 0001:000568e0       ?resolve_virtual_call_or_null@LinkResolver@@SA?AVmethodHandle@@VKlassHandle@@0VsymbolHandle@@10@Z 080578e0 f   linkResolver.obj
 0001:00056ad0       ?resolve_interface_call_or_null@LinkResolver@@SA?AVmethodHandle@@VKlassHandle@@0VsymbolHandle@@10@Z 08057ad0 f   linkResolver.obj
 0001:00056d20       ?resolve_virtual_vtable_index@LinkResolver@@SAHVKlassHandle@@0VsymbolHandle@@10@Z 08057d20 f   linkResolver.obj
 0001:00056f00       ?resolve_static_call_or_null@LinkResolver@@SA?AVmethodHandle@@VKlassHandle@@VsymbolHandle@@10@Z 08057f00 f   linkResolver.obj
 0001:00056fc0       ?resolve_special_call_or_null@LinkResolver@@SA?AVmethodHandle@@VKlassHandle@@VsymbolHandle@@10@Z 08057fc0 f   linkResolver.obj
 0001:00057060       ?resolve_invokestatic@LinkResolver@@SAXAAVCallInfo@@VconstantPoolHandle@@HPAVThread@@@Z 08058060 f   linkResolver.obj
 0001:000570d0       ?resolve_invokespecial@LinkResolver@@SAXAAVCallInfo@@VconstantPoolHandle@@HPAVThread@@@Z 080580d0 f   linkResolver.obj
 0001:00057140       ?resolve_invokevirtual@LinkResolver@@SAXAAVCallInfo@@VHandle@@VconstantPoolHandle@@HPAVThread@@@Z 08058140 f   linkResolver.obj
 0001:000571d0       ?resolve_invokeinterface@LinkResolver@@SAXAAVCallInfo@@VHandle@@VconstantPoolHandle@@HPAVThread@@@Z 080581d0 f   linkResolver.obj
 0001:00057260       ?resolve_invoke@LinkResolver@@SAXAAVCallInfo@@VHandle@@VconstantPoolHandle@@HW4Code@Bytecodes@@PAVThread@@@Z 08058260 f   linkResolver.obj
 0001:00057320       ??1InterpreterOopMap@@QAE@XZ 08058320 f   oopMapCache.obj
 0001:00057350       ?iterate_oop@InterpreterOopMap@@QAEXPAVOffsetClosure@@@Z 08058350 f   oopMapCache.obj
 0001:000573c0       ?resource_copy@InterpreterOopMap@@QAEXPAVOopMapCacheEntry@@@Z 080583c0 f   oopMapCache.obj
 0001:00057460       ?oop_iterate@OopMapCache@@QAEXPAVOopClosure@@@Z 08058460 f   oopMapCache.obj
 0001:000574a0       ?offset_do@VerifyClosure@@UAEXH@Z 080584a0 f i oopMapCache.obj
 0001:000574f0       ??0InterpreterOopMap@@QAE@XZ 080584f0 f   oopMapCache.obj
 0001:00057510       ?set_mask@OopMapCacheEntry@@IAEXPAVCellTypeState@@0H@Z 08058510 f   oopMapCache.obj
 0001:00057600       ??0OopMapCache@@QAE@XZ     08058600 f   oopMapCache.obj
 0001:00057680       ?flush@OopMapCache@@AAEXXZ 08058680 f   oopMapCache.obj
 0001:000576e0       ?oop_iterate@OopMapCache@@QAEXPAVOopClosure@@VMemRegion@@@Z 080586e0 f   oopMapCache.obj
 0001:00057730       ?iterate@NativeSignatureIterator@@QAEXXZ 08058730 f i oopMapCache.obj
 0001:000577b0       ?compute_map@OopMapForCacheEntry@@QAEXPAVThread@@@Z 080587b0 f   oopMapCache.obj
 0001:000578a0       ?fill_stackmap_for_opcodes@OopMapForCacheEntry@@EAEXPAVBytecodeStream@@PAVCellTypeState@@1H@Z 080588a0 f   oopMapCache.obj
 0001:000578d0       ??0MaskFillerForNative@@QAE@VmethodHandle@@PAIH@Z 080588d0 f i oopMapCache.obj
 0001:00057920       ?pass_object@MaskFillerForNative@@UAEXXZ 08058920 f i oopMapCache.obj
 0001:00057960       ?fill_for_native@OopMapCacheEntry@@IAEXVmethodHandle@@@Z 08058960 f   oopMapCache.obj
 0001:000579f0       ?fill@OopMapCacheEntry@@IAEXVmethodHandle@@H@Z 080589f0 f   oopMapCache.obj
 0001:00057b00       ??1OopMapCache@@QAE@XZ     08058b00 f   oopMapCache.obj
 0001:00057b20       ?flush_obsolete_entries@OopMapCache@@QAEXXZ 08058b20 f   oopMapCache.obj
 0001:00057c60       ?verify@OopMapCache@@QAEXXZ 08058c60 f   oopMapCache.obj
 0001:00057cc0       ?compute_one_oop_map@OopMapCache@@SAXVmethodHandle@@HPAVInterpreterOopMap@@@Z 08058cc0 f   oopMapCache.obj
 0001:00057d30       ?lookup@OopMapCache@@QAEXVmethodHandle@@HPAVInterpreterOopMap@@@Z 08058d30 f   oopMapCache.obj
 0001:00057e40       ?append@NodeList@@QAEHQAVResolveNode@@@Z 08058e40 f i c1_LIRGenerator.obj
 0001:00057e40       ?push@BlockPairList@@QAEHQAVBlockPair@@@Z 08058e40 f i c1_IR.obj
 0001:00057e40       ?append@intStack@@QAEHH@Z  08058e40 f i rewriter.obj
 0001:00057e40       ?push@Values@@QAEHQAVInstruction@@@Z 08058e40 f i c1_GraphBuilder.obj
 0001:00057e80       ?init_cp_map@Rewriter@@AAEXH@Z 08058e80 f i rewriter.obj
 0001:00057ef0       ?fill_init_vars@ResolveOopMapConflicts@@EAEXPAV?$GrowableArray@H@@@Z 08058ef0 f i rewriter.obj
 0001:00057f10       ?rewrite_jsrs@Rewriter@@AAE?AVmethodHandle@@V2@PAVThread@@@Z 08058f10 f   rewriter.obj
 0001:00057fc0       ?maybe_add_cp_cache_entry@Rewriter@@AAEHH@Z 08058fc0 f i rewriter.obj
 0001:00058020       ?rewrite_invokedynamic@Rewriter@@AAEXPAEH@Z 08059020 f   rewriter.obj
 0001:00058090       ?rewrite_Object_init@Rewriter@@AAEXVmethodHandle@@PAVThread@@@Z 08059090 f   rewriter.obj
 0001:00058220       ?compute_index_maps@Rewriter@@AAEXXZ 08059220 f   rewriter.obj
 0001:00058310       ?scan_method@Rewriter@@AAEXPAVmethodOopDesc@@@Z 08059310 f   rewriter.obj
 0001:000585d0       ?set_cache@constantPoolOopDesc@@QAEXPAVconstantPoolCacheOopDesc@@@Z 080595d0 f i rewriter.obj
 0001:00058620       ?make_constant_pool_cache@Rewriter@@AAEXPAVThread@@@Z 08059620 f   rewriter.obj
 0001:000587b0       ??0Rewriter@@AAE@VinstanceKlassHandle@@VconstantPoolHandle@@VobjArrayHandle@@PAVThread@@@Z 080597b0 f   rewriter.obj
 0001:000589d0       ?rewrite@Rewriter@@SAXVinstanceKlassHandle@@PAVThread@@@Z 080599d0 f   rewriter.obj
 0001:00058a80       ?rewrite@Rewriter@@SAXVinstanceKlassHandle@@VconstantPoolHandle@@VobjArrayHandle@@PAVThread@@@Z 08059a80 f   rewriter.obj
 0001:00058b10       ?entry@EntryPoint@@QBEPAEW4TosState@@@Z 08059b10 f   templateInterpreter.obj
 0001:00058b20       ?entry@DispatchTable@@QBE?AVEntryPoint@@H@Z 08059b20 f   templateInterpreter.obj
 0001:00058bb0       ?set_entry@DispatchTable@@QAEXHAAVEntryPoint@@@Z 08059bb0 f   templateInterpreter.obj
 0001:00058c20       ??0TemplateInterpreterGenerator@@QAE@PAVStubQueue@@@Z 08059c20 f   templateInterpreter.obj
 0001:00058c40       ?return_entry@TemplateInterpreter@@SAPAEW4TosState@@H@Z 08059c40 f   templateInterpreter.obj
 0001:00058c80       ?deopt_entry@TemplateInterpreter@@SAPAEW4TosState@@H@Z 08059c80 f   templateInterpreter.obj
 0001:00058cc0       ?notice_safepoints@TemplateInterpreter@@SAXXZ 08059cc0 f   templateInterpreter.obj
 0001:00058cf0       ?deopt_continue_after_entry@TemplateInterpreter@@SAPAEPAVmethodOopDesc@@PAEH_N@Z 08059cf0 f   templateInterpreter.obj
 0001:00058d00       ?bytecode_should_reexecute@TemplateInterpreter@@SA_NW4Code@Bytecodes@@@Z 08059d00 f   templateInterpreter.obj
 0001:00058d20       ?initialize@InterpreterCodeletInterface@@UAEXPAVStub@@H@Z 08059d20 f i templateInterpreter.obj
 0001:00058d30       ?finalize@InterpreterCodeletInterface@@UAEXPAVStub@@@Z 08059d30 f i templateInterpreter.obj
 0001:00058d50       ?verify@InterpreterCodeletInterface@@UAEXPAVStub@@@Z 08059d50 f i templateInterpreter.obj
 0001:00058d60       ?print@InterpreterCodeletInterface@@UAEXPAVStub@@@Z 08059d60 f i templateInterpreter.obj
 0001:00058d80       ?generate_and_dispatch@TemplateInterpreterGenerator@@IAEXPAVTemplate@@W4TosState@@@Z 08059d80 f   templateInterpreter.obj
 0001:00058e10       ?ignore_safepoints@TemplateInterpreter@@SAXXZ 08059e10 f   templateInterpreter.obj
 0001:00058e50       ?initialize@TemplateInterpreter@@SAXXZ 08059e50 f   templateInterpreter.obj
 0001:00058f40       ?set_safepoints_for_all_bytes@TemplateInterpreterGenerator@@IAEXXZ 08059f40 f   templateInterpreter.obj
 0001:00059140       ?set_short_entry_points@TemplateInterpreterGenerator@@IAEXPAVTemplate@@AAPAE11111111@Z 0805a140 f   templateInterpreter.obj
 0001:000592d0       ?deopt_reexecute_entry@TemplateInterpreter@@SAPAEPAVmethodOopDesc@@PAE@Z 0805a2d0 f   templateInterpreter.obj
 0001:00059330       ?set_entry_points@TemplateInterpreterGenerator@@IAEXW4Code@Bytecodes@@@Z 0805a330 f   templateInterpreter.obj
 0001:00059470       ?set_entry_points_for_all_bytes@TemplateInterpreterGenerator@@IAEXXZ 0805a470 f   templateInterpreter.obj
 0001:00059500       ?generate_all@TemplateInterpreterGenerator@@IAEXXZ 0805a500 f   templateInterpreter.obj
 0001:0005a970       ?generate@Template@@QAEXPAVInterpreterMacroAssembler@@@Z 0805b970 f   templateTable.obj
 0001:0005a9a0       ?call_VM@TemplateTable@@CAXPAVRegisterImpl@@PAE@Z 0805b9a0 f   templateTable.obj
 0001:0005a9c0       ?call_VM@TemplateTable@@CAXPAVRegisterImpl@@PAE0@Z 0805b9c0 f   templateTable.obj
 0001:0005a9e0       ?call_VM@TemplateTable@@CAXPAVRegisterImpl@@PAE00@Z 0805b9e0 f   templateTable.obj
 0001:0005aa10       ?call_VM@TemplateTable@@CAXPAVRegisterImpl@@PAE000@Z 0805ba10 f   templateTable.obj
 0001:0005aa40       ?unimplemented@MacroAssembler@@QAEXPBD@Z 0805ba40 f i templateTable.obj
 0001:0005aa80       ?bytecode@Template@@QBE?AW4Code@Bytecodes@@XZ 0805ba80 f   templateTable.obj
 0001:0005aac0       ?float_cmp@TemplateTable@@CAXH@Z 0805bac0 f   templateTable.obj
 0001:0005aae0       ?double_cmp@TemplateTable@@CAXH@Z 0805bae0 f   templateTable.obj
 0001:0005ab00       ?_goto@TemplateTable@@CAXXZ 0805bb00 f   templateTable.obj
 0001:0005ab10       ?goto_w@TemplateTable@@CAXXZ 0805bb10 f   templateTable.obj
 0001:0005ab20       ?jsr_w@TemplateTable@@CAXXZ 0805bb20 f   templateTable.obj
 0001:0005ab30       ?jsr@TemplateTable@@CAXXZ  0805bb30 f   templateTable.obj
 0001:0005ab40       ?initialize@TemplateTable@@SAXXZ 0805bb40 f   templateTable.obj
 0001:0005cd80       ?templateTable_init@@YAXXZ 0805dd80 f   templateTable.obj
 0001:0005cd90       ??2_ValueObj@@SAPAXI@Z     0805dd90 f   allocation.obj
 0001:0005cdb0       ??3_ValueObj@@SAXPAX@Z     0805ddb0 f   allocation.obj
 0001:0005cdd0       ?signal_out_of_memory@Arena@@IBEXIPBD@Z 0805ddd0 f   allocation.obj
 0001:0005ce00       ??2CHeapObj@@SAPAXI@Z      0805de00 f   allocation.obj
 0001:0005ce40       ??2ResourceObj@@SAPAXIW4allocation_type@0@@Z 0805de40 f   allocation.obj
 0001:0005cea0       ?OSR_migration_end@SharedRuntime@@SAXPAH@Z 0805dea0 f   sharedRuntime.obj
 0001:0005cea0       ??3CHeapObj@@SAXPAX@Z      0805dea0 f   allocation.obj
 0001:0005cea0       ??3ResourceObj@@SAXPAX@Z   0805dea0 f   allocation.obj
 0001:0005ceb0       ?allocate@ChunkPool@@QAEPAXI@Z 0805deb0 f i allocation.obj
 0001:0005cf20       ?free@ChunkPool@@QAEXPAVChunk@@@Z 0805df20 f i allocation.obj
 0001:0005cf60       ?free_all_but@ChunkPool@@QAEXI@Z 0805df60 f i allocation.obj
 0001:0005cfd0       ?initialize@ChunkPool@@SAXXZ 0805dfd0 f i allocation.obj
 0001:0005d060       ?chunkpool_init@@YAXXZ     0805e060 f   allocation.obj
 0001:0005d070       ?task@ChunkPoolCleaner@@UAEXXZ 0805e070 f i allocation.obj
 0001:0005d0a0       ??2Chunk@@SAPAXII@Z        0805e0a0 f   allocation.obj
 0001:0005d130       ??3Chunk@@SAXPAX@Z         0805e130 f   allocation.obj
 0001:0005d1d0       ?next_chop@Chunk@@QAEXXZ   0805e1d0 f   allocation.obj
 0001:0005d200       ?start_chunk_pool_cleaner_task@Chunk@@SAXXZ 0805e200 f   allocation.obj
 0001:0005d250       ??0Arena@@QAE@I@Z          0805e250 f   allocation.obj
 0001:0005d2a0       ??0Arena@@QAE@XZ           0805e2a0 f   allocation.obj
 0001:0005d2f0       ?destruct_contents@Arena@@QAEXXZ 0805e2f0 f   allocation.obj
 0001:0005d330       ?used@Arena@@QBEIXZ        0805e330 f   allocation.obj
 0001:0005d360       ?grow@Arena@@IAEPAXI@Z     0805e360 f   allocation.obj
 0001:0005d400       ?contains@Arena@@QBE_NPBX@Z 0805e400 f   allocation.obj
 0001:0005d450       ?move_contents@Arena@@QAEPAV1@PAV1@@Z 0805e450 f   allocation.obj
 0001:0005d490       ??1Arena@@QAE@XZ           0805e490 f   allocation.obj
 0001:0005d4a0       ?Arealloc@Arena@@QAEPAXPAXII@Z 0805e4a0 f   allocation.obj
 0001:0005d530       ?write_ref_array@BarrierSet@@QAEXPAVHeapWord@@I@Z 0805e530 f i barrierSet.obj
 0001:0005d570       ?static_write_ref_array_pre@BarrierSet@@SAXPAVHeapWord@@I@Z 0805e570 f   barrierSet.obj
 0001:0005d590       ?static_write_ref_array_post@BarrierSet@@SAXPAVHeapWord@@I@Z 0805e590 f   barrierSet.obj
 0001:0005d5d0       ?serialize@BlockOffsetArrayContigSpace@@QAEXPAVSerializeOopClosure@@@Z 0805e5d0 f   blockOffsetTable.obj
 0001:0005d610       ?last_active_index@BlockOffsetArrayContigSpace@@UBEIXZ 0805e610 f   blockOffsetTable.obj
 0001:0005d620       ?resize@BlockOffsetSharedArray@@QAEXI@Z 0805e620 f   blockOffsetTable.obj
 0001:0005d6b0       ?serialize@BlockOffsetSharedArray@@QAEXPAVSerializeOopClosure@@PAVHeapWord@@1@Z 0805e6b0 f   blockOffsetTable.obj
 0001:0005d6f0       ?check_all_cards@BlockOffsetArray@@QBEXII@Z 0805e6f0 f   blockOffsetTable.obj
 0001:0005d880       ?verify@BlockOffsetArray@@QBEXXZ 0805e880 f   blockOffsetTable.obj
 0001:0005d8e0       ?block_start_unsafe@BlockOffsetArrayNonContigSpace@@UBEPAVHeapWord@@PBX@Z 0805e8e0 f   blockOffsetTable.obj
 0001:0005d980       ?block_start_careful@BlockOffsetArrayNonContigSpace@@QBEPAVHeapWord@@PBX@Z 0805e980 f   blockOffsetTable.obj
 0001:0005d9f0       ?last_active_index@BlockOffsetArrayNonContigSpace@@UBEIXZ 0805e9f0 f   blockOffsetTable.obj
 0001:0005da10       ?block_start_unsafe@BlockOffsetArrayContigSpace@@UBEPAVHeapWord@@PBX@Z 0805ea10 f   blockOffsetTable.obj
 0001:0005dad0       ?initialize_threshold@BlockOffsetArrayContigSpace@@QAEPAVHeapWord@@XZ 0805ead0 f   blockOffsetTable.obj
 0001:0005daf0       ?set_offset_array@BlockOffsetSharedArray@@IAEXIIE_N@Z 0805eaf0 f i blockOffsetTable.obj
 0001:0005db60       ??0BlockOffsetSharedArray@@QAE@VMemRegion@@I@Z 0805eb60 f   blockOffsetTable.obj
 0001:0005dc10       ?set_remainder_to_point_to_start_incl@BlockOffsetArray@@IAEXII_N@Z 0805ec10 f   blockOffsetTable.obj
 0001:0005dca0       ?split_block@BlockOffsetArrayNonContigSpace@@QAEXPAVHeapWord@@II@Z 0805eca0 f   blockOffsetTable.obj
 0001:0005de60       ?set_remainder_to_point_to_start@BlockOffsetArray@@IAEXPAVHeapWord@@0_N@Z 0805ee60 f   blockOffsetTable.obj
 0001:0005dea0       ?do_block_internal@BlockOffsetArray@@IAEXPAVHeapWord@@0W4Action@1@_N@Z 0805eea0 f   blockOffsetTable.obj
 0001:0005df70       ?alloc_block@BlockOffsetArrayNonContigSpace@@UAEXPAVHeapWord@@0@Z 0805ef70 f   blockOffsetTable.obj
 0001:0005dfb0       ?mark_block@BlockOffsetArrayNonContigSpace@@QAEXPAVHeapWord@@0_N@Z 0805efb0 f   blockOffsetTable.obj
 0001:0005e040       ?alloc_block_work@BlockOffsetArrayContigSpace@@AAEXPAVHeapWord@@0@Z 0805f040 f   blockOffsetTable.obj
 0001:0005e0d0       ??0BlockOffsetArray@@QAE@PAVBlockOffsetSharedArray@@VMemRegion@@_N@Z 0805f0d0 f   blockOffsetTable.obj
 0001:0005e140       ?resize@BlockOffsetArray@@UAEXI@Z 0805f140 f i blockOffsetTable.obj
 0001:0005e180       ?set_offset_array@BlockOffsetSharedArray@@IAEXPAVHeapWord@@0E_N@Z 0805f180 f i blockOffsetTable.obj
 0001:0005e200       ?alloc_block@BlockOffsetArray@@UAEXPAVHeapWord@@0@Z 0805f200 f   blockOffsetTable.obj
 0001:0005e200       ?single_block@BlockOffsetArray@@QAEXPAVHeapWord@@0@Z 0805f200 f   blockOffsetTable.obj
 0001:0005e220       ?find_covering_region_containing@CardTableModRefBS@@IAEHPAVHeapWord@@@Z 0805f220 f   cardTableModRefBS.obj
 0001:0005e260       ?largest_prev_committed_end@CardTableModRefBS@@IBEPAVHeapWord@@H@Z 0805f260 f   cardTableModRefBS.obj
 0001:0005e290       ?committed_unique_to_self@CardTableModRefBS@@IBE?AVMemRegion@@HV2@@Z 0805f290 f   cardTableModRefBS.obj
 0001:0005e320       ?ct_max_alignment_constraint@CardTableModRefBS@@SAIXZ 0805f320 f   cardTableModRefBS.obj
 0001:0005e330       ?verify@CardTableModRefBS@@QAEXXZ 0805f330 f   cardTableModRefBS.obj
 0001:0005e360       ?write_ref_field_pre_work@BarrierSet@@EAEXPAXPAVoopDesc@@@Z 0805f360 f i cardTableModRefBS.obj
 0001:0005e380       ?is_a@ModRefBarrierSet@@UAE_NW4Name@BarrierSet@@@Z 0805f380 f i cardTableModRefBS.obj
 0001:0005e3a0       ?write_prim_needs_barrier@ModRefBarrierSet@@UAE_NPAVHeapWord@@III@Z 0805f3a0 f i cardTableModRefBS.obj
 0001:0005e3b0       ?card_will_be_scanned@CardTableModRefBS@@MAE_NC@Z 0805f3b0 f i cardTableModRefBS.obj
 0001:0005e3b0       ?card_may_have_been_dirty@CardTableModRefBS@@MAE_NC@Z 0805f3b0 f i cardTableModRefBS.obj
 0001:0005e3d0       ??0CardTableModRefBS@@QAE@VMemRegion@@H@Z 0805f3d0 f   cardTableModRefBS.obj
 0001:0005e670       ?is_a@CardTableModRefBS@@UAE_NW4Name@BarrierSet@@@Z 0805f670 f i cardTableModRefBS.obj
 0001:0005e690       ?write_ref_needs_barrier@CardTableModRefBS@@UAE_NPAXPAVoopDesc@@@Z 0805f690 f i cardTableModRefBS.obj
 0001:0005e6c0       ?find_covering_region_by_base@CardTableModRefBS@@IAEHPAVHeapWord@@@Z 0805f6c0 f   cardTableModRefBS.obj
 0001:0005e750       ?resize_covered_region@CardTableModRefBS@@MAEXVMemRegion@@@Z 0805f750 f   cardTableModRefBS.obj
 0001:0005e950       ?write_ref_field_work@CardTableModRefBS@@MAEXPAXPAVoopDesc@@@Z 0805f950 f   cardTableModRefBS.obj
 0001:0005e970       ?mark_card_deferred@CardTableModRefBS@@QAE_NI@Z 0805f970 f   cardTableModRefBS.obj
 0001:0005e9d0       ?non_clean_card_iterate_work@CardTableModRefBS@@IAEXVMemRegion@@PAVMemRegionClosure@@_N@Z 0805f9d0 f   cardTableModRefBS.obj
 0001:0005eb30       ?dirty_MemRegion@CardTableModRefBS@@IAEXVMemRegion@@@Z 0805fb30 f   cardTableModRefBS.obj
 0001:0005eb70       ?invalidate@CardTableModRefBS@@UAEXVMemRegion@@_N@Z 0805fb70 f   cardTableModRefBS.obj
 0001:0005ebf0       ?clear@CardTableModRefBS@@UAEXVMemRegion@@@Z 0805fbf0 f   cardTableModRefBS.obj
 0001:0005ec80       ?dirty@CardTableModRefBS@@QAEXVMemRegion@@@Z 0805fc80 f   cardTableModRefBS.obj
 0001:0005ecc0       ?dirty_card_iterate@CardTableModRefBS@@QAEXVMemRegion@@PAVMemRegionClosure@@@Z 0805fcc0 f   cardTableModRefBS.obj
 0001:0005ed80       ?dirty_card_range_after_reset@CardTableModRefBS@@QAE?AVMemRegion@@V2@_NH@Z 0805fd80 f   cardTableModRefBS.obj
 0001:0005ee80       ?card_will_be_scanned@CardTableModRefBSForCTRS@@MAE_NC@Z 0805fe80 f   cardTableModRefBS.obj
 0001:0005eeb0       ?card_may_have_been_dirty@CardTableModRefBSForCTRS@@MAE_NC@Z 0805feb0 f   cardTableModRefBS.obj
 0001:0005eee0       ?write_region_work@CardTableModRefBS@@MAEXVMemRegion@@@Z 0805fee0 f i cardTableModRefBS.obj
 0001:0005eee0       ?write_ref_array_work@CardTableModRefBS@@MAEXVMemRegion@@@Z 0805fee0 f i cardTableModRefBS.obj
 0001:0005ef00       ?non_clean_card_iterate@CardTableModRefBS@@IAEXPAVSpace@@VMemRegion@@PAVDirtyCardToOopClosure@@PAVMemRegionClosure@@_N@Z 0805ff00 f   cardTableModRefBS.obj
 0001:0005ef60       ?mod_oop_in_space_iterate@CardTableModRefBS@@UAEXPAVSpace@@PAVOopClosure@@_N2@Z 0805ff60 f   cardTableModRefBS.obj
 0001:0005efc0       ?is_aligned@CardTableModRefBS@@UAE_NPAVHeapWord@@@Z 0805ffc0 f i cardTableModRefBS.obj
 0001:0005efc0       ?is_aligned@CardTableRS@@UAE_NPAVHeapWord@@@Z 0805ffc0 f i cardTableRS.obj
 0001:0005efe0       ?find_unused_youngergenP_card_value@CardTableRS@@AAECXZ 0805ffe0 f   cardTableRS.obj
 0001:0005f020       ?prepare_for_younger_refs_iterate@CardTableRS@@UAEX_N@Z 08060020 f   cardTableRS.obj
 0001:0005f050       ??0CardTableRS@@QAE@VMemRegion@@H@Z 08060050 f   cardTableRS.obj
 0001:0005f130       ?write_ref_field_gc_work@CardTableRS@@UAEXPAXPAVoopDesc@@@Z 08060130 f i cardTableRS.obj
 0001:0005f150       ?clear@CardTableRS@@UAEXVMemRegion@@@Z 08060150 f i cardTableRS.obj
 0001:0005f180       ?invalidate@CardTableRS@@UAEXVMemRegion@@_N@Z 08060180 f i cardTableRS.obj
 0001:0005f1b0       ?resize_covered_region@CardTableRS@@UAEXVMemRegion@@@Z 080601b0 f   cardTableRS.obj
 0001:0005f1e0       ?younger_refs_iterate@CardTableRS@@UAEXPAVGeneration@@PAVOopsInGenClosure@@@Z 080601e0 f   cardTableRS.obj
 0001:0005f210       ?do_MemRegion@ClearNoncleanCardWrapper@@UAEXVMemRegion@@@Z 08060210 f i cardTableRS.obj
 0001:0005f2c0       ?clear_card@ClearNoncleanCardWrapper@@AAE_NPAC@Z 080602c0 f i cardTableRS.obj
 0001:0005f340       ?write_ref_field_gc_par@CardTableRS@@UAEXPAXPAVoopDesc@@@Z 08060340 f   cardTableRS.obj
 0001:0005f3b0       ?younger_refs_in_space_iterate@CardTableRS@@EAEXPAVSpace@@PAVOopsInGenClosure@@@Z 080603b0 f   cardTableRS.obj
 0001:0005f410       ?clear_into_younger@CardTableRS@@UAEXPAVGeneration@@_N@Z 08060410 f   cardTableRS.obj
 0001:0005f490       ?invalidate_or_clear@CardTableRS@@UAEXPAVGeneration@@_N1@Z 08060490 f   cardTableRS.obj
 0001:0005f5d0       ?do_generation@VerifyCTGenClosure@@UAEXPAVGeneration@@@Z 080605d0 f i cardTableRS.obj
 0001:0005f610       ?verify@CardTableRS@@UAEXXZ 08060610 f   cardTableRS.obj
 0001:0005f6e0       ?verify_aligned_region_empty@CardTableRS@@UAEXVMemRegion@@@Z 080606e0 f   cardTableRS.obj
 0001:0005f750       ?oop_iterate@oopDesc@@QAEHPAVOopClosure@@@Z 08060750 f i cardTableRS.obj
 0001:0005f770       ?do_oop@VerifyCleanCardClosure@@UAEXPAPAVoopDesc@@@Z 08060770 f i cardTableRS.obj
 0001:0005f780       ??$do_oop_work@PAVoopDesc@@@VerifyCleanCardClosure@@IAEXPAPAVoopDesc@@@Z 08060780 f i cardTableRS.obj
 0001:0005f7d0       ?do_oop@VerifyCleanCardClosure@@UAEXPAI@Z 080607d0 f i cardTableRS.obj
 0001:0005f7e0       ??$do_oop_work@I@VerifyCleanCardClosure@@IAEXPAI@Z 080607e0 f i cardTableRS.obj
 0001:0005f840       ?verify_space@CardTableRS@@AAEXPAVSpace@@PAVHeapWord@@@Z 08060840 f   cardTableRS.obj
 0001:0005fa00       ?do_space@VerifyCTSpaceClosure@@UAEXPAVSpace@@@Z 08060a00 f i cardTableRS.obj
 0001:0005fa20       ?reset@ClassifyObjectClosure@@QAEXXZ 08060a20 f   classify.obj
 0001:0005fa50       ?print@ClassifyObjectClosure@@QAEIXZ 08060a50 f   classify.obj
 0001:0005fae0       ?print@ClassifyInstanceKlassClosure@@QAEXXZ 08060ae0 f   classify.obj
 0001:0005fb00       ?reset@ClassifyInstanceKlassClosure@@QAEXXZ 08060b00 f   classify.obj
 0001:0005fb10       ?is_constantPool@oopDesc@@QBE_NXZ 08060b10 f i classify.obj
 0001:0005fb20       ?classify_object@ClassifyObjectClosure@@SA?AW4oop_type@@PAVoopDesc@@_N@Z 08060b20 f   classify.obj
 0001:0005fcc0       ?do_object@ClassifyObjectClosure@@UAEXPAVoopDesc@@@Z 08060cc0 f   classify.obj
 0001:0005fd10       ?do_object@ClassifyInstanceKlassClosure@@UAEXPAVoopDesc@@@Z 08060d10 f   classify.obj
 0001:0005fea0       ?initialize_perm_generation@CollectorPolicy@@IAEXW4Name@PermGen@@@Z 08060ea0 f   collectorPolicy.obj
 0001:0005ff10       ?initialize_size_policy@GenCollectorPolicy@@UAEXIII@Z 08060f10 f   collectorPolicy.obj
 0001:0005ff90       ?large_typearray_limit@GenCollectorPolicy@@UAEIXZ 08060f90 f   collectorPolicy.obj
 0001:0005ff90       ?large_typearray_limit@ParallelScavengeHeap@@UAEIXZ 08060f90 f   universe.obj
 0001:0005ffa0       ?initialize_generations@MarkSweepPolicy@@MAEXXZ 08060fa0 f   collectorPolicy.obj
 0001:000600a0       ?initialize_gc_policy_counters@MarkSweepPolicy@@UAEXXZ 080610a0 f   collectorPolicy.obj
 0001:00060110       ?set_gc_cause@CollectedHeap@@QAEXW4Cause@GCCause@@@Z 08061110 f i collectorPolicy.obj
 0001:00060170       ?constant_disp@indOffset8_win95_safeOper@@UBEHXZ 08061170 f i ad_x86_32.obj
 0001:00060170       ?constant@immI_2Oper@@UBEHXZ 08061170 f i ad_x86_32_clone.obj
 0001:00060170       ?constant@immI1Oper@@UBEHXZ 08061170 f i ad_x86_32_clone.obj
 0001:00060170       ?constant@immI_24Oper@@UBEHXZ 08061170 f i ad_x86_32_clone.obj
 0001:00060170       ?constant_disp@indOffset32Oper@@UBEHXZ 08061170 f i ad_x86_32.obj
 0001:00060170       ?disp_as_type@indOffset32XOper@@UBEPBVTypePtr@@XZ 08061170 f i ad_x86_32_clone.obj
 0001:00060170       ?constant@immI_M1Oper@@UBEHXZ 08061170 f i ad_x86_32_clone.obj
 0001:00060170       ?constant@immI_32_63Oper@@UBEHXZ 08061170 f i ad_x86_32_clone.obj
 0001:00060170       ?constant@immI_3Oper@@UBEHXZ 08061170 f i ad_x86_32_clone.obj
 0001:00060170       ?klass@oopDesc@@QBEPAVklassOopDesc@@XZ 08061170 f i ciEnv.obj
 0001:00060170       ?constant@immI_1Oper@@UBEHXZ 08061170 f i ad_x86_32_clone.obj
 0001:00060170       ?constant@immI_255Oper@@UBEHXZ 08061170 f i ad_x86_32_clone.obj
 0001:00060170       ?constant@immI0Oper@@UBEHXZ 08061170 f i ad_x86_32_clone.obj
 0001:00060170       ?type@immP0Oper@@UBEPBVType@@XZ 08061170 f i ad_x86_32_clone.obj
 0001:00060170       ?type@directOper@@UBEPBVType@@XZ 08061170 f i ad_x86_32_clone.obj
 0001:00060170       ?scale@indIndexScale_win95_safeOper@@UBEHXZ 08061170 f i ad_x86_32.obj
 0001:00060170       ?constant@immI16Oper@@UBEHXZ 08061170 f i ad_x86_32_clone.obj
 0001:00060170       ?constant@immI_1_31Oper@@UBEHXZ 08061170 f i ad_x86_32_clone.obj
 0001:00060170       ?constant_disp@indIndexOffset_win95_safeOper@@UBEHXZ 08061170 f i ad_x86_32.obj
 0001:00060170       ?constant@immI2Oper@@UBEHXZ 08061170 f i ad_x86_32_clone.obj
 0001:00060170       ?scale@indIndexScaleOffsetOper@@UBEHXZ 08061170 f i ad_x86_32_clone.obj
 0001:00060170       ?scale@indIndexScaleOper@@UBEHXZ 08061170 f i ad_x86_32_clone.obj
 0001:00060170       ?hash@methodOper@@UBEIXZ   08061170 f i machnode.obj
 0001:00060170       ?constant_disp@indOffset8Oper@@UBEHXZ 08061170 f i ad_x86_32_clone.obj
 0001:00060170       ?constant@immI8Oper@@UBEHXZ 08061170 f i ad_x86_32_clone.obj
 0001:00060170       ?constant_disp@load_long_indOffset32Oper@@UBEHXZ 08061170 f i ad_x86_32_clone.obj
 0001:00060170       ?type@immPOper@@UBEPBVType@@XZ 08061170 f i ad_x86_32_clone.obj
 0001:00060170       ?constant@immIOper@@UBEHXZ 08061170 f i ad_x86_32_clone.obj
 0001:00060170       ?constant@immI_65535Oper@@UBEHXZ 08061170 f i ad_x86_32_clone.obj
 0001:00060170       ?label@labelOper@@UBEPAVLabel@@XZ 08061170 f i ad_x86_32.obj
 0001:00060170       ?constant_encoding@ciObject@@QAEPAV_jobject@@XZ 08061170 f i ciObject.obj
 0001:00060170       ?constant@immI_16Oper@@UBEHXZ 08061170 f i ad_x86_32_clone.obj
 0001:00060170       ?scale@indIndexScaleOffset_win95_safeOper@@UBEHXZ 08061170 f i ad_x86_32.obj
 0001:00060170       ?method@methodOper@@UBEHXZ 08061170 f i ad_x86_32.obj
 0001:00060170       ?constant_disp@indIndexOffsetOper@@UBEHXZ 08061170 f i ad_x86_32_clone.obj
 0001:00060170       ?permanent_generation@CollectorPolicy@@UAEPAVPermanentGenerationSpec@@XZ 08061170 f i collectorPolicy.obj
 0001:00060170       ?constant_disp@indOffset32_win95_safeOper@@UBEHXZ 08061170 f i ad_x86_32.obj
 0001:00060170       ?constant@immI_32Oper@@UBEHXZ 08061170 f i ad_x86_32_clone.obj
 0001:00060180       ?initialize_gc_policy_counters@CollectorPolicy@@UAEXXZ 08061180 f i collectorPolicy.obj
 0001:000601a0       ?initialize_all@GenCollectorPolicy@@UAEXXZ 080611a0 f i collectorPolicy.obj
 0001:000601c0       ??_EVM_G1CollectFull@@UAEPAXI@Z 080611c0 f i g1CollectedHeap.obj
 0001:000601c0       ??_GVM_GC_Operation@@UAEPAXI@Z 080611c0 f i collectedHeap.obj
 0001:000601c0       ??_EVM_GC_Operation@@UAEPAXI@Z 080611c0 f i collectedHeap.obj
 0001:000601c0       ??_EVM_G1OperationWithAllocRequest@@UAEPAXI@Z 080611c0 f i vm_operations_g1.obj
 0001:000601c0       ??_GVM_G1CollectFull@@UAEPAXI@Z 080611c0 f i g1CollectedHeap.obj
 0001:000601c0       ??_EVM_GC_HeapInspection@@UAEPAXI@Z 080611c0 f i collectedHeap.obj
 0001:000601c0       ??_GVM_GenCollectFullConcurrent@@UAEPAXI@Z 080611c0 f i genCollectedHeap.obj
 0001:000601c0       ??_GVM_GenCollectForPermanentAllocation@@UAEPAXI@Z 080611c0 f i permGen.obj
 0001:000601c0       ??_EVM_GenCollectForPermanentAllocation@@UAEPAXI@Z 080611c0 f i permGen.obj
 0001:000601c0       ??_EVM_GenCollectFullConcurrent@@UAEPAXI@Z 080611c0 f i genCollectedHeap.obj
 0001:000601c0       ??_GVM_GC_HeapInspection@@UAEPAXI@Z 080611c0 f i collectedHeap.obj
 0001:000601c0       ??_GVM_G1OperationWithAllocRequest@@UAEPAXI@Z 080611c0 f i vm_operations_g1.obj
 0001:000601c0       ??_EVM_GenCollectForAllocation@@UAEPAXI@Z 080611c0 f i collectorPolicy.obj
 0001:000601c0       ??_GVM_GenCollectForAllocation@@UAEPAXI@Z 080611c0 f i collectorPolicy.obj
 0001:000601c0       ??_EVM_GenCollectFull@@UAEPAXI@Z 080611c0 f i genCollectedHeap.obj
 0001:000601c0       ??_GVM_GenCollectFull@@UAEPAXI@Z 080611c0 f i genCollectedHeap.obj
 0001:00060200       ?initialize_flags@CollectorPolicy@@MAEXXZ 08061200 f   collectorPolicy.obj
 0001:00060300       ?initialize_size_info@CollectorPolicy@@MAEXXZ 08061300 f   collectorPolicy.obj
 0001:00060410       ?create_rem_set@CollectorPolicy@@UAEPAVGenRemSet@@VMemRegion@@H@Z 08061410 f   collectorPolicy.obj
 0001:00060470       ?initialize_flags@GenCollectorPolicy@@MAEXXZ 08061470 f   collectorPolicy.obj
 0001:00060530       ?initialize_flags@TwoGenerationCollectorPolicy@@MAEXXZ 08061530 f   collectorPolicy.obj
 0001:000605b0       ?initialize_size_info@GenCollectorPolicy@@MAEXXZ 080615b0 f   collectorPolicy.obj
 0001:00060730       ?adjust_gen0_sizes@TwoGenerationCollectorPolicy@@QAE_NPAI0II@Z 08061730 f   collectorPolicy.obj
 0001:000607a0       ?initialize_size_info@TwoGenerationCollectorPolicy@@MAEXXZ 080617a0 f   collectorPolicy.obj
 0001:000608d0       ?expand_heap_and_allocate@GenCollectorPolicy@@MAEPAVHeapWord@@I_N@Z 080618d0 f   collectorPolicy.obj
 0001:00060960       ?should_try_older_generation_allocation@GenCollectorPolicy@@MBE_NI@Z 08061960 f   collectorPolicy.obj
 0001:000609d0       ?adr_type@MachReturnNode@@UBEPBVTypePtr@@XZ 080619d0 f i machnode.obj
 0001:000609d0       ?bottom_type@MachSpillCopyNode@@UBEPBVType@@XZ 080619d0 f i chaitin.obj
 0001:000609d0       ?exact_type@NewInstance@@UBEPAVciType@@XZ 080619d0 f i c1_Instruction.obj
 0001:000609d0       ?cisc_RegMask@popCountINode@@EBEPBVRegMask@@XZ 080619d0 f i ad_x86_32_gen.obj
 0001:000609d0       ?declared_type@CheckCast@@UBEPAVciType@@XZ 080619d0 f i c1_Instruction.obj
 0001:000609d0       ?top_vframe@InterpretedRFrame@@UBEPAVjavaVFrame@@XZ 080619d0 f i rframe.obj
 0001:000609d0       ?cisc_RegMask@sqrtXD_regNode@@EBEPBVRegMask@@XZ 080619d0 f i ad_x86_32_gen.obj
 0001:000609d0       ?cisc_RegMask@convI2L_regNode@@EBEPBVRegMask@@XZ 080619d0 f i ad_x86_32_gen.obj
 0001:000609d0       ?nm@CompiledRFrame@@UBEPAVnmethod@@XZ 080619d0 f i rframe.obj
 0001:000609d0       ?generations@GenCollectorPolicy@@UAEPAPAVGenerationSpec@@XZ 080619d0 f i collectorPolicy.obj
 0001:000609d0       ?cisc_RegMask@sqrtX_regNode@@EBEPBVRegMask@@XZ 080619d0 f i ad_x86_32_gen.obj
 0001:000609d0       ?num_inlined_bytecodes@ciEnv@@QBEHXZ 080619d0 f i ciEnv.obj
 0001:000609e0       ?cleared_all_soft_refs@CollectorPolicy@@QAEXXZ 080619e0 f   collectorPolicy.obj
 0001:00060a00       ?mem_allocate_work@GenCollectorPolicy@@UAEPAVHeapWord@@I_NPA_N@Z 08061a00 f   collectorPolicy.obj
 0001:00060d10       ?satisfy_failed_allocation@GenCollectorPolicy@@UAEPAVHeapWord@@I_N@Z 08061d10 f   collectorPolicy.obj
 0001:00060ea0       ?initialize_generations@TwoGenerationCollectorPolicy@@MAEXXZ 08061ea0 f i collectorPolicy.obj
 0001:00060ec0       ??0MarkSweepPolicy@@QAE@XZ 08061ec0 f   collectorPolicy.obj
 0001:00060f10       ?initialize_performance_counters@CompactingPermGenGen@@AAEXXZ 08061f10 f   compactingPermGenGen.obj
 0001:00060f90       ?contiguous_available@CompactingPermGenGen@@UBEIXZ 08061f90 f   compactingPermGenGen.obj
 0001:00060fa0       ?max_capacity@CompactingPermGenGen@@UBEIXZ 08061fa0 f   compactingPermGenGen.obj
 0001:00060fb0       ?remap_shared_readonly_as_readwrite@CompactingPermGenGen@@SA_NXZ 08061fb0 f   compactingPermGenGen.obj
 0001:00060fd0       ?set_saved_mark@ContiguousSpace@@UAEXXZ 08061fd0 f i compactingPermGenGen.obj
 0001:00060fe0       ?used@ContiguousSpace@@UBEIXZ 08061fe0 f i compactingPermGenGen.obj
 0001:00060ff0       ?free@ContiguousSpace@@UBEIXZ 08061ff0 f i compactingPermGenGen.obj
 0001:00061000       ?used_region@ContiguousSpace@@UBE?AVMemRegion@@XZ 08062000 f i compactingPermGenGen.obj
 0001:00061020       ?obj_allocated_since_save_marks@ContiguousSpace@@UBE_NQAVoopDesc@@@Z 08062020 f i compactingPermGenGen.obj
 0001:00061040       ?block_is_obj@ContiguousSpace@@UBE_NPBVHeapWord@@@Z 08062040 f i compactingPermGenGen.obj
 0001:00061060       ?allocate@OffsetTableContigSpace@@UAEPAVHeapWord@@I@Z 08062060 f i compactingPermGenGen.obj
 0001:00061090       ?par_allocate@OffsetTableContigSpace@@UAEPAVHeapWord@@I@Z 08062090 f i compactingPermGenGen.obj
 0001:000610e0       ?update_counters@CompactingPermGenGen@@UAEXXZ 080620e0 f   compactingPermGenGen.obj
 0001:00061130       ?space_iterate@CompactingPermGenGen@@UAEXPAVSpaceClosure@@_N@Z 08062130 f   compactingPermGenGen.obj
 0001:00061180       ?print_on@CompactingPermGenGen@@UBEXPAVoutputStream@@@Z 08062180 f   compactingPermGenGen.obj
 0001:00061200       ?younger_refs_iterate@CompactingPermGenGen@@UAEXPAVOopsInGenClosure@@@Z 08062200 f   compactingPermGenGen.obj
 0001:00061260       ?adjust_pointers@CompactingPermGenGen@@UAEXXZ 08062260 f   compactingPermGenGen.obj
 0001:00061270       ?compact@CompactingPermGenGen@@UAEXXZ 08062270 f   compactingPermGenGen.obj
 0001:00061280       ?clear_remembered_set@CompactingPermGenGen@@UAEXXZ 08062280 f   compactingPermGenGen.obj
 0001:000612b0       ?verify@CompactingPermGenGen@@UAEX_N@Z 080622b0 f   compactingPermGenGen.obj
 0001:00061310       ?reset_after_compaction@ContiguousSpace@@UAEXXZ 08062310 f i compactingPermGenGen.obj
 0001:00061320       ?pre_adjust_pointers@CompactingPermGenGen@@UAEXXZ 08062320 f   compactingPermGenGen.obj
 0001:000613b0       ??0OneContigSpaceCardGeneration@@QAE@VReservedSpace@@IIHPAVGenRemSet@@PAVContiguousSpace@@@Z 080623b0 f i compactingPermGenGen.obj
 0001:00061420       ?is_maximal_no_gc@Generation@@UBE_NXZ 08062420 f i compactingPermGenGen.obj
 0001:00061430       ?save_used_region@Generation@@UAEXXZ 08062430 f i compactingPermGenGen.obj
 0001:00061460       ?should_allocate@Generation@@UAE_NI_N@Z 08062460 f i compactingPermGenGen.obj
 0001:000614a0       ?tlab_capacity@Generation@@UBEIXZ 080624a0 f i compactingPermGenGen.obj
 0001:000614c0       ?unsafe_max_tlab_alloc@Generation@@UBEIXZ 080624c0 f i compactingPermGenGen.obj
 0001:000614e0       ?should_collect@Generation@@UAE_N_NI0@Z 080624e0 f i compactingPermGenGen.obj
 0001:000614e0       ?should_collect@ConcurrentMarkSweepGeneration@@UAE_N_NI0@Z 080624e0 f i concurrentMarkSweepGeneration.obj
 0001:00061510       ?collection_attempt_is_safe@Generation@@UAE_NXZ 08062510 f i compactingPermGenGen.obj
 0001:00061530       ?time_of_last_gc@Generation@@UAE_J_J@Z 08062530 f i compactingPermGenGen.obj
 0001:00061540       ?update_time_of_last_gc@Generation@@UAEX_J@Z 08062540 f i compactingPermGenGen.obj
 0001:00061560       ?pre_adjust_pointers@Generation@@UAEXXZ 08062560 f i compactingPermGenGen.obj
 0001:00061580       ?post_compact@Generation@@UAEXXZ 08062580 f i compactingPermGenGen.obj
 0001:000615a0       ?counters@Generation@@UAEPAVCollectorCounters@@XZ 080625a0 f i compactingPermGenGen.obj
 0001:000615b0       ?is_in@OneContigSpaceCardGeneration@@UBE_NPBX@Z 080625b0 f i compactingPermGenGen.obj
 0001:000615c0       ?first_compaction_space@OneContigSpaceCardGeneration@@UBEPAVCompactibleSpace@@XZ 080625c0 f i compactingPermGenGen.obj
 0001:000615d0       ?allocate@OneContigSpaceCardGeneration@@UAEPAVHeapWord@@I_N@Z 080625d0 f i compactingPermGenGen.obj
 0001:000615f0       ?par_allocate@OneContigSpaceCardGeneration@@UAEPAVHeapWord@@I_N@Z 080625f0 f i compactingPermGenGen.obj
 0001:00061610       ?block_is_obj@OneContigSpaceCardGeneration@@UBE_NPBVHeapWord@@@Z 08062610 f i compactingPermGenGen.obj
 0001:00061630       ?block_size@OneContigSpaceCardGeneration@@UBEIPBVHeapWord@@@Z 08062630 f i compactingPermGenGen.obj
 0001:00061660       ?do_object@AdjustSharedObjectClosure@@UAEXPAVoopDesc@@@Z 08062660 f i compactingPermGenGen.obj
 0001:000616a0       ?adjust_pointers@oopDesc@@QAEHXZ 080626a0 f i compactingPermGenGen.obj
 0001:000616b0       ?prototype_for_object@markOopDesc@@SAPAV1@PAVoopDesc@@@Z 080626b0 f i compactingPermGenGen.obj
 0001:000616c0       ??0CompactingPermGenGen@@QAE@VReservedSpace@@0IHPAVGenRemSet@@PAVContiguousSpace@@PAVPermanentGenerationSpec@@@Z 080626c0 f   compactingPermGenGen.obj
 0001:00061e20       ?name@CompactingPermGenGen@@UBEPBDXZ 08062e20 f i compactingPermGenGen.obj
 0001:00061e30       ?short_name@CompactingPermGenGen@@UBEPBDXZ 08062e30 f i compactingPermGenGen.obj
 0001:00061e40       ?is_in@CompactingPermGenGen@@UBE_NPBX@Z 08062e40 f i compactingPermGenGen.obj
 0001:00061e80       ?block_is_obj@CompactingPermGenGen@@UBE_NPBVHeapWord@@@Z 08062e80 f i compactingPermGenGen.obj
 0001:00061ed0       ?block_size@CompactingPermGenGen@@UBEIPBVHeapWord@@@Z 08062ed0 f i compactingPermGenGen.obj
 0001:00061f70       ?do_oop@RecursiveAdjustSharedObjectClosure@@UAEXPAPAVoopDesc@@@Z 08062f70 f i compactingPermGenGen.obj
 0001:00061f80       ??$do_oop_work@PAVoopDesc@@@RecursiveAdjustSharedObjectClosure@@IAEXPAPAVoopDesc@@@Z 08062f80 f i compactingPermGenGen.obj
 0001:00061ff0       ?init_mark@oopDesc@@QAEXXZ 08062ff0 f i compactingPermGenGen.obj
 0001:00062010       ?do_oop@RecursiveAdjustSharedObjectClosure@@UAEXPAI@Z 08063010 f i compactingPermGenGen.obj
 0001:00062020       ??$do_oop_work@I@RecursiveAdjustSharedObjectClosure@@IAEXPAI@Z 08063020 f i compactingPermGenGen.obj
 0001:000620b0       ?do_oop@TraversePlaceholdersClosure@@UAEXPAPAVoopDesc@@@Z 080630b0 f i compactingPermGenGen.obj
 0001:000620c0       ??$do_oop_work@PAVoopDesc@@@TraversePlaceholdersClosure@@IAEXPAPAVoopDesc@@@Z 080630c0 f i compactingPermGenGen.obj
 0001:00062130       ?do_oop@TraversePlaceholdersClosure@@UAEXPAI@Z 08063130 f i compactingPermGenGen.obj
 0001:00062140       ??$do_oop_work@I@TraversePlaceholdersClosure@@IAEXPAI@Z 08063140 f i compactingPermGenGen.obj
 0001:000621c0       ?do_void@EvacuateFollowersClosure@DefNewGeneration@@UAEXXZ 080631c0 f   defNewGeneration.obj
 0001:000621f0       ?expand_and_allocate@DefNewGeneration@@UAEPAVHeapWord@@I_N0@Z 080631f0 f   defNewGeneration.obj
 0001:00062210       ?name@DefNewGeneration@@UBEPBDXZ 08063210 f   defNewGeneration.obj
 0001:00062220       ?unsafe_max_tlab_alloc@DefNewGeneration@@UBEIXZ 08063220 f   defNewGeneration.obj
 0001:00062230       ?incr_age@markOopDesc@@QBEPAV1@XZ 08063230 f i defNewGeneration.obj
 0001:00062260       ?decode_pointer@markOopDesc@@QAEPAXXZ 08063260 f i defNewGeneration.obj
 0001:00062280       ?cross_threshold@CompactibleSpace@@MAEPAVHeapWord@@PAV2@0@Z 08063280 f i defNewGeneration.obj
 0001:00062290       ?set_end@EdenSpace@@UAEXPAVHeapWord@@@Z 08063290 f i defNewGeneration.obj
 0001:000622a0       ?incr_age@oopDesc@@QAEXXZ  080632a0 f i defNewGeneration.obj
 0001:00062330       ??0IsAliveClosure@DefNewGeneration@@QAE@PAVGeneration@@@Z 08063330 f   defNewGeneration.obj
 0001:00062350       ?do_object_b@IsAliveClosure@DefNewGeneration@@UAE_NPAVoopDesc@@@Z 08063350 f   defNewGeneration.obj
 0001:00062390       ??0KeepAliveClosure@DefNewGeneration@@QAE@PAVScanWeakRefClosure@@@Z 08063390 f   defNewGeneration.obj
 0001:000623c0       ??0ScanWeakRefClosure@@QAE@PAVDefNewGeneration@@@Z 080633c0 f   defNewGeneration.obj
 0001:000623f0       ?do_oop@FilteringClosure@@UAEXPAPAVoopDesc@@@Z 080633f0 f   defNewGeneration.obj
 0001:00062410       ?do_oop@FilteringClosure@@UAEXPAI@Z 08063410 f   defNewGeneration.obj
 0001:00062440       ?compute_space_boundaries@DefNewGeneration@@IAEXI_N0@Z 08063440 f   defNewGeneration.obj
 0001:00062580       ?swap_spaces@DefNewGeneration@@IAEXXZ 08063580 f   defNewGeneration.obj
 0001:000625d0       ?expand@DefNewGeneration@@QAE_NI@Z 080635d0 f   defNewGeneration.obj
 0001:00062620       ?compute_new_size@DefNewGeneration@@UAEXXZ 08063620 f   defNewGeneration.obj
 0001:00062740       ?object_iterate_since_last_GC@DefNewGeneration@@UAEXPAVObjectClosure@@@Z 08063740 f   defNewGeneration.obj
 0001:00062750       ?capacity@DefNewGeneration@@UBEIXZ 08063750 f   defNewGeneration.obj
 0001:00062770       ?used@DefNewGeneration@@UBEIXZ 08063770 f   defNewGeneration.obj
 0001:000627a0       ?free@DefNewGeneration@@UBEIXZ 080637a0 f   defNewGeneration.obj
 0001:000627d0       ?max_capacity@DefNewGeneration@@UBEIXZ 080637d0 f   defNewGeneration.obj
 0001:00062810       ?contiguous_available@DefNewGeneration@@UBEIXZ 08063810 f   defNewGeneration.obj
 0001:00062810       ?unsafe_max_alloc_nogc@DefNewGeneration@@UBEIXZ 08063810 f   defNewGeneration.obj
 0001:00062820       ?tlab_capacity@DefNewGeneration@@UBEIXZ 08063820 f   defNewGeneration.obj
 0001:00062820       ?capacity_before_gc@DefNewGeneration@@UBEIXZ 08063820 f   defNewGeneration.obj
 0001:00062830       ?top_addr@DefNewGeneration@@UBEPAPAVHeapWord@@XZ 08063830 f   defNewGeneration.obj
 0001:00062840       ?end_addr@DefNewGeneration@@UBEPAPAVHeapWord@@XZ 08063840 f   defNewGeneration.obj
 0001:00062850       ?object_iterate@DefNewGeneration@@UAEXPAVObjectClosure@@@Z 08063850 f   defNewGeneration.obj
 0001:00062880       ?space_iterate@DefNewGeneration@@UAEXPAVSpaceClosure@@_N@Z 08063880 f   defNewGeneration.obj
 0001:000628c0       ?init_assuming_no_promotion_failure@DefNewGeneration@@IAEXXZ 080638c0 f   defNewGeneration.obj
 0001:000628e0       ?save_marks@DefNewGeneration@@UAEXXZ 080638e0 f   defNewGeneration.obj
 0001:00062910       ?reset_saved_marks@DefNewGeneration@@UAEXXZ 08063910 f   defNewGeneration.obj
 0001:00062940       ?no_allocs_since_save_marks@DefNewGeneration@@UAE_NXZ 08063940 f   defNewGeneration.obj
 0001:00062960       ?oop_since_save_marks_iterate_v@DefNewGeneration@@UAEXPAVOopsInGenClosure@@@Z 08063960 f   defNewGeneration.obj
 0001:000629c0       ?oop_since_save_marks_iterate_nv@DefNewGeneration@@UAEXPAVScanClosure@@@Z 080639c0 f   defNewGeneration.obj
 0001:00062a20       ?oop_since_save_marks_iterate_nv@DefNewGeneration@@UAEXPAVFastScanClosure@@@Z 08063a20 f   defNewGeneration.obj
 0001:00062a80       ?oop_since_save_marks_iterate_nv@DefNewGeneration@@UAEXPAVParScanWithBarrierClosure@@@Z 08063a80 f   defNewGeneration.obj
 0001:00062ae0       ?oop_since_save_marks_iterate_nv@DefNewGeneration@@UAEXPAVParScanWithoutBarrierClosure@@@Z 08063ae0 f   defNewGeneration.obj
 0001:00062b40       ?contribute_scratch@DefNewGeneration@@UAEXAAPAUScratchBlock@@PAVGeneration@@I@Z 08063b40 f   defNewGeneration.obj
 0001:00062b80       ?collection_attempt_is_safe@DefNewGeneration@@UAE_NXZ 08063b80 f   defNewGeneration.obj
 0001:00062be0       ?gc_epilogue@DefNewGeneration@@UAEX_N@Z 08063be0 f   defNewGeneration.obj
 0001:00062c60       ?update_counters@DefNewGeneration@@UAEXXZ 08063c60 f   defNewGeneration.obj
 0001:00062d20       ?verify@DefNewGeneration@@UAEX_N@Z 08063d20 f   defNewGeneration.obj
 0001:00062d60       ?print_on@DefNewGeneration@@UBEXPAVoutputStream@@@Z 08063d60 f   defNewGeneration.obj
 0001:00062dd0       ?first_compaction_space@DefNewGeneration@@UBEPAVCompactibleSpace@@XZ 08063dd0 f   defNewGeneration.obj
 0001:00062de0       ?par_allocate@DefNewGeneration@@UAEPAVHeapWord@@I_N@Z 08063de0 f   defNewGeneration.obj
 0001:00062e00       ?gc_prologue@DefNewGeneration@@UAEX_N@Z 08063e00 f   defNewGeneration.obj
 0001:00062e10       ??$do_barrier@PAVoopDesc@@@OopsInGenClosure@@IAEXPAPAVoopDesc@@@Z 08063e10 f i defNewGeneration.obj
 0001:00062e40       ??$do_barrier@I@OopsInGenClosure@@IAEXPAI@Z 08063e40 f i defNewGeneration.obj
 0001:00062e80       ?do_void@FastEvacuateFollowersClosure@DefNewGeneration@@UAEXXZ 08063e80 f   defNewGeneration.obj
 0001:00062ed0       ??0ScanClosure@@QAE@PAVDefNewGeneration@@_N@Z 08063ed0 f   defNewGeneration.obj
 0001:00062f30       ?allocate_from_space@DefNewGeneration@@QAEPAVHeapWord@@I@Z 08063f30 f   defNewGeneration.obj
 0001:00062fb0       ?allocate@DefNewGeneration@@UAEPAVHeapWord@@I_N@Z 08063fb0 f   defNewGeneration.obj
 0001:00063070       ?free_segments@?$Stack@PAVmarkOopDesc@@@@IAEXPAPAVmarkOopDesc@@@Z 08064070 f i defNewGeneration.obj
 0001:00063070       ?free_segments@?$Stack@PAVKlass@@@@IAEXPAPAVKlass@@@Z 08064070 f i genMarkSweep.obj
 0001:00063070       ?free_segments@?$Stack@PAVoopDesc@@@@IAEXPAPAVoopDesc@@@Z 08064070 f i defNewGeneration.obj
 0001:00063070       ?free_segments@?$Stack@PAVDataLayout@@@@IAEXPAPAVDataLayout@@@Z 08064070 f i genMarkSweep.obj
 0001:000630c0       ?do_object@RemoveForwardPointerClosure@@UAEXPAVoopDesc@@@Z 080640c0 f i defNewGeneration.obj
 0001:000630d0       ?must_be_preserved_for_promotion_failure@markOopDesc@@QBE_NPAVoopDesc@@@Z 080640d0 f i defNewGeneration.obj
 0001:00063130       ?remove_forwarding_pointers@DefNewGeneration@@IAEXXZ 08064130 f   defNewGeneration.obj
 0001:00063310       ?preserve_mark@DefNewGeneration@@IAEXPAVoopDesc@@PAVmarkOopDesc@@@Z 08064310 f   defNewGeneration.obj
 0001:00063380       ?drain_promo_failure_scan_stack@DefNewGeneration@@IAEXXZ 08064380 f   defNewGeneration.obj
 0001:00063450       ??0DefNewGeneration@@QAE@VReservedSpace@@IHPBD@Z 08064450 f   defNewGeneration.obj
 0001:000637f0       ?used_region@Generation@@UBE?AVMemRegion@@XZ 080647f0 f i defNewGeneration.obj
 0001:00063810       ?should_allocate@DefNewGeneration@@UAE_NI_N@Z 08064810 f i defNewGeneration.obj
 0001:00063860       ?short_name@DefNewGeneration@@UBEPBDXZ 08064860 f i defNewGeneration.obj
 0001:00063870       ?collect@DefNewGeneration@@UAEX_N0I0@Z 08064870 f   defNewGeneration.obj
 0001:00063c10       ?handle_promotion_failure@DefNewGeneration@@IAEXPAVoopDesc@@@Z 08064c10 f   defNewGeneration.obj
 0001:00063cd0       ?copy_to_survivor_space@DefNewGeneration@@QAEPAVoopDesc@@PAV2@@Z 08064cd0 f   defNewGeneration.obj
 0001:00063da0       ??$do_oop_work@PAVoopDesc@@@ScanClosure@@IAEXPAPAVoopDesc@@@Z 08064da0 f i defNewGeneration.obj
 0001:00063e10       ??$do_oop_work@I@ScanClosure@@IAEXPAI@Z 08064e10 f i defNewGeneration.obj
 0001:00063ec0       ??$do_oop_work@PAVoopDesc@@@FastScanClosure@@IAEXPAPAVoopDesc@@@Z 08064ec0 f i defNewGeneration.obj
 0001:00063f30       ??$do_oop_work@I@FastScanClosure@@IAEXPAI@Z 08064f30 f i defNewGeneration.obj
 0001:00063fb0       ??$do_oop_work@PAVoopDesc@@@ScanWeakRefClosure@@IAEXPAPAVoopDesc@@@Z 08064fb0 f i defNewGeneration.obj
 0001:00064020       ??$do_oop_work@I@ScanWeakRefClosure@@IAEXPAI@Z 08065020 f i defNewGeneration.obj
 0001:000640a0       ?do_oop@ScanClosure@@UAEXPAPAVoopDesc@@@Z 080650a0 f   defNewGeneration.obj
 0001:000640b0       ?do_oop@ScanClosure@@UAEXPAI@Z 080650b0 f   defNewGeneration.obj
 0001:000640c0       ?do_oop@FastScanClosure@@UAEXPAPAVoopDesc@@@Z 080650c0 f   defNewGeneration.obj
 0001:000640d0       ?do_oop@FastScanClosure@@UAEXPAI@Z 080650d0 f   defNewGeneration.obj
 0001:000640e0       ?do_oop@ScanWeakRefClosure@@UAEXPAPAVoopDesc@@@Z 080650e0 f   defNewGeneration.obj
 0001:000640f0       ?do_oop@ScanWeakRefClosure@@UAEXPAI@Z 080650f0 f   defNewGeneration.obj
 0001:00064100       ??$do_oop_work@I@FastKeepAliveClosure@DefNewGeneration@@IAEXPAI@Z 08065100 f i defNewGeneration.obj
 0001:00064160       ?do_oop@KeepAliveClosure@DefNewGeneration@@UAEXPAPAVoopDesc@@@Z 08065160 f   defNewGeneration.obj
 0001:000641a0       ?do_oop@KeepAliveClosure@DefNewGeneration@@UAEXPAI@Z 080651a0 f   defNewGeneration.obj
 0001:000641e0       ?do_oop@FastKeepAliveClosure@DefNewGeneration@@UAEXPAPAVoopDesc@@@Z 080651e0 f   defNewGeneration.obj
 0001:00064230       ?do_oop@FastKeepAliveClosure@DefNewGeneration@@UAEXPAI@Z 08065230 f   defNewGeneration.obj
 0001:00064290       ?do_oop@StringHashCodeClosure@@UAEXPAI@Z 08065290 f i dump.obj
 0001:000642b0       ?sort_methods@@YAXPAVinstanceKlass@@PAVThread@@@Z 080652b0 f   dump.obj
 0001:00064310       ?dump_shared@CompactingPermGenGen@@SAHPAV?$GrowableArray@PAVoopDesc@@@@PAVThread@@@Z 08065310 f   dump.obj
 0001:000643d0       ?do_object@LinkClassesClosure@@UAEXPAVoopDesc@@@Z 080653d0 f i dump.obj
 0001:00064490       ?preload_and_dump@GenCollectedHeap@@UAEXPAVThread@@@Z 08065490 f   dump.obj
 0001:00064a50       ?do_oop@StringHashCodeClosure@@UAEXPAPAVoopDesc@@@Z 08065a50 f i dump.obj
 0001:00064ae0       ?doit@VM_PopulateDumpSharedSpace@@UAEXXZ 08065ae0 f i dump.obj
 0001:00065420       ?do_oop@MarkObjectsOopClosure@@UAEXPAI@Z 08066420 f i dump.obj
 0001:00065440       ?do_oop@ResolveForwardingClosure@@UAEXPAI@Z 08066440 f i dump.obj
 0001:00065460       ?do_space@ClearSpaceClosure@@UAEXPAVSpace@@@Z 08066460 f i dump.obj
 0001:00065480       ?do_int@WriteClosure@@UAEXPAH@Z 08066480 f i dump.obj
 0001:00065480       ?do_ptr@WriteClosure@@UAEXPAPAX@Z 08066480 f i dump.obj
 0001:00065480       ?do_oop@WriteClosure@@UAEXPAPAVoopDesc@@@Z 08066480 f i dump.obj
 0001:00065480       ?do_size_t@WriteClosure@@UAEXPAI@Z 08066480 f i dump.obj
 0001:000654c0       ?do_oop@WriteClosure@@UAEXPAI@Z 080664c0 f i dump.obj
 0001:000654e0       ?do_ptr@WriteClosure@@UAEXPAPAVHeapWord@@@Z 080664e0 f i dump.obj
 0001:000654e0       ?do_ptr@ReadClosure@@UAEXPAPAVHeapWord@@@Z 080664e0 f i restore.obj
 0001:000654f0       ?do_tag@WriteClosure@@UAEXH@Z 080664f0 f i dump.obj
 0001:00065530       ?do_region@WriteClosure@@UAEXPAEI@Z 08066530 f i dump.obj
 0001:000655f0       ?do_oop@MarkObjectsOopClosure@@UAEXPAPAVoopDesc@@@Z 080665f0 f i dump.obj
 0001:00065630       ?do_oop@ResolveForwardingClosure@@UAEXPAPAVoopDesc@@@Z 08066630 f i dump.obj
 0001:000656a0       ?patch@PatchKlassVtables@@QAEXPAPAXH@Z 080666a0 f i dump.obj
 0001:00065730       ??0MarkCommonReadOnly@@QAE@XZ 08066730 f i dump.obj
 0001:00065750       ??0MarkCommonSymbols@@QAE@XZ 08066750 f i dump.obj
 0001:00065770       ??0MarkStringValues@@QAE@XZ 08066770 f i dump.obj
 0001:00065790       ??0MarkReadWriteObjects@@QAE@XZ 08066790 f i dump.obj
 0001:000657b0       ??0MarkStringObjects@@QAE@XZ 080667b0 f i dump.obj
 0001:000657d0       ?do_object@RemoveUnshareableInfoClosure@@UAEXPAVoopDesc@@@Z 080667d0 f i dump.obj
 0001:00065840       ?do_object@MarkCommonReadOnly@@UAEXPAVoopDesc@@@Z 08066840 f i dump.obj
 0001:00065a30       ?do_oop@MarkObjectsSkippingKlassesOopClosure@@UAEXPAI@Z 08066a30 f i dump.obj
 0001:00065a50       ?do_oop@MarkObjectsSkippingKlassesOopClosure@@UAEXPAPAVoopDesc@@@Z 08066a50 f i dump.obj
 0001:00065a80       ?do_object@MarkStringValues@@UAEXPAVoopDesc@@@Z 08066a80 f i dump.obj
 0001:00065ae0       ?do_object@MarkReadWriteObjects@@UAEXPAVoopDesc@@@Z 08066ae0 f i dump.obj
 0001:00065bf0       ?do_object@MarkStringObjects@@UAEXPAVoopDesc@@@Z 08066bf0 f i dump.obj
 0001:00065c20       ?do_object@SortMethodsClosure@@UAEXPAVoopDesc@@@Z 08066c20 f i dump.obj
 0001:00065c60       ??0PatchOopsClosure@@QAE@PAVThread@@@Z 08066c60 f i dump.obj
 0001:00065c90       ?do_object@PatchOopsClosure@@UAEXPAVoopDesc@@@Z 08066c90 f i dump.obj
 0001:00065f20       ??0ClassifyInstanceKlassClosure@@QAE@XZ 08066f20 f i dump.obj
 0001:00065f50       ?do_object@ClearAllocCountClosure@@UAEXPAVoopDesc@@@Z 08066f50 f i dump.obj
 0001:00065f80       ??0PatchKlassVtables@@QAE@PAXPAVVirtualSpace@@@Z 08066f80 f i dump.obj
 0001:00065fd0       ??0?$GrowableArray@PAVSafePointNode@@@@QAE@XZ 08066fd0 f i macro.obj
 0001:00065fd0       ??0?$GrowableArray@PAVMonitorInfo@@@@QAE@XZ 08066fd0 f i biasedLocking.obj
 0001:00065fd0       ??0FieldBuffer@@QAE@XZ     08066fd0 f i c1_GraphBuilder.obj
 0001:00065fd0       ??0?$GrowableArray@PAVScopeValue@@@@QAE@XZ 08066fd0 f i debugInfo.obj
 0001:00065fd0       ??0?$GrowableArray@PAVAbstractLockNode@@@@QAE@XZ 08066fd0 f i callnode.obj
 0001:00065fd0       ??0?$GrowableArray@PAVklassOopDesc@@@@QAE@XZ 08066fd0 f i dump.obj
 0001:00065fd0       ??0?$GrowableArray@VHandle@@@@QAE@XZ 08066fd0 f i interpreterRuntime.obj
 0001:00066010       ?do_object@FingerprintMethodsClosure@@UAEXPAVoopDesc@@@Z 08067010 f i dump.obj
 0001:000660b0       ?do_object@MoveMarkedObjects@@UAEXPAVoopDesc@@@Z 080670b0 f i dump.obj
 0001:00066190       ?do_object@PatchKlassVtables@@UAEXPAVoopDesc@@@Z 08067190 f i dump.obj
 0001:000661e0       ?do_object@MarkCommonSymbols@@UAEXPAVoopDesc@@@Z 080671e0 f i dump.obj
 0001:00066380       ?do_object@MarkAndMoveOrderedReadOnly@@UAEXPAVoopDesc@@@Z 08067380 f i dump.obj
 0001:00066670       ?do_object@MarkAndMoveOrderedReadWrite@@UAEXPAVoopDesc@@@Z 08067670 f i dump.obj
 0001:00066840       ?error_stream@defaultStream@@SAPAU_iobuf@@XZ 08067840 f i filemap.obj
 0001:000668e0       ?fail_stop@FileMapInfo@@SAXPBDZZ 080678e0 f   filemap.obj
 0001:00066900       ?close@FileMapInfo@@QAEXXZ 08067900 f   filemap.obj
 0001:00066940       ?assert_mark@FileMapInfo@@SAX_N@Z 08067940 f   filemap.obj
 0001:00066960       ?is_in_shared_space@FileMapInfo@@QAE_NPBX@Z 08067960 f   filemap.obj
 0001:000669a0       ?fail_continue@FileMapInfo@@QAAXPBDZZ 080679a0 f   filemap.obj
 0001:00066a00       ?populate_header@FileMapInfo@@QAEXI@Z 08067a00 f   filemap.obj
 0001:00066b30       ?init_from_file@FileMapInfo@@AAE_NH@Z 08067b30 f   filemap.obj
 0001:00066ba0       ?open_for_read@FileMapInfo@@QAE_NXZ 08067ba0 f   filemap.obj
 0001:00066c10       ?open_for_write@FileMapInfo@@QAEXXZ 08067c10 f   filemap.obj
 0001:00066cb0       ?write_bytes@FileMapInfo@@QAEXPBXH@Z 08067cb0 f   filemap.obj
 0001:00066d40       ?align_file_position@FileMapInfo@@AAEXXZ 08067d40 f   filemap.obj
 0001:00066db0       ?remap_shared_readonly_as_readwrite@FileMapInfo@@QAE_NXZ 08067db0 f   filemap.obj
 0001:00066e80       ?validate@FileMapInfo@@QAE_NXZ 08067e80 f   filemap.obj
 0001:00067020       ?write_header@FileMapInfo@@QAEXXZ 08068020 f   filemap.obj
 0001:00067040       ?write_region@FileMapInfo@@QAEXHPADII_N1@Z 08068040 f   filemap.obj
 0001:000670f0       ?map_region@FileMapInfo@@QAEPADHVReservedSpace@@@Z 080680f0 f   filemap.obj
 0001:000671c0       ?initialize@FileMapInfo@@QAE_NXZ 080681c0 f   filemap.obj
 0001:00067230       ?write_space@FileMapInfo@@QAEXHPAVCompactibleSpace@@_N@Z 08068230 f   filemap.obj
 0001:00067270       ?map_space@FileMapInfo@@QAE_NHVReservedSpace@@PAVContiguousSpace@@@Z 08068270 f   filemap.obj
 0001:00067310       ?jni_lock_slow@GC_locker@@CAXXZ 08068310 f   gcLocker.obj
 0001:00067380       ?jni_unlock_slow@GC_locker@@CAXXZ 08068380 f   gcLocker.obj
 0001:00067430       ?stall_until_clear@GC_locker@@SAXXZ 08068430 f   gcLocker.obj
 0001:000674f0       ??0GenCollectedHeap@@QAE@PAVGenCollectorPolicy@@@Z 080684f0 f   genCollectedHeap.obj
 0001:00067570       ?ref_processing_init@GenCollectedHeap@@UAEXXZ 08068570 f   genCollectedHeap.obj
 0001:000675a0       ?capacity@GenCollectedHeap@@UBEIXZ 080685a0 f   genCollectedHeap.obj
 0001:000675f0       ?used@GenCollectedHeap@@UBEIXZ 080685f0 f   genCollectedHeap.obj
 0001:00067640       ?max_capacity@GenCollectedHeap@@UBEIXZ 08068640 f   genCollectedHeap.obj
 0001:00067690       ?attempt_allocation@GenCollectedHeap@@IAEPAVHeapWord@@I_N0@Z 08068690 f   genCollectedHeap.obj
 0001:00067700       ?mem_allocate@GenCollectedHeap@@UAEPAVHeapWord@@I_N0PA_N@Z 08068700 f   genCollectedHeap.obj
 0001:00067730       ?must_clear_all_soft_refs@GenCollectedHeap@@IAE_NXZ 08068730 f   genCollectedHeap.obj
 0001:00067740       ?satisfy_failed_allocation@GenCollectedHeap@@IAEPAVHeapWord@@I_N@Z 08068740 f   genCollectedHeap.obj
 0001:00067760       ?set_par_threads@GenCollectedHeap@@UAEXH@Z 08068760 f   genCollectedHeap.obj
 0001:00067790       ?supports_inline_contig_alloc@GenCollectedHeap@@UBE_NXZ 08068790 f   genCollectedHeap.obj
 0001:000677a0       ?top_addr@GenCollectedHeap@@UBEPAPAVHeapWord@@XZ 080687a0 f   genCollectedHeap.obj
 0001:000677b0       ?end_addr@GenCollectedHeap@@UBEPAPAVHeapWord@@XZ 080687b0 f   genCollectedHeap.obj
 0001:000677c0       ?unsafe_max_alloc@GenCollectedHeap@@UAEIXZ 080687c0 f   genCollectedHeap.obj
 0001:000677d0       ?oop_iterate@GenCollectedHeap@@UAEXPAVOopClosure@@@Z 080687d0 f   genCollectedHeap.obj
 0001:00067810       ?object_iterate_since_last_GC@GenCollectedHeap@@UAEXPAVObjectClosure@@@Z 08068810 f   genCollectedHeap.obj
 0001:00067850       ?supports_tlab_allocation@GenCollectedHeap@@UBE_NXZ 08068850 f   genCollectedHeap.obj
 0001:00067890       ?tlab_capacity@GenCollectedHeap@@UBEIPAVThread@@@Z 08068890 f   genCollectedHeap.obj
 0001:000678e0       ?unsafe_max_tlab_alloc@GenCollectedHeap@@UBEIPAVThread@@@Z 080688e0 f   genCollectedHeap.obj
 0001:00067930       ?allocate_new_tlab@GenCollectedHeap@@UAEPAVHeapWord@@I@Z 08068930 f   genCollectedHeap.obj
 0001:000679b0       ?gather_scratch@GenCollectedHeap@@QAEPAUScratchBlock@@PAVGeneration@@I@Z 080689b0 f   genCollectedHeap.obj
 0001:00067a10       ?release_scratch@GenCollectedHeap@@QAEXXZ 08068a10 f   genCollectedHeap.obj
 0001:00067a40       ?generation_iterate@GenCollectedHeap@@QAEXPAVGenClosure@1@_N@Z 08068a40 f   genCollectedHeap.obj
 0001:00067aa0       ?is_maximal_no_gc@GenCollectedHeap@@UBE_NXZ 08068aa0 f   genCollectedHeap.obj
 0001:00067ae0       ?heap@GenCollectedHeap@@SAPAV1@XZ 08068ae0 f   genCollectedHeap.obj
 0001:00067af0       ?do_generation@GenGCPrologueClosure@@UAEXPAVGeneration@@@Z 08068af0 f i genCollectedHeap.obj
 0001:00067b10       ?do_generation@GenGCEpilogueClosure@@UAEXPAVGeneration@@@Z 08068b10 f i genCollectedHeap.obj
 0001:00067b30       ?do_generation@GenEnsureParsabilityClosure@@UAEXPAVGeneration@@@Z 08068b30 f i genCollectedHeap.obj
 0001:00067b50       ??$MIN2@_J@@YA_J_J0@Z      08068b50 f i genCollectedHeap.obj
 0001:00067b80       ?permanent_capacity@SharedHeap@@UBEIXZ 08068b80 f i genCollectedHeap.obj
 0001:00067b90       ?permanent_used@SharedHeap@@UBEIXZ 08068b90 f i genCollectedHeap.obj
 0001:00067ba0       ?is_in_permanent@SharedHeap@@UBE_NPBX@Z 08068ba0 f i genCollectedHeap.obj
 0001:00067be0       ?is_permanent@SharedHeap@@UBE_NPBX@Z 08068be0 f i genCollectedHeap.obj
 0001:00067c00       ?permanent_mem_allocate@SharedHeap@@UAEPAVHeapWord@@I@Z 08068c00 f i genCollectedHeap.obj
 0001:00067c10       ?permanent_oop_iterate@SharedHeap@@UAEXPAVOopClosure@@@Z 08068c10 f i genCollectedHeap.obj
 0001:00067c20       ?permanent_object_iterate@SharedHeap@@UAEXPAVObjectClosure@@@Z 08068c20 f i genCollectedHeap.obj
 0001:00067c30       ?print_test@AdaptiveSizePolicyOutput@@AAE_NI@Z 08068c30 f i genCollectedHeap.obj
 0001:00067c80       ?size_policy@GenCollectedHeap@@UAEPAVAdaptiveSizePolicy@@XZ 08068c80 f i genCollectedHeap.obj
 0001:00067c90       ?is_in_closed_subset@GenCollectedHeap@@UBE_NPBX@Z 08068c90 f i genCollectedHeap.obj
 0001:00067cb0       ?card_mark_must_follow_store@GenCollectedHeap@@UBE_NXZ 08068cb0 f i genCollectedHeap.obj
 0001:00067cc0       ?can_elide_initializing_store_barrier@GenCollectedHeap@@UAE_NPAVoopDesc@@@Z 08068cc0 f i genCollectedHeap.obj
 0001:00067cc0       ?is_in_youngest@GenCollectedHeap@@QAE_NPAX@Z 08068cc0 f i genCollectedHeap.obj
 0001:00067cd0       ?can_elide_permanent_oop_store_barriers@GenCollectedHeap@@UBE_NXZ 08068cd0 f i genCollectedHeap.obj
 0001:00067ce0       ?allocate@GenCollectedHeap@@QAEPADIPAVPermanentGenerationSpec@@PAIPAHPAVReservedSpace@@@Z 08068ce0 f   genCollectedHeap.obj
 0001:00067e40       ?post_initialize@GenCollectedHeap@@UAEXXZ 08068e40 f   genCollectedHeap.obj
 0001:00067ee0       ?save_used_regions@GenCollectedHeap@@QAEXH_N@Z 08068ee0 f   genCollectedHeap.obj
 0001:00067f20       ?update_full_collections_completed@GenCollectedHeap@@QAEII@Z 08068f20 f   genCollectedHeap.obj
 0001:00067f80       ?do_oop@AssertIsPermClosure@@UAEXPAI@Z 08068f80 f i genCollectedHeap.obj
 0001:00067fa0       ?gen_process_weak_roots@GenCollectedHeap@@QAEXPAVOopClosure@@PAVCodeBlobClosure@@0@Z 08068fa0 f   genCollectedHeap.obj
 0001:00067ff0       ?oop_since_save_marks_iterate@GenCollectedHeap@@QAEXHPAVOopsInGenClosure@@0@Z 08068ff0 f   genCollectedHeap.obj
 0001:00068050       ?oop_since_save_marks_iterate@GenCollectedHeap@@QAEXHPAVScanClosure@@0@Z 08069050 f   genCollectedHeap.obj
 0001:000680b0       ?oop_since_save_marks_iterate@GenCollectedHeap@@QAEXHPAVFastScanClosure@@0@Z 080690b0 f   genCollectedHeap.obj
 0001:00068110       ?no_allocs_since_save_marks@GenCollectedHeap@@QAE_NH@Z 08069110 f   genCollectedHeap.obj
 0001:00068170       ?collect_locked@GenCollectedHeap@@AAEXW4Cause@GCCause@@H@Z 08069170 f   genCollectedHeap.obj
 0001:00068220       ?collect_mostly_concurrent@GenCollectedHeap@@AAEXW4Cause@GCCause@@@Z 08069220 f   genCollectedHeap.obj
 0001:000682d0       ?is_in@GenCollectedHeap@@UBE_NPBX@Z 080692d0 f   genCollectedHeap.obj
 0001:000683a0       ?oop_iterate@GenCollectedHeap@@UAEXVMemRegion@@PAVOopClosure@@@Z 080693a0 f   genCollectedHeap.obj
 0001:000683f0       ?object_iterate@GenCollectedHeap@@UAEXPAVObjectClosure@@@Z 080693f0 f   genCollectedHeap.obj
 0001:00068440       ?safe_object_iterate@GenCollectedHeap@@UAEXPAVObjectClosure@@@Z 08069440 f   genCollectedHeap.obj
 0001:00068490       ?space_containing@GenCollectedHeap@@UBEPAVSpace@@PBX@Z 08069490 f   genCollectedHeap.obj
 0001:000684e0       ?block_start@GenCollectedHeap@@UBEPAVHeapWord@@PBX@Z 080694e0 f   genCollectedHeap.obj
 0001:00068570       ?block_size@GenCollectedHeap@@UBEIPBVHeapWord@@@Z 08069570 f   genCollectedHeap.obj
 0001:00068600       ?block_is_obj@GenCollectedHeap@@UBE_NPBVHeapWord@@@Z 08069600 f   genCollectedHeap.obj
 0001:00068690       ?large_typearray_limit@GenCollectedHeap@@UAEIXZ 08069690 f   genCollectedHeap.obj
 0001:000686a0       ?do_generation@GenPrepareForVerifyClosure@@EAEXPAVGeneration@@@Z 080696a0 f i genCollectedHeap.obj
 0001:000686c0       ?space_iterate@GenCollectedHeap@@UAEXPAVSpaceClosure@@@Z 080696c0 f   genCollectedHeap.obj
 0001:00068710       ?save_marks@GenCollectedHeap@@QAEXXZ 08069710 f   genCollectedHeap.obj
 0001:00068750       ?prepare_for_compaction@GenCollectedHeap@@AAEXXZ 08069750 f   genCollectedHeap.obj
 0001:000687a0       ?gc_stats@GenCollectedHeap@@QBEPAVGCStats@@H@Z 080697a0 f   genCollectedHeap.obj
 0001:000687c0       ?verify@GenCollectedHeap@@UAEX_N00@Z 080697c0 f   genCollectedHeap.obj
 0001:000688a0       ?print_on@GenCollectedHeap@@UBEXPAVoutputStream@@@Z 080698a0 f   genCollectedHeap.obj
 0001:000688f0       ?gc_threads_do@GenCollectedHeap@@UBEXPAVThreadClosure@@@Z 080698f0 f   genCollectedHeap.obj
 0001:00068920       ?print_gc_threads_on@GenCollectedHeap@@UBEXPAVoutputStream@@@Z 08069920 f   genCollectedHeap.obj
 0001:00068950       ?print_tracing_info@GenCollectedHeap@@UBEXXZ 08069950 f   genCollectedHeap.obj
 0001:000689a0       ?gc_prologue@GenCollectedHeap@@MAEX_N@Z 080699a0 f   genCollectedHeap.obj
 0001:00068a20       ?gc_epilogue@GenCollectedHeap@@MAEX_N@Z 08069a20 f   genCollectedHeap.obj
 0001:00068ad0       ?ensure_parsability@GenCollectedHeap@@UAEX_N@Z 08069ad0 f   genCollectedHeap.obj
 0001:00068b30       ?do_generation@GenTimeOfLastGCClosure@@UAEXPAVGeneration@@@Z 08069b30 f i genCollectedHeap.obj
 0001:00068b80       ?millis_since_last_gc@GenCollectedHeap@@UAE_JXZ 08069b80 f   genCollectedHeap.obj
 0001:00068c40       ??0TraceCollectorStats@@QAE@PAVCollectorCounters@@@Z 08069c40 f i genCollectedHeap.obj
 0001:00068cc0       ??1TraceCollectorStats@@QAE@XZ 08069cc0 f i genCollectedHeap.obj
 0001:00068d20       ?do_collection@GenCollectedHeap@@IAEX_N0I0H@Z 08069d20 f   genCollectedHeap.obj
 0001:000694e0       ?do_full_collection@GenCollectedHeap@@IAEX_NH@Z 0806a4e0 f   genCollectedHeap.obj
 0001:00069560       ?prepare_for_verify@GenCollectedHeap@@UAEXXZ 0806a560 f   genCollectedHeap.obj
 0001:000695c0       ?handle_failed_promotion@GenCollectedHeap@@QAEPAVoopDesc@@PAVGeneration@@PAV2@I@Z 0806a5c0 f   genCollectedHeap.obj
 0001:00069650       ?gen_process_strong_roots@GenCollectedHeap@@QAEXH_N00W4ScanningOption@SharedHeap@@PAVOopsInGenClosure@@02@Z 0806a650 f   genCollectedHeap.obj
 0001:00069790       ?collect@GenCollectedHeap@@UAEXW4Cause@GCCause@@@Z 0806a790 f   genCollectedHeap.obj
 0001:00069800       ?collect_as_vm_thread@GenCollectedHeap@@UAEXW4Cause@GCCause@@@Z 0806a800 f   genCollectedHeap.obj
 0001:00069890       ??1CMSCollector@@QAE@XZ    0806a890 f i genCollectedHeap.obj
 0001:00069960       ?create_cms_collector@GenCollectedHeap@@AAE_NXZ 0806a960 f   genCollectedHeap.obj
 0001:000699f0       ?initialize@GenCollectedHeap@@UAEHXZ 0806a9f0 f   genCollectedHeap.obj
 0001:00069ce0       ?print_heap_change@Generation@@QBEXI@Z 0806ace0 f   generation.obj
 0001:00069d20       ?print@Generation@@UBEXXZ  0806ad20 f   generation.obj
 0001:00069d30       ?print_summary_info@Generation@@UAEXXZ 0806ad30 f   generation.obj
 0001:00069d40       ?do_space@GenerationIsInClosure@@UAEXPAVSpace@@@Z 0806ad40 f i generation.obj
 0001:00069d70       ?is_in@Generation@@UBE_NPBX@Z 0806ad70 f   generation.obj
 0001:00069db0       ?promotion_attempt_is_safe@Generation@@UBE_NI@Z 0806adb0 f   generation.obj
 0001:00069dd0       ?par_promote@Generation@@UAEPAVoopDesc@@HPAV2@PAVmarkOopDesc@@I@Z 0806add0 f   generation.obj
 0001:00069df0       ?par_promote_alloc_undo@Generation@@UAEXHPAVHeapWord@@I@Z 0806adf0 f   generation.obj
 0001:00069e10       ?block_start@Generation@@UBEPAVHeapWord@@PBX@Z 0806ae10 f   generation.obj
 0001:00069e40       ?block_size@Generation@@UBEIPBVHeapWord@@@Z 0806ae40 f   generation.obj
 0001:00069e70       ?block_is_obj@Generation@@UBE_NPBVHeapWord@@@Z 0806ae70 f   generation.obj
 0001:00069ea0       ?do_space@GenerationObjIterateClosure@@UAEXPAVSpace@@@Z 0806aea0 f i generation.obj
 0001:00069ec0       ?object_iterate@Generation@@UAEXPAVObjectClosure@@@Z 0806aec0 f   generation.obj
 0001:00069ef0       ?do_space@GenerationSafeObjIterateClosure@@UAEXPAVSpace@@@Z 0806aef0 f i generation.obj
 0001:00069f10       ?safe_object_iterate@Generation@@UAEXPAVObjectClosure@@@Z 0806af10 f   generation.obj
 0001:00069f40       ?prepare_for_compaction@Generation@@UAEXPAVCompactPoint@@@Z 0806af40 f   generation.obj
 0001:00069f80       ?do_space@AdjustPointersClosure@@UAEXPAVSpace@@@Z 0806af80 f i generation.obj
 0001:00069f90       ?compact@Generation@@UAEXXZ 0806af90 f   generation.obj
 0001:00069fc0       ?expand@CardGeneration@@UAE_NII@Z 0806afc0 f   generation.obj
 0001:0006a030       ?invalidate_remembered_set@CardGeneration@@UAEXXZ 0806b030 f   generation.obj
 0001:0006a030       ?invalidate_remembered_set@CompactingPermGenGen@@UAEXXZ 0806b030 f   compactingPermGenGen.obj
 0001:0006a060       ?used@OneContigSpaceCardGeneration@@UBEIXZ 0806b060 f   generation.obj
 0001:0006a070       ?free@OneContigSpaceCardGeneration@@UBEIXZ 0806b070 f   generation.obj
 0001:0006a070       ?unsafe_max_alloc_nogc@OneContigSpaceCardGeneration@@UBEIXZ 0806b070 f   generation.obj
 0001:0006a080       ?contiguous_available@OneContigSpaceCardGeneration@@UBEIXZ 0806b080 f   generation.obj
 0001:0006a0a0       ?grow_to_reserved@OneContigSpaceCardGeneration@@MAE_NXZ 0806b0a0 f   generation.obj
 0001:0006a0a0       ?grow_to_reserved@ConcurrentMarkSweepGeneration@@UAE_NXZ 0806b0a0 f   concurrentMarkSweepGeneration.obj
 0001:0006a0d0       ?object_iterate@OneContigSpaceCardGeneration@@UAEXPAVObjectClosure@@@Z 0806b0d0 f   generation.obj
 0001:0006a0e0       ?space_iterate@OneContigSpaceCardGeneration@@UAEXPAVSpaceClosure@@_N@Z 0806b0e0 f   generation.obj
 0001:0006a100       ?save_marks@OneContigSpaceCardGeneration@@UAEXXZ 0806b100 f   generation.obj
 0001:0006a110       ?spec@Generation@@QAEPAVGenerationSpec@@XZ 0806b110 f   generation.obj
 0001:0006a130       ?max_capacity@Generation@@UBEIXZ 0806b130 f   generation.obj
 0001:0006a140       ?ref_processor_init@Generation@@UAEXXZ 0806b140 f   generation.obj
 0001:0006a1a0       ?print_on@Generation@@UBEXPAVoutputStream@@@Z 0806b1a0 f   generation.obj
 0001:0006a210       ?print_summary_info_on@Generation@@UAEXPAVoutputStream@@@Z 0806b210 f   generation.obj
 0001:0006a260       ?do_space@GenerationIsInReservedClosure@@UAEXPAVSpace@@@Z 0806b260 f i generation.obj
 0001:0006a290       ?next_gen@Generation@@IBEPAV1@XZ 0806b290 f   generation.obj
 0001:0006a2b0       ?max_contiguous_available@Generation@@UBEIXZ 0806b2b0 f   generation.obj
 0001:0006a2f0       ?space_containing@Generation@@UBEPAVSpace@@PBX@Z 0806b2f0 f   generation.obj
 0001:0006a320       ?do_space@GenerationBlockStartClosure@@UAEXPAVSpace@@@Z 0806b320 f i generation.obj
 0001:0006a350       ?do_space@GenerationBlockSizeClosure@@UAEXPAVSpace@@@Z 0806b350 f i generation.obj
 0001:0006a380       ?do_space@GenerationBlockIsObjClosure@@UAEXPAVSpace@@@Z 0806b380 f i generation.obj
 0001:0006a3b0       ?do_space@GenerationOopIterateClosure@@UAEXPAVSpace@@@Z 0806b3b0 f i generation.obj
 0001:0006a3e0       ?oop_iterate@Generation@@UAEXPAVOopClosure@@@Z 0806b3e0 f   generation.obj
 0001:0006a420       ?oop_iterate@Generation@@UAEXVMemRegion@@PAVOopClosure@@@Z 0806b420 f   generation.obj
 0001:0006a450       ?younger_refs_in_space_iterate@Generation@@IAEXPAVSpace@@PAVOopsInGenClosure@@@Z 0806b450 f   generation.obj
 0001:0006a470       ?adjust_pointers@Generation@@UAEXXZ 0806b470 f   generation.obj
 0001:0006a490       ?clear_remembered_set@CardGeneration@@UAEXXZ 0806b490 f   generation.obj
 0001:0006a4b0       ?collect@OneContigSpaceCardGeneration@@UAEX_N0I0@Z 0806b4b0 f   generation.obj
 0001:0006a500       ?expand@OneContigSpaceCardGeneration@@MAE_NII@Z 0806b500 f   generation.obj
 0001:0006a550       ?capacity@OneContigSpaceCardGeneration@@UBEIXZ 0806b550 f   generation.obj
 0001:0006a560       ?used_region@OneContigSpaceCardGeneration@@UBE?AVMemRegion@@XZ 0806b560 f   generation.obj
 0001:0006a580       ?grow_by@OneContigSpaceCardGeneration@@MAE_NI@Z 0806b580 f   generation.obj
 0001:0006a600       ?shrink_by@OneContigSpaceCardGeneration@@IAEXI@Z 0806b600 f   generation.obj
 0001:0006a670       ?object_iterate_since_last_GC@OneContigSpaceCardGeneration@@UAEXPAVObjectClosure@@@Z 0806b670 f   generation.obj
 0001:0006a6c0       ?younger_refs_iterate@OneContigSpaceCardGeneration@@UAEXPAVOopsInGenClosure@@@Z 0806b6c0 f   generation.obj
 0001:0006a710       ?reset_saved_marks@OneContigSpaceCardGeneration@@UAEXXZ 0806b710 f   generation.obj
 0001:0006a720       ?no_allocs_since_save_marks@OneContigSpaceCardGeneration@@UAE_NXZ 0806b720 f   generation.obj
 0001:0006a740       ?oop_since_save_marks_iterate_v@OneContigSpaceCardGeneration@@UAEXPAVOopsInGenClosure@@@Z 0806b740 f   generation.obj
 0001:0006a790       ?oop_since_save_marks_iterate_nv@OneContigSpaceCardGeneration@@UAEXPAVScanClosure@@@Z 0806b790 f   generation.obj
 0001:0006a7e0       ?oop_since_save_marks_iterate_nv@OneContigSpaceCardGeneration@@UAEXPAVFastScanClosure@@@Z 0806b7e0 f   generation.obj
 0001:0006a830       ?oop_since_save_marks_iterate_nv@OneContigSpaceCardGeneration@@UAEXPAVParScanWithBarrierClosure@@@Z 0806b830 f   generation.obj
 0001:0006a880       ?oop_since_save_marks_iterate_nv@OneContigSpaceCardGeneration@@UAEXPAVParScanWithoutBarrierClosure@@@Z 0806b880 f   generation.obj
 0001:0006a8d0       ?gc_epilogue@OneContigSpaceCardGeneration@@UAEX_N@Z 0806b8d0 f   generation.obj
 0001:0006a8f0       ?verify@OneContigSpaceCardGeneration@@UAEX_N@Z 0806b8f0 f   generation.obj
 0001:0006a910       ?print_on@OneContigSpaceCardGeneration@@UBEXPAVoutputStream@@@Z 0806b910 f   generation.obj
 0001:0006a950       ??0Generation@@IAE@VReservedSpace@@IH@Z 0806b950 f   generation.obj
 0001:0006a9f0       ?oop_since_save_marks_iterate_nv@Generation@@UAEXPAVParScanWithBarrierClosure@@@Z 0806b9f0 f i generation.obj
 0001:0006a9f0       ?oop_since_save_marks_iterate_nv@Generation@@UAEXPAVFastScanClosure@@@Z 0806b9f0 f i generation.obj
 0001:0006a9f0       ?oop_since_save_marks_iterate_nv@Generation@@UAEXPAVScanClosure@@@Z 0806b9f0 f i generation.obj
 0001:0006a9f0       ?oop_since_save_marks_iterate_nv@Generation@@UAEXPAVParScanWithoutBarrierClosure@@@Z 0806b9f0 f i generation.obj
 0001:0006aa00       ?promote@Generation@@UAEPAVoopDesc@@PAV2@I@Z 0806ba00 f   generation.obj
 0001:0006aa40       ??0CardGeneration@@IAE@VReservedSpace@@IHPAVGenRemSet@@@Z 0806ba40 f   generation.obj
 0001:0006ab70       ?expand_and_allocate@OneContigSpaceCardGeneration@@UAEPAVHeapWord@@I_N0@Z 0806bb70 f   generation.obj
 0001:0006ac20       ?shrink@OneContigSpaceCardGeneration@@IAEXI@Z 0806bc20 f   generation.obj
 0001:0006ac50       ??0PermanentGenerationSpec@@QAE@W4Name@PermGen@@IIIIII@Z 0806bc50 f   generationSpec.obj
 0001:0006acf0       ?init@PermanentGenerationSpec@@QAEPAVPermGen@@VReservedSpace@@IPAVGenRemSet@@@Z 0806bcf0 f   generationSpec.obj
 0001:0006aeb0       ?align@PermanentGenerationSpec@@QAEXI@Z 0806beb0 f   generationSpec.obj
 0001:0006af10       ??0ASConcurrentMarkSweepGeneration@@QAE@VReservedSpace@@IHPAVCardTableRS@@_NW4DictionaryChoice@FreeBlockDictionary@@@Z 0806bf10 f i generationSpec.obj
 0001:0006af60       ?full_collects_younger_generations@ConcurrentMarkSweepGeneration@@UBE_NXZ 0806bf60 f i generationSpec.obj
 0001:0006af80       ?par_allocate@ConcurrentMarkSweepGeneration@@UAEPAVHeapWord@@I_N@Z 0806bf80 f i generationSpec.obj
 0001:0006af80       ?block_start@Space@@UAEPAVHeapWord@@PBX@Z 0806bf80 f i compactingPermGenGen.obj
 0001:0006af90       ?time_of_last_gc@ConcurrentMarkSweepGeneration@@UAE_J_J@Z 0806bf90 f i generationSpec.obj
 0001:0006afc0       ?update_time_of_last_gc@ConcurrentMarkSweepGeneration@@UAEX_J@Z 0806bfc0 f i generationSpec.obj
 0001:0006afe0       ?counters@ConcurrentMarkSweepGeneration@@UAEPAVCollectorCounters@@XZ 0806bfe0 f i generationSpec.obj
 0001:0006aff0       ?get_data_recorder@ConcurrentMarkSweepGeneration@@UAEPAXH@Z 0806bff0 f i generationSpec.obj
 0001:0006b000       ?short_name@ASConcurrentMarkSweepGeneration@@UBEPBDXZ 0806c000 f i generationSpec.obj
 0001:0006b010       ?init@GenerationSpec@@QAEPAVGeneration@@VReservedSpace@@HPAVGenRemSet@@@Z 0806c010 f   generationSpec.obj
 0001:0006b2a0       ?allocate_stacks@GenMarkSweep@@CAXXZ 0806c2a0 f   genMarkSweep.obj
 0001:0006b300       ?do_generation@GenCompactClosure@@UAEXPAVGeneration@@@Z 0806c300 f i genMarkSweep.obj
 0001:0006b320       ?update_time_of_last_gc@GenCollectedHeap@@QAEX_J@Z 0806c320 f i genMarkSweep.obj
 0001:0006b380       ?mark_sweep_phase2@GenMarkSweep@@CAXXZ 0806c380 f   genMarkSweep.obj
 0001:0006b3f0       ?do_generation@GenAdjustPointersClosure@@UAEXPAVGeneration@@@Z 0806c3f0 f i genMarkSweep.obj
 0001:0006b410       ?mark_sweep_phase4@GenMarkSweep@@CAXXZ 0806c410 f   genMarkSweep.obj
 0001:0006b480       ?mark_sweep_phase1@GenMarkSweep@@CAXH_N@Z 0806c480 f   genMarkSweep.obj
 0001:0006b5a0       ?free_segments@?$Stack@VObjArrayTask@@@@IAEXPAVObjArrayTask@@@Z 0806c5a0 f i genMarkSweep.obj
 0001:0006b5f0       ?mark_sweep_phase3@GenMarkSweep@@CAXH@Z 0806c5f0 f   genMarkSweep.obj
 0001:0006b720       ?deallocate_stacks@GenMarkSweep@@CAXXZ 0806c720 f   genMarkSweep.obj
 0001:0006b8c0       ?invoke_at_safepoint@GenMarkSweep@@SAXHPAVReferenceProcessor@@_N@Z 0806c8c0 f   genMarkSweep.obj
 0001:0006ba70       ?max_alignment_constraint@GenRemSet@@SAIW4Name@1@@Z 0806ca70 f   genRemSet.obj
 0001:0006baa0       ??0CodeHeap@@QAE@XZ        0806caa0 f   heap.obj
 0001:0006bae0       ?capacity@CodeHeap@@QBEIXZ 0806cae0 f   heap.obj
 0001:0006baf0       ?max_capacity@CodeHeap@@QBEIXZ 0806caf0 f   heap.obj
 0001:0006bb00       ?exact_log2@@YAHH@Z        0806cb00 f i heap.obj
 0001:0006bb00       ?log2_intptr@@YAHH@Z       0806cb00 f i heap.obj
 0001:0006bb20       ?mark_segmap_as_used@CodeHeap@@AAEXII@Z 0806cb20 f   heap.obj
 0001:0006bb50       ?expand_by@CodeHeap@@QAE_NI@Z 0806cb50 f   heap.obj
 0001:0006bc20       ?find_start@CodeHeap@@QBEPAXPAX@Z 0806cc20 f   heap.obj
 0001:0006bc90       ?first_block@CodeHeap@@ABEPAVHeapBlock@@XZ 0806cc90 f   heap.obj
 0001:0006bcb0       ?block_start@CodeHeap@@ABEPAVHeapBlock@@PAX@Z 0806ccb0 f   heap.obj
 0001:0006bcd0       ?next_block@CodeHeap@@ABEPAVHeapBlock@@PAV2@@Z 0806ccd0 f   heap.obj
 0001:0006bd20       ?allocated_capacity@CodeHeap@@QBEIXZ 0806cd20 f   heap.obj
 0001:0006bd50       ?largest_free_block@CodeHeap@@QBEIXZ 0806cd50 f   heap.obj
 0001:0006bd80       ?merge_right@CodeHeap@@AAEXPAVFreeBlock@@@Z 0806cd80 f   heap.obj
 0001:0006bde0       ?search_freelist@CodeHeap@@AAEPAVFreeBlock@@I@Z 0806cde0 f   heap.obj
 0001:0006bea0       ?verify@CodeHeap@@QAEXXZ   0806cea0 f   heap.obj
 0001:0006bf10       ?reserve@CodeHeap@@QAE_NIII@Z 0806cf10 f   heap.obj
 0001:0006c0a0       ?allocate@CodeHeap@@QAEPAXI@Z 0806d0a0 f   heap.obj
 0001:0006c120       ?next_free@CodeHeap@@ABEPAXPAVHeapBlock@@@Z 0806d120 f   heap.obj
 0001:0006c150       ?add_to_freelist@CodeHeap@@AAEXPAVHeapBlock@@@Z 0806d150 f   heap.obj
 0001:0006c1e0       ?deallocate@CodeHeap@@QAEXPAX@Z 0806d1e0 f   heap.obj
 0001:0006c200       ?lookup@KlassInfoBucket@@QAEPAVKlassInfoEntry@@QAVklassOopDesc@@@Z 0806d200 f   heapInspection.obj
 0001:0006c250       ?iterate@KlassInfoTable@@QAEXPAVKlassInfoClosure@@@Z 0806d250 f   heapInspection.obj
 0001:0006c290       ?sort_helper@KlassInfoHisto@@CAHPAPAVKlassInfoEntry@@0@Z 0806d290 f   heapInspection.obj
 0001:0006c2c0       ??0KlassInfoTable@@QAE@HPAVHeapWord@@@Z 0806d2c0 f   heapInspection.obj
 0001:0006c340       ??1KlassInfoTable@@QAE@XZ  0806d340 f   heapInspection.obj
 0001:0006c3a0       ?find_instances_at_safepoint@HeapInspection@@SAXPAVklassOopDesc@@PAV?$GrowableArray@PAVoopDesc@@@@@Z 0806d3a0 f   heapInspection.obj
 0001:0006c3e0       ?print_on@KlassInfoEntry@@QBEXPAVoutputStream@@@Z 0806d3e0 f   heapInspection.obj
 0001:0006c5c0       ?record_instance@KlassInfoTable@@QAE_NQAVoopDesc@@@Z 0806d5c0 f   heapInspection.obj
 0001:0006c620       ??0KlassInfoHisto@@QAE@PBDH@Z 0806d620 f   heapInspection.obj
 0001:0006c6a0       ?print_elements@KlassInfoHisto@@ABEXPAVoutputStream@@@Z 0806d6a0 f   heapInspection.obj
 0001:0006c770       ?do_object@RecordInstanceClosure@@UAEXPAVoopDesc@@@Z 0806d770 f i heapInspection.obj
 0001:0006c790       ?do_cinfo@HistoClosure@@UAEXPAVKlassInfoEntry@@@Z 0806d790 f i heapInspection.obj
 0001:0006c7c0       ?do_object@FindInstanceClosure@@UAEXPAVoopDesc@@@Z 0806d7c0 f i heapInspection.obj
 0001:0006c800       ?heap_inspection@HeapInspection@@SAXPAVoutputStream@@_N@Z 0806d800 f   heapInspection.obj
 0001:0006c9f0       ?do_void@VoidClosure@@UAEXXZ 0806d9f0 f   iterator.obj
 0001:0006ca10       ??0MarkScope@MarkingCodeBlobClosure@@QAE@_N@Z 0806da10 f   iterator.obj
 0001:0006ca30       ??1MarkScope@MarkingCodeBlobClosure@@QAE@XZ 0806da30 f   iterator.obj
 0001:0006ca40       ?do_newly_marked_nmethod@CodeBlobToOopClosure@@UAEXPAVnmethod@@@Z 0806da40 f   iterator.obj
 0001:0006ca60       ?do_code_blob@MarkingCodeBlobClosure@@UAEXPAVCodeBlob@@@Z 0806da60 f   iterator.obj
 0001:0006caa0       ?do_code_blob@CodeBlobToOopClosure@@UAEXPAVCodeBlob@@@Z 0806daa0 f   iterator.obj
 0001:0006cb00       ?do_object@ObjectToOopClosure@@UAEXPAVoopDesc@@@Z 0806db00 f   iterator.obj
 0001:0006cb30       ?intersection@MemRegion@@QBE?AV1@V1@@Z 0806db30 f   memRegion.obj
 0001:0006cb90       ?_union@MemRegion@@QBE?AV1@V1@@Z 0806db90 f   memRegion.obj
 0001:0006cc00       ?minus@MemRegion@@QBE?AV1@V1@@Z 0806dc00 f   memRegion.obj
 0001:0006cce0       ?common_permanent_mem_allocate_noinit@CollectedHeap@@KAPAVHeapWord@@IPAVThread@@@Z 0806dce0 f i oopFactory.obj
 0001:0006cd50       ?new_permanent_charArray@oopFactory@@SAPAVtypeArrayOopDesc@@HPAVThread@@@Z 0806dd50 f   oopFactory.obj
 0001:0006cd70       ?new_permanent_byteArray@oopFactory@@SAPAVtypeArrayOopDesc@@HPAVThread@@@Z 0806dd70 f   oopFactory.obj
 0001:0006cd90       ?new_permanent_shortArray@oopFactory@@SAPAVtypeArrayOopDesc@@HPAVThread@@@Z 0806dd90 f   oopFactory.obj
 0001:0006cdb0       ?new_permanent_intArray@oopFactory@@SAPAVtypeArrayOopDesc@@HPAVThread@@@Z 0806ddb0 f   oopFactory.obj
 0001:0006cdd0       ?new_typeArray@oopFactory@@SAPAVtypeArrayOopDesc@@W4BasicType@@HPAVThread@@@Z 0806ddd0 f   oopFactory.obj
 0001:0006cdf0       ?new_objArray@oopFactory@@SAPAVobjArrayOopDesc@@PAVklassOopDesc@@HPAVThread@@@Z 0806ddf0 f   oopFactory.obj
 0001:0006ce30       ?new_constantPool@oopFactory@@SAPAVconstantPoolOopDesc@@H_NPAVThread@@@Z 0806de30 f   oopFactory.obj
 0001:0006ce50       ?new_constantPoolCache@oopFactory@@SAPAVconstantPoolCacheOopDesc@@H_NPAVThread@@@Z 0806de50 f   oopFactory.obj
 0001:0006ce70       ?new_instanceKlass@oopFactory@@SAPAVklassOopDesc@@HHHIW4ReferenceType@@PAVThread@@@Z 0806de70 f   oopFactory.obj
 0001:0006cea0       ?new_methodData@oopFactory@@SAPAVmethodDataOopDesc@@VmethodHandle@@PAVThread@@@Z 0806dea0 f   oopFactory.obj
 0001:0006cec0       ?detect_low_memory_for_collected_pools@LowMemoryDetector@@SAXXZ 0806dec0 f i oopFactory.obj
 0001:0006cf40       ?new_method@oopFactory@@SAPAVmethodOopDesc@@HVAccessFlags@@HHH_NPAVThread@@@Z 0806df40 f   oopFactory.obj
 0001:0006cfa0       ?new_charArray@oopFactory@@SAPAVtypeArrayOopDesc@@PBDPAVThread@@@Z 0806dfa0 f   oopFactory.obj
 0001:0006d000       ?new_compiledICHolder@oopFactory@@SAPAVcompiledICHolderOopDesc@@VmethodHandle@@VKlassHandle@@PAVThread@@@Z 0806e000 f   oopFactory.obj
 0001:0006d080       ?post_allocation_setup_array@CollectedHeap@@KAXVKlassHandle@@PAVHeapWord@@IH@Z 0806e080 f i oopFactory.obj
 0001:0006d0e0       ?permanent_array_allocate@CollectedHeap@@SAPAVoopDesc@@VKlassHandle@@HHPAVThread@@@Z 0806e0e0 f i oopFactory.obj
 0001:0006d140       ?new_system_objArray@oopFactory@@SAPAVobjArrayOopDesc@@HPAVThread@@@Z 0806e140 f   oopFactory.obj
 0001:0006d1b0       ?request_expand_and_allocate@PermGen@@MAEPAVHeapWord@@PAVGeneration@@IW4Cause@GCCause@@@Z 0806e1b0 f   permGen.obj
 0001:0006d200       ?oop_iterate@PermGen@@UAEXPAVOopClosure@@@Z 0806e200 f i permGen.obj
 0001:0006d220       ?object_iterate@PermGen@@UAEXPAVObjectClosure@@@Z 0806e220 f i permGen.obj
 0001:0006d240       ?update_counters@PermGen@@UAEXXZ 0806e240 f i permGen.obj
 0001:0006d250       ??0CompactingPermGen@@QAE@VReservedSpace@@0IPAVGenRemSet@@PAVPermanentGenerationSpec@@@Z 0806e250 f   permGen.obj
 0001:0006d310       ?compute_new_size@CompactingPermGen@@UAEXXZ 0806e310 f   permGen.obj
 0001:0006d370       ?mem_allocate_in_gen@PermGen@@IAEPAVHeapWord@@IPAVGeneration@@@Z 0806e370 f   permGen.obj
 0001:0006d560       ?mem_allocate@CompactingPermGen@@UAEPAVHeapWord@@I@Z 0806e560 f   permGen.obj
 0001:0006d580       ?should_clear_reference@LRUMaxHeapPolicy@@UAE_NPAVoopDesc@@@Z 0806e580 f   referencePolicy.obj
 0001:0006d580       ?should_clear_reference@LRUCurrentHeapPolicy@@UAE_NPAVoopDesc@@@Z 0806e580 f   referencePolicy.obj
 0001:0006d5d0       ?should_clear_reference@ReferencePolicy@@UAE_NPAVoopDesc@@@Z 0806e5d0 f i referencePolicy.obj
 0001:0006d5f0       ?setup@LRUCurrentHeapPolicy@@UAEXXZ 0806e5f0 f   referencePolicy.obj
 0001:0006d610       ?setup@LRUMaxHeapPolicy@@UAEXXZ 0806e610 f   referencePolicy.obj
 0001:0006d630       ??0LRUMaxHeapPolicy@@QAE@XZ 0806e630 f   referencePolicy.obj
 0001:0006d660       ?weak_oops_do@ReferenceProcessor@@QAEXPAVOopClosure@@@Z 0806e660 f   referenceProcessor.obj
 0001:0006d6a0       ??0ReferenceProcessor@@QAE@VMemRegion@@_N1H11@Z 0806e6a0 f   referenceProcessor.obj
 0001:0006d7a0       ?oops_do@ReferenceProcessor@@SAXPAVOopClosure@@@Z 0806e7a0 f   referenceProcessor.obj
 0001:0006d7c0       ?init_statics@ReferenceProcessor@@SAXXZ 0806e7c0 f   referenceProcessor.obj
 0001:0006d8b0       ?create_ref_processor@ReferenceProcessor@@SAPAV1@VMemRegion@@_N1PAVBoolObjectClosure@@H11@Z 0806e8b0 f   referenceProcessor.obj
 0001:0006d940       ?pp2_work@ReferenceProcessor@@QAEXAAVDiscoveredList@@PAVBoolObjectClosure@@PAVOopClosure@@@Z 0806e940 f   referenceProcessor.obj
 0001:0006d9c0       ?pp2_work_concurrent_discovery@ReferenceProcessor@@QAEXAAVDiscoveredList@@PAVBoolObjectClosure@@PAVOopClosure@@PAVVoidClosure@@@Z 0806e9c0 f   referenceProcessor.obj
 0001:0006da70       ?process_phase3@ReferenceProcessor@@QAEXAAVDiscoveredList@@_NPAVBoolObjectClosure@@PAVOopClosure@@PAVVoidClosure@@@Z 0806ea70 f   referenceProcessor.obj
 0001:0006db30       ?abandon_partial_discovered_list@ReferenceProcessor@@IAEXAAVDiscoveredList@@@Z 0806eb30 f   referenceProcessor.obj
 0001:0006db90       ?abandon_partial_discovery@ReferenceProcessor@@QAEXXZ 0806eb90 f   referenceProcessor.obj
 0001:0006dbd0       ?work@RefProcPhase3Task@@UAEXIAAVBoolObjectClosure@@AAVOopClosure@@AAVVoidClosure@@@Z 0806ebd0 f i referenceProcessor.obj
 0001:0006dc00       ?clean_up_discovered_reflist@ReferenceProcessor@@QAEXAAVDiscoveredList@@@Z 0806ec00 f   referenceProcessor.obj
 0001:0006dc70       ?get_discovered_list@ReferenceProcessor@@IAEPAVDiscoveredList@@W4ReferenceType@@@Z 0806ec70 f i referenceProcessor.obj
 0001:0006dd40       ?add_to_discovered_list_mt@ReferenceProcessor@@IAEXAAVDiscoveredList@@PAVoopDesc@@PAVHeapWord@@@Z 0806ed40 f i referenceProcessor.obj
 0001:0006de00       ?discover_reference@ReferenceProcessor@@QAE_NPAVoopDesc@@W4ReferenceType@@@Z 0806ee00 f   referenceProcessor.obj
 0001:0006df70       ?preclean_discovered_reflist@ReferenceProcessor@@IAEXAAVDiscoveredList@@PAVBoolObjectClosure@@PAVOopClosure@@PAVVoidClosure@@PAVYieldClosure@@@Z 0806ef70 f   referenceProcessor.obj
 0001:0006e020       ?verify@ReferenceProcessor@@SAXXZ 0806f020 f   referenceProcessor.obj
 0001:0006e060       ?referenceProcessor_init@@YAXXZ 0806f060 f   referenceProcessor.obj
 0001:0006e070       ?work@RefProcPhase2Task@@UAEXIAAVBoolObjectClosure@@AAVOopClosure@@AAVVoidClosure@@@Z 0806f070 f i referenceProcessor.obj
 0001:0006e0c0       ?clean_up_discovered_references@ReferenceProcessor@@QAEXXZ 0806f0c0 f   referenceProcessor.obj
 0001:0006e100       ?preclean_discovered_references@ReferenceProcessor@@QAEXPAVBoolObjectClosure@@PAVOopClosure@@PAVVoidClosure@@PAVYieldClosure@@_N@Z 0806f100 f   referenceProcessor.obj
 0001:0006e330       ?enqueue_discovered_reflist@ReferenceProcessor@@QAEXAAVDiscoveredList@@PAVHeapWord@@@Z 0806f330 f   referenceProcessor.obj
 0001:0006e540       ?work@RefProcEnqueueTask@@UAEXI@Z 0806f540 f i referenceProcessor.obj
 0001:0006e5a0       ?enqueue_discovered_reflists@ReferenceProcessor@@QAEXPAVHeapWord@@PAVAbstractRefProcTaskExecutor@@@Z 0806f5a0 f   referenceProcessor.obj
 0001:0006e640       ?process_phase1@ReferenceProcessor@@QAEXAAVDiscoveredList@@PAVReferencePolicy@@PAVBoolObjectClosure@@PAVOopClosure@@PAVVoidClosure@@@Z 0806f640 f   referenceProcessor.obj
 0001:0006e740       ?work@RefProcPhase1Task@@UAEXIAAVBoolObjectClosure@@AAVOopClosure@@AAVVoidClosure@@@Z 0806f740 f i referenceProcessor.obj
 0001:0006e780       ?balance_queues@ReferenceProcessor@@IAEXQAVDiscoveredList@@@Z 0806f780 f   referenceProcessor.obj
 0001:0006e930       ?balance_all_queues@ReferenceProcessor@@QAEXXZ 0806f930 f   referenceProcessor.obj
 0001:0006e960       ?process_discovered_reflist@ReferenceProcessor@@QAEXQAVDiscoveredList@@PAVReferencePolicy@@_NPAVBoolObjectClosure@@PAVOopClosure@@PAVVoidClosure@@PAVAbstractRefProcTaskExecutor@@@Z 0806f960 f   referenceProcessor.obj
 0001:0006eb10       ??$enqueue_discovered_ref_helper@PAVoopDesc@@@@YA_NPAVReferenceProcessor@@PAVAbstractRefProcTaskExecutor@@@Z 0806fb10 f i referenceProcessor.obj
 0001:0006ebc0       ?process_discovered_references@ReferenceProcessor@@QAEXPAVBoolObjectClosure@@PAVOopClosure@@PAVVoidClosure@@PAVAbstractRefProcTaskExecutor@@@Z 0806fbc0 f   referenceProcessor.obj
 0001:0006ed60       ?enqueue_discovered_references@ReferenceProcessor@@QAE_NPAVAbstractRefProcTaskExecutor@@@Z 0806fd60 f   referenceProcessor.obj
 0001:0006ed80       ?resource_allocate_bytes@@YAPADPAVThread@@I@Z 0806fd80 f   resourceArea.obj
 0001:0006edd0       ?resource_allocate_bytes@@YAPADI@Z 0806fdd0 f   resourceArea.obj
 0001:0006ee30       ?resource_reallocate_bytes@@YAPADPADII@Z 0806fe30 f   resourceArea.obj
 0001:0006ee60       ?resource_free_bytes@@YAXPADI@Z 0806fe60 f   resourceArea.obj
 0001:0006ee90       ?do_size_t@ReadClosure@@UAEXPAI@Z 0806fe90 f i restore.obj
 0001:0006ee90       ?do_ptr@ReadClosure@@UAEXPAPAX@Z 0806fe90 f i restore.obj
 0001:0006ee90       ?do_int@ReadClosure@@UAEXPAH@Z 0806fe90 f i restore.obj
 0001:0006ee90       ?do_oop@ReadClosure@@UAEXPAPAVoopDesc@@@Z 0806fe90 f i restore.obj
 0001:0006eeb0       ?do_oop@ReadClosure@@UAEXPAI@Z 0806feb0 f i restore.obj
 0001:0006eed0       ?do_tag@ReadClosure@@UAEXH@Z 0806fed0 f i restore.obj
 0001:0006ef00       ?do_region@ReadClosure@@UAEXPAEI@Z 0806ff00 f i restore.obj
 0001:0006ef40       ?initialize_oops@CompactingPermGenGen@@SAXXZ 0806ff40 f   restore.obj
 0001:0006f070       ?serialize_oops@CompactingPermGenGen@@SAXPAVSerializeOopClosure@@@Z 08070070 f   serialize.obj
 0001:0006f1f0       ?set_par_threads@SharedHeap@@UAEXH@Z 080701f0 f   sharedHeap.obj
 0001:0006f210       ??0StrongRootsScope@SharedHeap@@QAE@PAV1@_N@Z 08070210 f   sharedHeap.obj
 0001:0006f250       ??1ParStrongRootsScope@ParallelScavengeHeap@@QAE@XZ 08070250 f   parallelScavengeHeap.obj
 0001:0006f250       ??1StrongRootsScope@SharedHeap@@QAE@XZ 08070250 f   sharedHeap.obj
 0001:0006f260       ?post_initialize@SharedHeap@@UAEXXZ 08070260 f   sharedHeap.obj
 0001:0006f270       ?process_strong_roots@SharedHeap@@QAEX_N0W4ScanningOption@1@PAVOopClosure@@PAVCodeBlobClosure@@PAVOopsInGenClosure@@@Z 08070270 f   sharedHeap.obj
 0001:0006f470       ?do_object@AlwaysTrueClosure@@UAEXPAVoopDesc@@@Z 08070470 f i sharedHeap.obj
 0001:0006f490       ?do_oop@SkipAdjustingSharedStrings@@UAEXPAI@Z 08070490 f i sharedHeap.obj
 0001:0006f4b0       ?do_oop@SkipAdjustingSharedStrings@@UAEXPAPAVoopDesc@@@Z 080704b0 f i sharedHeap.obj
 0001:0006f4e0       ?process_weak_roots@SharedHeap@@QAEXPAVOopClosure@@PAVCodeBlobClosure@@0@Z 080704e0 f   sharedHeap.obj
 0001:0006f560       ?set_barrier_set@SharedHeap@@QAEXPAVBarrierSet@@@Z 08070560 f   sharedHeap.obj
 0001:0006f580       ?ref_processing_init@SharedHeap@@UAEXXZ 08070580 f   sharedHeap.obj
 0001:0006f590       ?print_size_transition@SharedHeap@@QAEXPAVoutputStream@@III@Z 08070590 f   sharedHeap.obj
 0001:0006f670       ??0SharedHeap@@IAE@PAVCollectorPolicy@@@Z 08070670 f   sharedHeap.obj
 0001:0006f770       ?is_in@Space@@UBE_NPBX@Z   08070770 f   space.obj
 0001:0006f7b0       ?is_in@ContiguousSpace@@UBE_NPBX@Z 080707b0 f   space.obj
 0001:0006f7d0       ?is_free_block@ContiguousSpace@@UBE_NPBVHeapWord@@@Z 080707d0 f   space.obj
 0001:0006f7e0       ?print_short@Space@@UBEXXZ 080707e0 f   space.obj
 0001:0006f7f0       ?safe_object_iterate@ContiguousSpace@@UAEXPAVObjectClosure@@@Z 080707f0 f   space.obj
 0001:0006f800       ?initialize_threshold@OffsetTableContigSpace@@UAEPAVHeapWord@@XZ 08070800 f   space.obj
 0001:0006f810       ?serialize_block_offset_array_offsets@OffsetTableContigSpace@@QAEXPAVSerializeOopClosure@@@Z 08070810 f   space.obj
 0001:0006f820       ?allowed_dead_ratio@TenuredSpace@@MBEIXZ 08070820 f   space.obj
 0001:0006f830       ?allowed_dead_ratio@ContigPermSpace@@MBEIXZ 08070830 f   space.obj
 0001:0006f840       ?alloc_block@BlockOffsetArrayContigSpace@@UAEXPAVHeapWord@@0@Z 08070840 f i space.obj
 0001:0006f860       ?used_region@Space@@UBE?AVMemRegion@@XZ 08070860 f i space.obj
 0001:0006f880       ?used_region_at_save_marks@Space@@UBE?AVMemRegion@@XZ 08070880 f i space.obj
 0001:0006f880       ?used_region_at_save_marks@ContiguousSpace@@UBE?AVMemRegion@@XZ 08070880 f i compactingPermGenGen.obj
 0001:0006f8a0       ?top@GenSpaceMangler@@EBEPAVHeapWord@@XZ 080708a0 f i space.obj
 0001:0006f8b0       ?do_MemRegion@DirtyCardToOopClosure@@UAEXVMemRegion@@@Z 080708b0 f   space.obj
 0001:0006f960       ?walk_mem_region@Filtering_DCTOC@@MAEXVMemRegion@@PAVHeapWord@@1@Z 08070960 f   space.obj
 0001:0006f9e0       ?initialize@Space@@UAEXVMemRegion@@_N1@Z 080709e0 f   space.obj
 0001:0006fa20       ??1ContiguousSpace@@QAE@XZ 08070a20 f   space.obj
 0001:0006fa40       ?set_end@OffsetTableContigSpace@@UAEXPAVHeapWord@@@Z 08070a40 f   space.obj
 0001:0006fa70       ?initialize@CompactibleSpace@@UAEXVMemRegion@@_N1@Z 08070a70 f   space.obj
 0001:0006fac0       ?clear@CompactibleSpace@@UAEX_N@Z 08070ac0 f   space.obj
 0001:0006fad0       ?insert_deadspace@CompactibleSpace@@IAE_NAAIPAVHeapWord@@I@Z 08070ad0 f   space.obj
 0001:0006fb20       ?prepare_for_compaction@CompactibleSpace@@UAEXPAVCompactPoint@@@Z 08070b20 f   space.obj
 0001:0006fd20       ?print_short_on@Space@@UBEXPAVoutputStream@@@Z 08070d20 f   space.obj
 0001:0006fd90       ?print_on@Space@@UBEXPAVoutputStream@@@Z 08070d90 f   space.obj
 0001:0006fdc0       ?print_on@ContiguousSpace@@UBEXPAVoutputStream@@@Z 08070dc0 f   space.obj
 0001:0006fe00       ?print_on@OffsetTableContigSpace@@UBEXPAVoutputStream@@@Z 08070e00 f   space.obj
 0001:0006fe40       ?object_iterate_careful@Space@@UAEPAVHeapWord@@PAVObjectClosureCareful@@@Z 08070e40 f   space.obj
 0001:0006fe70       ?object_iterate_careful_m@Space@@UAEPAVHeapWord@@VMemRegion@@PAVObjectClosureCareful@@@Z 08070e70 f   space.obj
 0001:0006fea0       ?object_iterate_mem@Space@@UAEXVMemRegion@@PAVUpwardsObjectClosure@@@Z 08070ea0 f   space.obj
 0001:0006ff40       ?object_iterate@ContiguousSpace@@UAEXPAVObjectClosure@@@Z 08070f40 f   space.obj
 0001:0006ff70       ?object_iterate_careful@ContiguousSpace@@UAEPAVHeapWord@@PAVObjectClosureCareful@@@Z 08070f70 f   space.obj
 0001:0006ffb0       ?par_allocate_impl@ContiguousSpace@@IAEPAVHeapWord@@IPAV2@@Z 08070fb0 f i space.obj
 0001:00070020       ?allocate@ContiguousSpace@@UAEPAVHeapWord@@I@Z 08071020 f   space.obj
 0001:00070050       ?par_allocate@ContiguousSpace@@UAEPAVHeapWord@@I@Z 08071050 f   space.obj
 0001:00070070       ?allocate@EdenSpace@@UAEPAVHeapWord@@I@Z 08071070 f   space.obj
 0001:000700a0       ?par_allocate@EdenSpace@@UAEPAVHeapWord@@I@Z 080710a0 f   space.obj
 0001:000700c0       ?cross_threshold@OffsetTableContigSpace@@UAEPAVHeapWord@@PAV2@0@Z 080710c0 f   space.obj
 0001:000700e0       ?do_oop@VerifyOldOopClosure@@UAEXPAPAVoopDesc@@@Z 080710e0 f i space.obj
 0001:00070100       ?do_oop@VerifyOldOopClosure@@UAEXPAI@Z 08071100 f i space.obj
 0001:00070120       ?oop_iterate@oopDesc@@QAEHPAVMarkRefsIntoAndScanClosure@@@Z 08071120 f i space.obj
 0001:00070140       ?do_oop@SpaceMemRegionOopsIterClosure@@UAEXPAPAVoopDesc@@@Z 08071140 f   space.obj
 0001:00070170       ?do_oop@SpaceMemRegionOopsIterClosure@@UAEXPAI@Z 08071170 f   space.obj
 0001:000701a0       ?get_actual_top@DirtyCardToOopClosure@@MAEPAVHeapWord@@PAV2@0@Z 080711a0 f   space.obj
 0001:00070200       ?walk_mem_region@DirtyCardToOopClosure@@MAEXVMemRegion@@PAVHeapWord@@1@Z 08071200 f   space.obj
 0001:00070270       ?get_actual_top@ContiguousSpaceDCTOC@@MAEPAVHeapWord@@PAV2@0@Z 08071270 f   space.obj
 0001:000702e0       ?walk_mem_region_with_cl@ContiguousSpaceDCTOC@@MAEXVMemRegion@@PAVHeapWord@@1PAVOopClosure@@@Z 080712e0 f   space.obj
 0001:000703c0       ?walk_mem_region_with_cl@ContiguousSpaceDCTOC@@MAEXVMemRegion@@PAVHeapWord@@1PAVFilteringClosure@@@Z 080713c0 f   space.obj
 0001:000704a0       ??0ContiguousSpace@@QAE@XZ 080714a0 f   space.obj
 0001:00070500       ?initialize@ContiguousSpace@@UAEXVMemRegion@@_N1@Z 08071500 f   space.obj
 0001:00070550       ?clear@ContiguousSpace@@UAEX_N@Z 08071550 f   space.obj
 0001:00070570       ?clear@OffsetTableContigSpace@@UAEX_N@Z 08071570 f   space.obj
 0001:000705a0       ?prepare_for_compaction@ContiguousSpace@@UAEXPAVCompactPoint@@@Z 080715a0 f   space.obj
 0001:000707f0       ?adjust_pointers@Space@@UAEXXZ 080717f0 f   space.obj
 0001:00070840       ?adjust_pointers@CompactibleSpace@@UAEXXZ 08071840 f   space.obj
 0001:00070900       ?verify@ContiguousSpace@@UBEX_N@Z 08071900 f   space.obj
 0001:000709e0       ?oop_iterate@Space@@UAEXPAVOopClosure@@@Z 080719e0 f   space.obj
 0001:00070a10       ?object_iterate_mem@ContiguousSpace@@UAEXVMemRegion@@PAVUpwardsObjectClosure@@@Z 08071a10 f   space.obj
 0001:00070ae0       ?par_oop_iterate@ContiguousSpace@@QAEXVMemRegion@@PAVPar_MarkRefsIntoAndScanClosure@@@Z 08071ae0 f   space.obj
 0001:00070b20       ?oop_iterate@ContiguousSpace@@UAEXPAVOopClosure@@@Z 08071b20 f   space.obj
 0001:00070b60       ?oop_iterate@ContiguousSpace@@UAEXVMemRegion@@PAVOopClosure@@@Z 08071b60 f   space.obj
 0001:00070cc0       ?object_iterate_from@ContiguousSpace@@UAEXVWaterMark@@PAVObjectClosure@@@Z 08071cc0 f   space.obj
 0001:00070d40       ?oop_since_save_marks_iterate_v@ContiguousSpace@@QAEXPAVOopsInGenClosure@@@Z 08071d40 f   space.obj
 0001:00070da0       ?oop_since_save_marks_iterate_nv@ContiguousSpace@@QAEXPAVScanClosure@@@Z 08071da0 f   space.obj
 0001:00070e00       ?oop_since_save_marks_iterate_nv@ContiguousSpace@@QAEXPAVFastScanClosure@@@Z 08071e00 f   space.obj
 0001:00070e60       ?oop_since_save_marks_iterate_nv@ContiguousSpace@@QAEXPAVParScanWithBarrierClosure@@@Z 08071e60 f   space.obj
 0001:00070ec0       ?oop_since_save_marks_iterate_nv@ContiguousSpace@@QAEXPAVParScanWithoutBarrierClosure@@@Z 08071ec0 f   space.obj
 0001:00070f20       ?block_start_const@ContiguousSpace@@UBEPAVHeapWord@@PBX@Z 08071f20 f   space.obj
 0001:00070fa0       ?block_size@ContiguousSpace@@UBEIPBVHeapWord@@@Z 08071fa0 f   space.obj
 0001:00070fd0       ?clear@EdenSpace@@UAEX_N@Z 08071fd0 f   space.obj
 0001:00071000       ?par_allocate@ConcEdenSpace@@UAEPAVHeapWord@@I@Z 08072000 f   space.obj
 0001:00071080       ??0OffsetTableContigSpace@@QAE@PAVBlockOffsetSharedArray@@VMemRegion@@@Z 08072080 f   space.obj
 0001:00071110       ?verify@OffsetTableContigSpace@@UBEX_N@Z 08072110 f   space.obj
 0001:00071250       ?new_dcto_cl@Space@@UAEPAVDirtyCardToOopClosure@@PAVOopClosure@@W4PrecisionStyle@CardTableModRefBS@@PAVHeapWord@@@Z 08072250 f   space.obj
 0001:000712a0       ?new_dcto_cl@ContiguousSpace@@UAEPAVDirtyCardToOopClosure@@PAVOopClosure@@W4PrecisionStyle@CardTableModRefBS@@PAVHeapWord@@@Z 080722a0 f   space.obj
 0001:000712f0       ?forward@CompactibleSpace@@UAEPAVHeapWord@@PAVoopDesc@@IPAVCompactPoint@@PAV2@@Z 080722f0 f   space.obj
 0001:000713c0       ?compact@CompactibleSpace@@UAEXXZ 080723c0 f   space.obj
 0001:00071510       ?name@TenuredGeneration@@UBEPBDXZ 08072510 f   tenuredGeneration.obj
 0001:00071520       ?should_collect@TenuredGeneration@@UAE_N_NI0@Z 08072520 f   tenuredGeneration.obj
 0001:00071580       ?par_promote_alloc_done@TenuredGeneration@@UAEXH@Z 08072580 f   tenuredGeneration.obj
 0001:000715b0       ?retire_alloc_buffers_before_full_gc@TenuredGeneration@@IAEXXZ 080725b0 f   tenuredGeneration.obj
 0001:000715f0       ?allocate@ParGCAllocBufferWithBOT@@QAEPAVHeapWord@@I@Z 080725f0 f i tenuredGeneration.obj
 0001:00071630       ?set_buf@ParGCAllocBufferWithBOT@@QAEXPAVHeapWord@@@Z 08072630 f i tenuredGeneration.obj
 0001:00071680       ?compute_new_size@TenuredGeneration@@UAEXXZ 08072680 f   tenuredGeneration.obj
 0001:00071830       ?collect@TenuredGeneration@@UAEX_N0I0@Z 08072830 f   tenuredGeneration.obj
 0001:00071860       ?update_gc_stats@TenuredGeneration@@UAEXH_N@Z 08072860 f   tenuredGeneration.obj
 0001:000718b0       ?update_counters@TenuredGeneration@@UAEXXZ 080728b0 f   tenuredGeneration.obj
 0001:00071900       ?par_promote_alloc_undo@TenuredGeneration@@UAEXHPAVHeapWord@@I@Z 08072900 f   tenuredGeneration.obj
 0001:00071980       ?verify_alloc_buffers_clean@TenuredGeneration@@QAEXXZ 08072980 f   tenuredGeneration.obj
 0001:000719e0       ?promotion_attempt_is_safe@TenuredGeneration@@UBE_NI@Z 080729e0 f   tenuredGeneration.obj
 0001:00071a20       ?gc_prologue@TenuredGeneration@@UAEX_N@Z 08072a20 f   tenuredGeneration.obj
 0001:00071a50       ?gc_epilogue@TenuredGeneration@@UAEX_N@Z 08072a50 f   tenuredGeneration.obj
 0001:00071a80       ?par_promote@TenuredGeneration@@UAEPAVoopDesc@@HPAV2@PAVmarkOopDesc@@I@Z 08072a80 f   tenuredGeneration.obj
 0001:00071b80       ??0TenuredGeneration@@QAE@VReservedSpace@@IHPAVGenRemSet@@@Z 08072b80 f   tenuredGeneration.obj
 0001:00071dc0       ?short_name@TenuredGeneration@@UBEPBDXZ 08072dc0 f i tenuredGeneration.obj
 0001:00071dd0       ?full_collects_younger_generations@TenuredGeneration@@UBE_NXZ 08072dd0 f i tenuredGeneration.obj
 0001:00071de0       ?print@GlobalTLABStats@@QAEXXZ 08072de0 f   threadLocalAllocBuffer.obj
 0001:00071e80       ?create_variable@PerfDataManager@@SAPAVPerfLongVariable@@W4CounterNS@@PBDW4Units@PerfData@@PAVThread@@@Z 08072e80 f i threadLocalAllocBuffer.obj
 0001:00071eb0       ?myThread@ThreadLocalAllocBuffer@@AAEPAVThread@@XZ 08072eb0 f   threadLocalAllocBuffer.obj
 0001:00071ec0       ?publish@GlobalTLABStats@@QAEXXZ 08072ec0 f   threadLocalAllocBuffer.obj
 0001:00071fa0       ?print_stats@ThreadLocalAllocBuffer@@AAEXPBD@Z 08072fa0 f   threadLocalAllocBuffer.obj
 0001:000720a0       ??0GlobalTLABStats@@QAE@XZ 080730a0 f   threadLocalAllocBuffer.obj
 0001:000723f0       ?fill@ThreadLocalAllocBuffer@@QAEXPAVHeapWord@@0I@Z 080733f0 f   threadLocalAllocBuffer.obj
 0001:00072470       ?max_size@ThreadLocalAllocBuffer@@SA?BIXZ 08073470 f   threadLocalAllocBuffer.obj
 0001:00072480       ?hard_end@ThreadLocalAllocBuffer@@QBEPAVHeapWord@@XZ 08073480 f i threadLocalAllocBuffer.obj
 0001:000724d0       ?make_parsable@ThreadLocalAllocBuffer@@QAEX_N@Z 080734d0 f   threadLocalAllocBuffer.obj
 0001:00072540       ?resize@ThreadLocalAllocBuffer@@AAEXXZ 08073540 f   threadLocalAllocBuffer.obj
 0001:000725e0       ?initial_desired_size@ThreadLocalAllocBuffer@@AAEIXZ 080735e0 f   threadLocalAllocBuffer.obj
 0001:000726a0       ?clear_before_allocation@ThreadLocalAllocBuffer@@QAEXXZ 080736a0 f   threadLocalAllocBuffer.obj
 0001:00072710       ?accumulate_statistics@ThreadLocalAllocBuffer@@AAEXXZ 08073710 f   threadLocalAllocBuffer.obj
 0001:000728a0       ?resize_all_tlabs@ThreadLocalAllocBuffer@@SAXXZ 080738a0 f   threadLocalAllocBuffer.obj
 0001:000728d0       ?initialize@ThreadLocalAllocBuffer@@QAEXXZ 080738d0 f   threadLocalAllocBuffer.obj
 0001:00072960       ?startup_initialization@ThreadLocalAllocBuffer@@SAXXZ 08073960 f   threadLocalAllocBuffer.obj
 0001:00072a00       ?accumulate_statistics_before_gc@ThreadLocalAllocBuffer@@SAXXZ 08073a00 f   threadLocalAllocBuffer.obj
 0001:00072a90       ??0G1CollectorPolicy_BestRegionsFirst@@QAE@XZ 08073a90 f i universe.obj
 0001:00072ad0       ?default_init_heap_size@G1CollectorPolicy@@MAEIXZ 08073ad0 f i universe.obj
 0001:00072ae0       ?initialize_basic_type_mirrors@Universe@@CAXPAVThread@@@Z 08073ae0 f   universe.obj
 0001:00072c80       ?non_oop_word@Universe@@SAPAXXZ 08073c80 f   universe.obj
 0001:00072ca0       ??0ASConcurrentMarkSweepPolicy@@QAE@XZ 08073ca0 f i universe.obj
 0001:00072cc0       ?create_klass@typeArrayKlass@@SAPAVklassOopDesc@@W4BasicType@@HPAVThread@@@Z 08073cc0 f i universe.obj
 0001:00072cf0       ?unlock@GC_locker@@SAXXZ   08073cf0 f i universe.obj
 0001:00072d20       ?basic_type_classes_do@Universe@@SAXP6AXPAVklassOopDesc@@@Z@Z 08073d20 f   universe.obj
 0001:00072d80       ?oops_do@Universe@@SAXPAVOopClosure@@_N@Z 08073d80 f   universe.obj
 0001:00073070       ?fixup_mirrors@Universe@@CAXPAVThread@@@Z 08074070 f   universe.obj
 0001:000730a0       ?initialize_itable_for_klass@@YAXPAVklassOopDesc@@PAVThread@@@Z 080740a0 f   universe.obj
 0001:000730c0       ?should_fill_in_stack_trace@Universe@@SA_NVHandle@@@Z 080740c0 f   universe.obj
 0001:00073120       ?update_heap_info_at_gc@Universe@@SAXXZ 08074120 f   universe.obj
 0001:00073150       ?flush_dependents_on@Universe@@SAXVinstanceKlassHandle@@@Z 08074150 f   universe.obj
 0001:000731b0       ?print_on@Universe@@SAXPAVoutputStream@@@Z 080741b0 f   universe.obj
 0001:000731e0       ?print_heap_at_SIGBREAK@Universe@@SAXXZ 080741e0 f   universe.obj
 0001:00073240       ?print_heap_before_gc@Universe@@SAXPAVoutputStream@@@Z 08074240 f   universe.obj
 0001:00073280       ?print_heap_after_gc@Universe@@SAXPAVoutputStream@@@Z 08074280 f   universe.obj
 0001:000732d0       ?init@CommonMethodOopCache@@QAEXPAVklassOopDesc@@PAVmethodOopDesc@@PAVThread@@@Z 080742d0 f   universe.obj
 0001:00073300       ?is_same_method@ActiveMethodOopsCache@@QBE_NQAVmethodOopDesc@@@Z 08074300 f   universe.obj
 0001:00073360       ?get_methodOop@LatestMethodOopCache@@QAEPAVmethodOopDesc@@XZ 08074360 f   universe.obj
 0001:00073370       ?is_leaf_class@Klass@@UBE_NXZ 08074370 f i universe.obj
 0001:00073390       ?oop_oop_iterate@instanceRefKlass@@UAEHPAVoopDesc@@PAVOopClosure@@@Z 08074390 f i universe.obj
 0001:00073390       ?oop_oop_iterate_backwards_v@Klass@@UAEHPAVoopDesc@@PAVOopClosure@@@Z 08074390 f i universe.obj
 0001:00073390       ?oop_oop_iterate@instanceKlass@@UAEHPAVoopDesc@@PAVOopClosure@@@Z 08074390 f i universe.obj
 0001:00073390       ?oop_oop_iterate@objArrayKlass@@UAEHPAVoopDesc@@PAVOopClosure@@@Z 08074390 f i universe.obj
 0001:000733a0       ?oop_oop_iterate_v@Klass@@UAEHPAVoopDesc@@PAVOopClosure@@@Z 080743a0 f i universe.obj
 0001:000733a0       ?oop_oop_iterate_nv@Klass@@UAEHPAVoopDesc@@PAV?$G1ParCopyClosure@$0A@$01$0A@@@@Z 080743a0 f i universe.obj
 0001:000733a0       ?oop_oop_iterate_nv@Klass@@UAEHPAVoopDesc@@PAVPushAndMarkClosure@@@Z 080743a0 f i universe.obj
 0001:000733a0       ?oop_oop_iterate_nv@Klass@@UAEHPAVoopDesc@@PAVPar_PushAndMarkClosure@@@Z 080743a0 f i universe.obj
 0001:000733a0       ?oop_oop_iterate_nv@Klass@@UAEHPAVoopDesc@@PAVPushOrMarkClosure@@@Z 080743a0 f i universe.obj
 0001:000733a0       ?oop_oop_iterate_nv@Klass@@UAEHPAVoopDesc@@PAVFilterAndMarkInHeapRegionAndIntoCSClosure@@@Z 080743a0 f i universe.obj
 0001:000733a0       ?oop_oop_iterate_nv@Klass@@UAEHPAVoopDesc@@PAVPar_MarkRefsIntoAndScanClosure@@@Z 080743a0 f i universe.obj
 0001:000733a0       ?oop_oop_iterate_nv@Klass@@UAEHPAVoopDesc@@PAVCMSKeepAliveClosure@@@Z 080743a0 f i universe.obj
 0001:000733a0       ?oop_oop_iterate_nv@Klass@@UAEHPAVoopDesc@@PAVParScanWithoutBarrierClosure@@@Z 080743a0 f i universe.obj
 0001:000733a0       ?oop_oop_iterate_nv@Klass@@UAEHPAVoopDesc@@PAVG1ParPushHeapRSClosure@@@Z 080743a0 f i universe.obj
 0001:000733a0       ?oop_oop_iterate_nv@Klass@@UAEHPAVoopDesc@@PAVFilteringClosure@@@Z 080743a0 f i universe.obj
 0001:000733a0       ?oop_oop_iterate_nv@Klass@@UAEHPAVoopDesc@@PAVFastScanClosure@@@Z 080743a0 f i universe.obj
 0001:000733a0       ?oop_oop_iterate_nv@Klass@@UAEHPAVoopDesc@@PAVScanClosure@@@Z 080743a0 f i universe.obj
 0001:000733a0       ?oop_oop_iterate_nv@Klass@@UAEHPAVoopDesc@@PAVMarkRefsIntoAndScanClosure@@@Z 080743a0 f i universe.obj
 0001:000733a0       ?oop_oop_iterate_nv@Klass@@UAEHPAVoopDesc@@PAVPar_PushOrMarkClosure@@@Z 080743a0 f i universe.obj
 0001:000733a0       ?oop_oop_iterate_nv@Klass@@UAEHPAVoopDesc@@PAVG1ParScanClosure@@@Z 080743a0 f i universe.obj
 0001:000733a0       ?oop_oop_iterate_nv@Klass@@UAEHPAVoopDesc@@PAVFilterOutOfRegionClosure@@@Z 080743a0 f i universe.obj
 0001:000733a0       ?oop_oop_iterate_nv@Klass@@UAEHPAVoopDesc@@PAVFilterInHeapRegionAndIntoCSClosure@@@Z 080743a0 f i universe.obj
 0001:000733a0       ?oop_oop_iterate_nv@Klass@@UAEHPAVoopDesc@@PAVFilterIntoCSClosure@@@Z 080743a0 f i universe.obj
 0001:000733a0       ?oop_oop_iterate_nv@Klass@@UAEHPAVoopDesc@@PAVParScanWithBarrierClosure@@@Z 080743a0 f i universe.obj
 0001:000733a0       ?oop_oop_iterate_nv@Klass@@UAEHPAVoopDesc@@PAVCMSInnerParMarkAndPushClosure@@@Z 080743a0 f i universe.obj
 0001:000733b0       ?oop_oop_iterate_nv_m@Klass@@UAEHPAVoopDesc@@PAVFilterAndMarkInHeapRegionAndIntoCSClosure@@VMemRegion@@@Z 080743b0 f i universe.obj
 0001:000733b0       ?oop_oop_iterate_nv_m@Klass@@UAEHPAVoopDesc@@PAVCMSInnerParMarkAndPushClosure@@VMemRegion@@@Z 080743b0 f i universe.obj
 0001:000733b0       ?oop_oop_iterate_nv_m@Klass@@UAEHPAVoopDesc@@PAVFilterIntoCSClosure@@VMemRegion@@@Z 080743b0 f i universe.obj
 0001:000733b0       ?oop_oop_iterate_nv_m@Klass@@UAEHPAVoopDesc@@PAVScanClosure@@VMemRegion@@@Z 080743b0 f i universe.obj
 0001:000733b0       ?oop_oop_iterate_nv_m@Klass@@UAEHPAVoopDesc@@PAVPar_MarkRefsIntoAndScanClosure@@VMemRegion@@@Z 080743b0 f i universe.obj
 0001:000733b0       ?oop_oop_iterate_nv_m@Klass@@UAEHPAVoopDesc@@PAVFilteringClosure@@VMemRegion@@@Z 080743b0 f i universe.obj
 0001:000733b0       ?oop_oop_iterate_nv_m@Klass@@UAEHPAVoopDesc@@PAVG1ParPushHeapRSClosure@@VMemRegion@@@Z 080743b0 f i universe.obj
 0001:000733b0       ?oop_oop_iterate_nv_m@Klass@@UAEHPAVoopDesc@@PAVPushAndMarkClosure@@VMemRegion@@@Z 080743b0 f i universe.obj
 0001:000733b0       ?oop_oop_iterate_nv_m@Klass@@UAEHPAVoopDesc@@PAVParScanWithoutBarrierClosure@@VMemRegion@@@Z 080743b0 f i universe.obj
 0001:000733b0       ?oop_oop_iterate_nv_m@Klass@@UAEHPAVoopDesc@@PAV?$G1ParCopyClosure@$0A@$01$0A@@@VMemRegion@@@Z 080743b0 f i universe.obj
 0001:000733b0       ?oop_oop_iterate_nv_m@Klass@@UAEHPAVoopDesc@@PAVG1ParScanClosure@@VMemRegion@@@Z 080743b0 f i universe.obj
 0001:000733b0       ?oop_oop_iterate_nv_m@Klass@@UAEHPAVoopDesc@@PAVFastScanClosure@@VMemRegion@@@Z 080743b0 f i universe.obj
 0001:000733b0       ?oop_oop_iterate_nv_m@Klass@@UAEHPAVoopDesc@@PAVCMSKeepAliveClosure@@VMemRegion@@@Z 080743b0 f i universe.obj
 0001:000733b0       ?oop_oop_iterate_nv_m@Klass@@UAEHPAVoopDesc@@PAVPar_PushAndMarkClosure@@VMemRegion@@@Z 080743b0 f i universe.obj
 0001:000733b0       ?oop_oop_iterate_nv_m@Klass@@UAEHPAVoopDesc@@PAVFilterInHeapRegionAndIntoCSClosure@@VMemRegion@@@Z 080743b0 f i universe.obj
 0001:000733b0       ?oop_oop_iterate_nv_m@Klass@@UAEHPAVoopDesc@@PAVFilterOutOfRegionClosure@@VMemRegion@@@Z 080743b0 f i universe.obj
 0001:000733b0       ?oop_oop_iterate_v_m@Klass@@UAEHPAVoopDesc@@PAVOopClosure@@VMemRegion@@@Z 080743b0 f i universe.obj
 0001:000733b0       ?oop_oop_iterate_nv_m@Klass@@UAEHPAVoopDesc@@PAVPushOrMarkClosure@@VMemRegion@@@Z 080743b0 f i universe.obj
 0001:000733b0       ?oop_oop_iterate_nv_m@Klass@@UAEHPAVoopDesc@@PAVPar_PushOrMarkClosure@@VMemRegion@@@Z 080743b0 f i universe.obj
 0001:000733b0       ?oop_oop_iterate_nv_m@Klass@@UAEHPAVoopDesc@@PAVMarkRefsIntoAndScanClosure@@VMemRegion@@@Z 080743b0 f i universe.obj
 0001:000733b0       ?oop_oop_iterate_nv_m@Klass@@UAEHPAVoopDesc@@PAVParScanWithBarrierClosure@@VMemRegion@@@Z 080743b0 f i universe.obj
 0001:000733e0       ?oop_oop_iterate_backwards_nv@Klass@@UAEHPAVoopDesc@@PAVG1ParPushHeapRSClosure@@@Z 080743e0 f i universe.obj
 0001:000733e0       ?oop_oop_iterate_backwards_nv@Klass@@UAEHPAVoopDesc@@PAVFilterAndMarkInHeapRegionAndIntoCSClosure@@@Z 080743e0 f i universe.obj
 0001:000733e0       ?oop_oop_iterate_backwards_nv@Klass@@UAEHPAVoopDesc@@PAVFilterInHeapRegionAndIntoCSClosure@@@Z 080743e0 f i universe.obj
 0001:000733e0       ?oop_oop_iterate_backwards_nv@Klass@@UAEHPAVoopDesc@@PAV?$G1ParCopyClosure@$0A@$01$0A@@@@Z 080743e0 f i universe.obj
 0001:000733e0       ?oop_oop_iterate_backwards_nv@Klass@@UAEHPAVoopDesc@@PAVCMSKeepAliveClosure@@@Z 080743e0 f i universe.obj
 0001:000733e0       ?oop_oop_iterate_backwards_nv@Klass@@UAEHPAVoopDesc@@PAVFastScanClosure@@@Z 080743e0 f i universe.obj
 0001:000733e0       ?oop_oop_iterate_backwards_nv@Klass@@UAEHPAVoopDesc@@PAVScanClosure@@@Z 080743e0 f i universe.obj
 0001:000733e0       ?oop_oop_iterate_backwards_nv@Klass@@UAEHPAVoopDesc@@PAVPar_PushOrMarkClosure@@@Z 080743e0 f i universe.obj
 0001:000733e0       ?oop_oop_iterate_backwards_nv@Klass@@UAEHPAVoopDesc@@PAVPushOrMarkClosure@@@Z 080743e0 f i universe.obj
 0001:000733e0       ?oop_oop_iterate_backwards_nv@Klass@@UAEHPAVoopDesc@@PAVPar_PushAndMarkClosure@@@Z 080743e0 f i universe.obj
 0001:000733e0       ?oop_oop_iterate_backwards_nv@Klass@@UAEHPAVoopDesc@@PAVMarkRefsIntoAndScanClosure@@@Z 080743e0 f i universe.obj
 0001:000733e0       ?oop_oop_iterate_backwards_nv@Klass@@UAEHPAVoopDesc@@PAVPar_MarkRefsIntoAndScanClosure@@@Z 080743e0 f i universe.obj
 0001:000733e0       ?oop_oop_iterate_backwards_nv@Klass@@UAEHPAVoopDesc@@PAVFilterOutOfRegionClosure@@@Z 080743e0 f i universe.obj
 0001:000733e0       ?oop_oop_iterate_backwards_nv@Klass@@UAEHPAVoopDesc@@PAVParScanWithBarrierClosure@@@Z 080743e0 f i universe.obj
 0001:000733e0       ?oop_oop_iterate_backwards_nv@Klass@@UAEHPAVoopDesc@@PAVParScanWithoutBarrierClosure@@@Z 080743e0 f i universe.obj
 0001:000733e0       ?oop_oop_iterate_backwards_nv@Klass@@UAEHPAVoopDesc@@PAVFilterIntoCSClosure@@@Z 080743e0 f i universe.obj
 0001:000733e0       ?oop_oop_iterate_backwards_nv@Klass@@UAEHPAVoopDesc@@PAVPushAndMarkClosure@@@Z 080743e0 f i universe.obj
 0001:000733e0       ?oop_oop_iterate_backwards_nv@Klass@@UAEHPAVoopDesc@@PAVFilteringClosure@@@Z 080743e0 f i universe.obj
 0001:000733e0       ?oop_oop_iterate_backwards_nv@Klass@@UAEHPAVoopDesc@@PAVG1ParScanClosure@@@Z 080743e0 f i universe.obj
 0001:000733e0       ?oop_oop_iterate_backwards_nv@Klass@@UAEHPAVoopDesc@@PAVCMSInnerParMarkAndPushClosure@@@Z 080743e0 f i universe.obj
 0001:000733f0       ?equals@ConstantIntValue@@UBE_NPAVScopeValue@@@Z 080743f0 f i debugInfo.obj
 0001:000733f0       ?equals@ConstantOopReadValue@@UBE_NPAVScopeValue@@@Z 080743f0 f i debugInfo.obj
 0001:000733f0       ?equals@ConstantLongValue@@UBE_NPAVScopeValue@@@Z 080743f0 f i debugInfo.obj
 0001:000733f0       ?caller_must_gc_arguments@CodeBlob@@UBE_NPAVJavaThread@@@Z 080743f0 f i codeBlob.obj
 0001:000733f0       ?equals@ConstantOopWriteValue@@UBE_NPAVScopeValue@@@Z 080743f0 f i c1_LinearScan.obj
 0001:000733f0       ?is_equal@Instruction@@UBE_NPAV1@@Z 080743f0 f i c1_Canonicalizer.obj
 0001:000733f0       ?possible_gc_point@ResolveOopMapConflicts@@EAE_NPAVBytecodeStream@@@Z 080743f0 f i rewriter.obj
 0001:000733f0       ?oop_partially_loaded@Klass@@UBE_NPAVoopDesc@@@Z 080743f0 f i universe.obj
 0001:000733f0       ?possible_gc_point@OopMapForCacheEntry@@EAE_NPAVBytecodeStream@@@Z 080743f0 f i oopMapCache.obj
 0001:000733f0       ?compiled_match@ProfilerNode@@UBE_NPAVmethodOopDesc@@@Z 080743f0 f i fprofiler.obj
 0001:000733f0       ?interpreted_match@ProfilerNode@@UBE_NPAVmethodOopDesc@@@Z 080743f0 f i fprofiler.obj
 0001:000733f0       ?equals@ConstantDoubleValue@@UBE_NPAVScopeValue@@@Z 080743f0 f i debugInfo.obj
 0001:000733f0       ?possible_gc_point@GeneratePairingInfo@@EAE_NPAVBytecodeStream@@@Z 080743f0 f i ciMethod.obj
 0001:000733f0       ?read_ref_needs_barrier@ModRefBarrierSet@@UAE_NPAX@Z 080743f0 f i cardTableModRefBS.obj
 0001:000733f0       ?unknown_compiled_match@ProfilerNode@@UBE_NPBVCodeBlob@@@Z 080743f0 f i fprofiler.obj
 0001:000733f0       ?equals@ScopeValue@@UBE_NPAV1@@Z 080743f0 f i debugInfo.obj
 0001:00073400       ?class_loader@instanceKlass@@UBEPAVoopDesc@@XZ 08074400 f i universe.obj
 0001:00073410       ?is_leaf_class@instanceKlass@@UBE_NXZ 08074410 f i universe.obj
 0001:00073420       ?oop_size@instanceKlass@@UBEHPAVoopDesc@@@Z 08074420 f i universe.obj
 0001:00073430       ?alloc_size@instanceKlass@@UBEIXZ 08074430 f i universe.obj
 0001:00073440       ?size_policy@ParallelScavengeHeap@@UAEPAVPSAdaptiveSizePolicy@@XZ 08074440 f i universe.obj
 0001:00073450       ?is_in_permanent@ParallelScavengeHeap@@UBE_NPBX@Z 08074450 f i universe.obj
 0001:00073480       ?is_permanent@ParallelScavengeHeap@@UBE_NPBX@Z 08074480 f i universe.obj
 0001:000734a0       ?supports_inline_contig_alloc@ParallelScavengeHeap@@UBE_NXZ 080744a0 f i universe.obj
 0001:000734b0       ?top_addr@ParallelScavengeHeap@@UBEPAPAVHeapWord@@XZ 080744b0 f i universe.obj
 0001:000734d0       ?end_addr@ParallelScavengeHeap@@UBEPAPAVHeapWord@@XZ 080744d0 f i universe.obj
 0001:000734f0       ?safe_object_iterate@ParallelScavengeHeap@@UAEXPAVObjectClosure@@@Z 080744f0 f i universe.obj
 0001:00073500       ?set_alloc_size@symbolKlass@@UAEXI@Z 08074500 f i universe.obj
 0001:00073500       ?set_alloc_size@methodKlass@@UAEXI@Z 08074500 f i universe.obj
 0001:00073500       ?set_alloc_size@constantPoolCacheKlass@@UAEXI@Z 08074500 f i universe.obj
 0001:00073500       ?set_alloc_size@constantPoolKlass@@UAEXI@Z 08074500 f i universe.obj
 0001:00073500       ?set_alloc_size@compiledICHolderKlass@@UAEXI@Z 08074500 f i universe.obj
 0001:00073500       ?set_alloc_size@constMethodKlass@@UAEXI@Z 08074500 f i universe.obj
 0001:00073500       ?set_alloc_size@klassKlass@@UAEXI@Z 08074500 f i universe.obj
 0001:00073500       ?set_alloc_size@methodDataKlass@@UAEXI@Z 08074500 f i universe.obj
 0001:00073510       ?oop_size@typeArrayKlassKlass@@UBEHPAVoopDesc@@@Z 08074510 f i universe.obj
 0001:00073510       ?oop_size@objArrayKlassKlass@@UBEHPAVoopDesc@@@Z 08074510 f i universe.obj
 0001:00073530       ?klass_oop_size@constantPoolCacheKlass@@UBEHXZ 08074530 f i universe.obj
 0001:00073530       ?klass_oop_size@compiledICHolderKlass@@UBEHXZ 08074530 f i universe.obj
 0001:00073530       ?klass_oop_size@constantPoolKlass@@UBEHXZ 08074530 f i universe.obj
 0001:00073530       ?klass_oop_size@constMethodKlass@@UBEHXZ 08074530 f i universe.obj
 0001:00073530       ?klass_oop_size@methodKlass@@UBEHXZ 08074530 f i universe.obj
 0001:00073530       ?klass_oop_size@methodDataKlass@@UBEHXZ 08074530 f i universe.obj
 0001:00073530       ?klass_oop_size@symbolKlass@@UBEHXZ 08074530 f i universe.obj
 0001:00073530       ?klass_oop_size@typeArrayKlassKlass@@UBEHXZ 08074530 f i universe.obj
 0001:00073530       ?klass_oop_size@klassKlass@@UBEHXZ 08074530 f i universe.obj
 0001:00073530       ?klass_oop_size@objArrayKlassKlass@@UBEHXZ 08074530 f i universe.obj
 0001:00073530       ?klass_oop_size@instanceKlassKlass@@UBEHXZ 08074530 f i universe.obj
 0001:00073550       ?check_alignment@Universe@@SAXIIPBD@Z 08074550 f   universe.obj
 0001:00073600       ?do_object@FixupMirrorClosure@@UAEXPAVoopDesc@@@Z 08074600 f i universe.obj
 0001:00073680       ?run_finalizers_on_exit@Universe@@SAXXZ 08074680 f   universe.obj
 0001:000736f0       ?initialize_heap@Universe@@CAHXZ 080746f0 f   universe.obj
 0001:00073820       ?flush_evol_dependents_on@Universe@@SAXVinstanceKlassHandle@@@Z 08074820 f   universe.obj
 0001:000738a0       ?flush_dependents_on_method@Universe@@SAXVmethodHandle@@@Z 080748a0 f   universe.obj
 0001:00073920       ?print@Universe@@SAXXZ     08074920 f   universe.obj
 0001:00073950       ?verify@Universe@@SAX_N00@Z 08074950 f   universe.obj
 0001:00073b20       ?alloc_size@arrayKlass@@UBEIXZ 08074b20 f i universe.obj
 0001:00073b30       ?set_alloc_size@arrayKlass@@UAEXI@Z 08074b30 f i universe.obj
 0001:00073b40       ?allocate_permanent@instanceKlass@@UBEPAXAAVKlassHandle@@HPAVThread@@@Z 08074b40 f i universe.obj
 0001:00073bb0       ?klass_oop_size@instanceKlass@@UBEHXZ 08074bb0 f i universe.obj
 0001:00073bc0       ?object_size@instanceKlass@@QBEHXZ 08074bc0 f i universe.obj
 0001:00073c00       ?allocate_permanent@instanceRefKlass@@UBEPAXAAVKlassHandle@@HPAVThread@@@Z 08074c00 f i universe.obj
 0001:00073c70       ?protection_domain@objArrayKlass@@UAEPAVoopDesc@@XZ 08074c70 f i universe.obj
 0001:00073c80       ?class_loader@objArrayKlass@@UBEPAVoopDesc@@XZ 08074c80 f i universe.obj
 0001:00073c90       ?oop_oop_iterate_m@objArrayKlass@@UAEHPAVoopDesc@@PAVOopClosure@@VMemRegion@@@Z 08074c90 f i universe.obj
 0001:00073c90       ?oop_oop_iterate_m@instanceRefKlass@@UAEHPAVoopDesc@@PAVOopClosure@@VMemRegion@@@Z 08074c90 f i universe.obj
 0001:00073c90       ?oop_oop_iterate_m@instanceKlass@@UAEHPAVoopDesc@@PAVOopClosure@@VMemRegion@@@Z 08074c90 f i universe.obj
 0001:00073cc0       ?klass_oop_size@objArrayKlass@@UBEHXZ 08074cc0 f i universe.obj
 0001:00073cc0       ?klass_oop_size@typeArrayKlass@@UBEHXZ 08074cc0 f i universe.obj
 0001:00073cd0       ?allocate_permanent@klassKlass@@UBEPAXAAVKlassHandle@@HPAVThread@@@Z 08074cd0 f i universe.obj
 0001:00073d40       ?allocate_permanent@arrayKlassKlass@@UBEPAXAAVKlassHandle@@HPAVThread@@@Z 08074d40 f i universe.obj
 0001:00073db0       ?allocate_permanent@compiledICHolderKlass@@UBEPAXAAVKlassHandle@@HPAVThread@@@Z 08074db0 f i universe.obj
 0001:00073e20       ?allocate_permanent@constMethodKlass@@UBEPAXAAVKlassHandle@@HPAVThread@@@Z 08074e20 f i universe.obj
 0001:00073e90       ?allocate_permanent@constantPoolKlass@@UBEPAXAAVKlassHandle@@HPAVThread@@@Z 08074e90 f i universe.obj
 0001:00073f00       ?allocate_permanent@constantPoolCacheKlass@@UBEPAXAAVKlassHandle@@HPAVThread@@@Z 08074f00 f i universe.obj
 0001:00073f70       ?allocate_permanent@instanceKlassKlass@@UBEPAXAAVKlassHandle@@HPAVThread@@@Z 08074f70 f i universe.obj
 0001:00073fe0       ?allocate_permanent@methodDataKlass@@UBEPAXAAVKlassHandle@@HPAVThread@@@Z 08074fe0 f i universe.obj
 0001:00074050       ?allocate_permanent@methodKlass@@UBEPAXAAVKlassHandle@@HPAVThread@@@Z 08075050 f i universe.obj
 0001:000740c0       ?allocate_permanent@objArrayKlassKlass@@UBEPAXAAVKlassHandle@@HPAVThread@@@Z 080750c0 f i universe.obj
 0001:00074130       ?allocate_permanent@symbolKlass@@UBEPAXAAVKlassHandle@@HPAVThread@@@Z 08075130 f i universe.obj
 0001:000741a0       ?allocate_permanent@typeArrayKlassKlass@@UBEPAXAAVKlassHandle@@HPAVThread@@@Z 080751a0 f i universe.obj
 0001:00074210       ?reinitialize_vtable_of@Universe@@CAXVKlassHandle@@PAVThread@@@Z 08075210 f   universe.obj
 0001:000742b0       ?universe_init@@YAHXZ      080752b0 f   universe.obj
 0001:00074470       ?add_previous_version@ActiveMethodOopsCache@@QAEXQAVmethodOopDesc@@@Z 08075470 f   universe.obj
 0001:000746e0       ?allocate_permanent@objArrayKlass@@UBEPAXAAVKlassHandle@@HPAVThread@@@Z 080756e0 f i universe.obj
 0001:00074750       ?init_self_patching_vtbl_list@Universe@@SAXPAPAXH@Z 08075750 f   universe.obj
 0001:000749f0       ?allocate_permanent@typeArrayKlass@@UBEPAXAAVKlassHandle@@HPAVThread@@@Z 080759f0 f i universe.obj
 0001:00074a60       ?set_super@Klass@@QAEXPAVklassOopDesc@@@Z 08075a60 f i universe.obj
 0001:00074a90       ?gen_out_of_memory_error@Universe@@CAPAVoopDesc@@PAV2@@Z 08075a90 f   universe.obj
 0001:00074b20       ?universe_post_init@@YA_NXZ 08075b20 f   universe.obj
 0001:00075250       ?set_bottom_klass@objArrayKlass@@QAEXPAVklassOopDesc@@@Z 08076250 f i universe.obj
 0001:00075280       ?genesis@Universe@@CAXPAVThread@@@Z 08076280 f   universe.obj
 0001:00075b00       ?universe2_init@@YAXXZ     08076b00 f   universe.obj
 0001:00075b90       ?multi_allocate@arrayKlass@@UAEPAVoopDesc@@HPAHPAVThread@@@Z 08076b90 f   arrayKlass.obj
 0001:00075bb0       ?with_array_klasses_do@arrayKlass@@UAEXP6AXPAVklassOopDesc@@@Z@Z 08076bb0 f   arrayKlass.obj
 0001:00075bc0       ?compute_modifier_flags@arrayKlass@@UBEHPAVThread@@@Z 08076bc0 f   arrayKlass.obj
 0001:00075bd0       ?object_size@arrayKlass@@QBEHH@Z 08076bd0 f   arrayKlass.obj
 0001:00075bf0       ?java_super@arrayKlass@@UBEPAVklassOopDesc@@XZ 08076bf0 f   arrayKlass.obj
 0001:00075c00       ?uncached_lookup_method@arrayKlass@@UBEPAVmethodOopDesc@@PAVsymbolOopDesc@@0@Z 08076c00 f   arrayKlass.obj
 0001:00075c10       ?compute_secondary_supers@arrayKlass@@UAEPAVobjArrayOopDesc@@HPAVThread@@@Z 08076c10 f   arrayKlass.obj
 0001:00075c20       ?compute_is_subtype_of@arrayKlass@@UAE_NPAVklassOopDesc@@@Z 08076c20 f   arrayKlass.obj
 0001:00075c50       ?array_klasses_do@arrayKlass@@UAEXP6AXPAVklassOopDesc@@@Z@Z 08076c50 f   arrayKlass.obj
 0001:00075c80       ?common_mem_allocate_noinit@CollectedHeap@@KAPAVHeapWord@@I_NPAVThread@@@Z 08076c80 f i arrayKlass.obj
 0001:00075db0       ?complete_create_array_klass@arrayKlass@@SAXVarrayKlassHandle@@VKlassHandle@@PAVThread@@@Z 08076db0 f   arrayKlass.obj
 0001:00075e70       ?vtable@arrayKlass@@UBEPAVklassVtable@@XZ 08076e70 f   arrayKlass.obj
 0001:00075ee0       ?oop_print_on@arrayKlass@@UAEXPAVoopDesc@@PAVoutputStream@@@Z 08076ee0 f   arrayKlass.obj
 0001:00075f10       ?oop_verify_on@arrayKlass@@UAEXPAVoopDesc@@PAVoutputStream@@@Z 08076f10 f   arrayKlass.obj
 0001:00075f70       ?set_higher_dimension@arrayKlass@@QAEXPAVklassOopDesc@@@Z 08076f70 f i arrayKlass.obj
 0001:00075f70       ?set_methods@instanceKlass@@QAEXPAVobjArrayOopDesc@@@Z 08076f70 f i classFileParser.obj
 0001:00075fa0       ?set_method_ordering@instanceKlass@@QAEXPAVtypeArrayOopDesc@@@Z 08076fa0 f i classFileParser.obj
 0001:00075fa0       ?set_lower_dimension@arrayKlass@@QAEXPAVklassOopDesc@@@Z 08076fa0 f i arrayKlass.obj
 0001:00075fd0       ?base_create_array_klass@arrayKlass@@SA?AVarrayKlassHandle@@ABVKlass_vtbl@@HVKlassHandle@@PAVThread@@@Z 08076fd0 f   arrayKlass.obj
 0001:00076120       ?array_allocate@CollectedHeap@@SAPAVoopDesc@@VKlassHandle@@HHPAVThread@@@Z 08077120 f i arrayKlass.obj
 0001:00076180       ?allocate_arrayArray@arrayKlass@@QAEPAVobjArrayOopDesc@@HHPAVThread@@@Z 08077180 f   arrayKlass.obj
 0001:00076290       ?oop_print_on@arrayKlassKlass@@UAEXPAVoopDesc@@PAVoutputStream@@@Z 08077290 f   arrayKlassKlass.obj
 0001:000762a0       ?internal_name@arrayKlassKlass@@UBEPBDXZ 080772a0 f   arrayKlassKlass.obj
 0001:000762b0       ?oop_is_parsable@arrayKlassKlass@@UBE_NPAVoopDesc@@@Z 080772b0 f   arrayKlassKlass.obj
 0001:000762e0       ?oop_oop_iterate@arrayKlassKlass@@UAEHPAVoopDesc@@PAVOopClosure@@@Z 080772e0 f   arrayKlassKlass.obj
 0001:00076340       ?oop_oop_iterate_m@arrayKlassKlass@@UAEHPAVoopDesc@@PAVOopClosure@@VMemRegion@@@Z 08077340 f   arrayKlassKlass.obj
 0001:000763c0       ?oop_print_value_on@arrayKlassKlass@@UAEXPAVoopDesc@@PAVoutputStream@@@Z 080773c0 f   arrayKlassKlass.obj
 0001:00076400       ?create_klass@arrayKlassKlass@@SAPAVklassOopDesc@@PAVThread@@@Z 08077400 f   arrayKlassKlass.obj
 0001:00076470       ?oop_adjust_pointers@arrayKlassKlass@@UAEHPAVoopDesc@@@Z 08077470 f   arrayKlassKlass.obj
 0001:00076530       ?oop_update_pointers@arrayKlassKlass@@UAEHPAVParCompactionManager@@PAVoopDesc@@@Z 08077530 f   arrayKlassKlass.obj
 0001:000765e0       ?oop_verify_on@arrayKlassKlass@@UAEXPAVoopDesc@@PAVoutputStream@@@Z 080775e0 f   arrayKlassKlass.obj
 0001:00076690       ?push@?$GenericTaskQueue@PAVoopDesc@@$0EAAA@@@QAE_NPAVoopDesc@@@Z 08077690 f i arrayKlassKlass.obj
 0001:00076710       ?mark_obj@PSParallelCompact@@SA_NPAVoopDesc@@@Z 08077710 f i arrayKlassKlass.obj
 0001:00076750       ?oop_update_pointers@arrayKlassKlass@@UAEHPAVParCompactionManager@@PAVoopDesc@@PAVHeapWord@@2@Z 08077750 f   arrayKlassKlass.obj
 0001:00076820       ?must_be_preserved_with_bias@markOopDesc@@QBE_NPAVoopDesc@@@Z 08077820 f i arrayKlassKlass.obj
 0001:00076870       ?mark_object@MarkSweep@@SAXPAVoopDesc@@@Z 08077870 f i arrayKlassKlass.obj
 0001:000768c0       ??$mark_and_push@PAVoopDesc@@@MarkSweep@@SAXPAPAVoopDesc@@@Z 080778c0 f i arrayKlassKlass.obj
 0001:00076910       ?oop_follow_contents@arrayKlassKlass@@UAEXPAVoopDesc@@@Z 08077910 f   arrayKlassKlass.obj
 0001:00076980       ?push@ParCompactionManager@@QAEXPAVoopDesc@@@Z 08077980 f i arrayKlassKlass.obj
 0001:000769c0       ??$mark_and_push@PAVoopDesc@@@PSParallelCompact@@SAXPAVParCompactionManager@@PAPAVoopDesc@@@Z 080779c0 f i arrayKlassKlass.obj
 0001:00076a20       ?oop_follow_contents@arrayKlassKlass@@UAEXPAVParCompactionManager@@PAVoopDesc@@@Z 08077a20 f   arrayKlassKlass.obj
 0001:00076aa0       ?oop_print_on@compiledICHolderKlass@@UAEXPAVoopDesc@@PAVoutputStream@@@Z 08077aa0 f   compiledICHolderKlass.obj
 0001:00076b00       ?internal_name@compiledICHolderKlass@@UBEPBDXZ 08077b00 f   compiledICHolderKlass.obj
 0001:00076b10       ?oop_size@compiledICHolderKlass@@UBEHPAVoopDesc@@@Z 08077b10 f   compiledICHolderKlass.obj
 0001:00076b30       ?oop_oop_iterate@compiledICHolderKlass@@UAEHPAVoopDesc@@PAVOopClosure@@@Z 08077b30 f   compiledICHolderKlass.obj
 0001:00076b80       ?oop_oop_iterate_m@compiledICHolderKlass@@UAEHPAVoopDesc@@PAVOopClosure@@VMemRegion@@@Z 08077b80 f   compiledICHolderKlass.obj
 0001:00076c00       ?create_klass@compiledICHolderKlass@@SAPAVklassOopDesc@@PAVThread@@@Z 08077c00 f   compiledICHolderKlass.obj
 0001:00076c70       ?oop_adjust_pointers@compiledICHolderKlass@@UAEHPAVoopDesc@@@Z 08077c70 f   compiledICHolderKlass.obj
 0001:00076d00       ?oop_update_pointers@compiledICHolderKlass@@UAEHPAVParCompactionManager@@PAVoopDesc@@@Z 08077d00 f   compiledICHolderKlass.obj
 0001:00076d50       ?oop_verify_on@compiledICHolderKlass@@UAEXPAVoopDesc@@PAVoutputStream@@@Z 08077d50 f   compiledICHolderKlass.obj
 0001:00076e90       ?permanent_obj_allocate_no_klass_install@CollectedHeap@@SAPAVoopDesc@@VKlassHandle@@HPAVThread@@@Z 08077e90 f i compiledICHolderKlass.obj
 0001:00076f10       ?oop_update_pointers@compiledICHolderKlass@@UAEHPAVParCompactionManager@@PAVoopDesc@@PAVHeapWord@@2@Z 08077f10 f   compiledICHolderKlass.obj
 0001:00076f80       ??$mark_and_push@I@MarkSweep@@SAXPAI@Z 08077f80 f i compiledICHolderKlass.obj
 0001:00076fe0       ?oop_follow_contents@compiledICHolderKlass@@UAEXPAVoopDesc@@@Z 08077fe0 f   compiledICHolderKlass.obj
 0001:00077010       ??$mark_and_push@I@PSParallelCompact@@SAXPAVParCompactionManager@@PAI@Z 08078010 f i compiledICHolderKlass.obj
 0001:00077080       ?permanent_obj_allocate@CollectedHeap@@SAPAVoopDesc@@VKlassHandle@@HPAVThread@@@Z 08078080 f i compiledICHolderKlass.obj
 0001:000770e0       ?allocate@compiledICHolderKlass@@QAEPAVcompiledICHolderOopDesc@@PAVThread@@@Z 080780e0 f   compiledICHolderKlass.obj
 0001:00077180       ?oop_follow_contents@compiledICHolderKlass@@UAEXPAVParCompactionManager@@PAVoopDesc@@@Z 08078180 f   compiledICHolderKlass.obj
 0001:000771c0       ?internal_name@constantPoolKlass@@UBEPBDXZ 080781c0 f   constantPoolKlass.obj
 0001:000771d0       ?uncached_klass_ref_index_at@constantPoolOopDesc@@QAEHH@Z 080781d0 f i constantPoolKlass.obj
 0001:000771f0       ?uncached_name_and_type_ref_index_at@constantPoolOopDesc@@QAEHH@Z 080781f0 f i constantPoolKlass.obj
 0001:00077210       ?oop_size@constantPoolKlass@@UBEHPAVoopDesc@@@Z 08078210 f   constantPoolKlass.obj
 0001:00077230       ?oop_is_conc_safe@constantPoolKlass@@UBE_NPAVoopDesc@@@Z 08078230 f   constantPoolKlass.obj
 0001:00077240       ?oop_partially_loaded@constantPoolKlass@@UBE_NPAVoopDesc@@@Z 08078240 f   constantPoolKlass.obj
 0001:00077270       ?create_klass@constantPoolKlass@@SAPAVklassOopDesc@@PAVThread@@@Z 08078270 f   constantPoolKlass.obj
 0001:000772e0       ?oop_print_value_on@constantPoolKlass@@UAEXPAVoopDesc@@PAVoutputStream@@@Z 080782e0 f   constantPoolKlass.obj
 0001:00077390       ?push@?$GenericTaskQueue@VStarTask@@$0EAAA@@@QAE_NVStarTask@@@Z 08078390 f i constantPoolKlass.obj
 0001:00077400       ?oop_adjust_pointers@constantPoolKlass@@UAEHPAVoopDesc@@@Z 08078400 f   constantPoolKlass.obj
 0001:00077530       ?oop_oop_iterate@constantPoolKlass@@UAEHPAVoopDesc@@PAVOopClosure@@@Z 08078530 f   constantPoolKlass.obj
 0001:000775e0       ?oop_oop_iterate_m@constantPoolKlass@@UAEHPAVoopDesc@@PAVOopClosure@@VMemRegion@@@Z 080785e0 f   constantPoolKlass.obj
 0001:000776a0       ?oop_update_pointers@constantPoolKlass@@UAEHPAVParCompactionManager@@PAVoopDesc@@@Z 080786a0 f   constantPoolKlass.obj
 0001:00077790       ?oop_update_pointers@constantPoolKlass@@UAEHPAVParCompactionManager@@PAVoopDesc@@PAVHeapWord@@2@Z 08078790 f   constantPoolKlass.obj
 0001:000778d0       ?oop_verify_on@constantPoolKlass@@UAEXPAVoopDesc@@PAVoutputStream@@@Z 080788d0 f   constantPoolKlass.obj
 0001:00077d40       ?oop_follow_contents@constantPoolKlass@@UAEXPAVoopDesc@@@Z 08078d40 f   constantPoolKlass.obj
 0001:00077ec0       ?oop_print_on@constantPoolKlass@@UAEXPAVoopDesc@@PAVoutputStream@@@Z 08078ec0 f   constantPoolKlass.obj
 0001:00078380       ??$push_depth@PAVoopDesc@@@PSPromotionManager@@AAEXPAPAVoopDesc@@@Z 08079380 f i constantPoolKlass.obj
 0001:000783c0       ?oop_follow_contents@constantPoolKlass@@UAEXPAVParCompactionManager@@PAVoopDesc@@@Z 080793c0 f   constantPoolKlass.obj
 0001:00078680       ?oop_set_partially_loaded@constantPoolKlass@@UAEXPAVoopDesc@@@Z 08079680 f   constantPoolKlass.obj
 0001:000786b0       ??$claim_or_forward_internal_depth@PAVoopDesc@@@PSPromotionManager@@AAEXPAPAVoopDesc@@@Z 080796b0 f i constantPoolKlass.obj
 0001:00078720       ?allocate@constantPoolKlass@@QAEPAVconstantPoolOopDesc@@H_NPAVThread@@@Z 08079720 f   constantPoolKlass.obj
 0001:00078870       ?oop_push_contents@constantPoolKlass@@UAEXPAVPSPromotionManager@@PAVoopDesc@@@Z 08079870 f   constantPoolKlass.obj
 0001:000788e0       ?set_flag_at@constantPoolOopDesc@@AAEXW4FlagBit@1@@Z 080798e0 f   constantPoolOop.obj
 0001:00078950       ?name_ref_index_at@constantPoolOopDesc@@QAEHH@Z 08079950 f   constantPoolOop.obj
 0001:00078970       ?signature_ref_index_at@constantPoolOopDesc@@QAEHH@Z 08079970 f   constantPoolOop.obj
 0001:00078980       ?basic_type_for_signature_at@constantPoolOopDesc@@QAE?AW4BasicType@@H@Z 08079980 f   constantPoolOop.obj
 0001:000789a0       ?shared_tags_iterate@constantPoolOopDesc@@QAEXPAVOopClosure@@@Z 080799a0 f   constantPoolOop.obj
 0001:000789d0       ?add_entry@SymbolHashMap@@QAEXPAVsymbolOopDesc@@G@Z 080799d0 f   constantPoolOop.obj
 0001:00078a60       ?find_entry@SymbolHashMap@@QAEPAVSymbolHashMapEntry@@PAVsymbolOopDesc@@@Z 08079a60 f   constantPoolOop.obj
 0001:00078ac0       ?verify_constant_pool_resolve@constantPoolOopDesc@@CAXVconstantPoolHandle@@VKlassHandle@@PAVThread@@@Z 08079ac0 f   constantPoolOop.obj
 0001:00078b30       ?klass_name_at@constantPoolOopDesc@@QAEPAVsymbolOopDesc@@H@Z 08079b30 f   constantPoolOop.obj
 0001:00078b60       ?string_at_noresolve@constantPoolOopDesc@@QAEPADH@Z 08079b60 f   constantPoolOop.obj
 0001:00078bb0       ?is_pseudo_string_at@constantPoolOopDesc@@QAE_NH@Z 08079bb0 f   constantPoolOop.obj
 0001:00078bf0       ?klass_name_at_matches@constantPoolOopDesc@@QAE_NVinstanceKlassHandle@@H@Z 08079bf0 f   constantPoolOop.obj
 0001:00078c40       ?klass_at_if_loaded@constantPoolOopDesc@@SAPAVklassOopDesc@@VconstantPoolHandle@@H@Z 08079c40 f   constantPoolOop.obj
 0001:00078d50       ?impl_klass_ref_index_at@constantPoolOopDesc@@AAEHH_N@Z 08079d50 f   constantPoolOop.obj
 0001:00078db0       ?set_f1@ConstantPoolCacheEntry@@AAEXPAVoopDesc@@@Z 08079db0 f i constantPoolOop.obj
 0001:00078e00       ?operand_array_length@constantPoolOopDesc@@SAHPAVtypeArrayOopDesc@@@Z 08079e00 f i constantPoolOop.obj
 0001:00078e30       ?klass_ref_at_if_loaded_check@constantPoolOopDesc@@SAPAVklassOopDesc@@VconstantPoolHandle@@HPAVThread@@@Z 08079e30 f   constantPoolOop.obj
 0001:00078f00       ?impl_name_and_type_ref_index_at@constantPoolOopDesc@@AAEHH_N@Z 08079f00 f   constantPoolOop.obj
 0001:00078fb0       ?klass_ref_at_noresolve@constantPoolOopDesc@@QAEPAVsymbolOopDesc@@H@Z 08079fb0 f   constantPoolOop.obj
 0001:00078ff0       ?uncached_klass_ref_at_noresolve@constantPoolOopDesc@@QAEPAVsymbolOopDesc@@H@Z 08079ff0 f   constantPoolOop.obj
 0001:00079050       ?string_at_impl@constantPoolOopDesc@@CAPAVoopDesc@@VconstantPoolHandle@@HPAVThread@@@Z 0807a050 f   constantPoolOop.obj
 0001:00079100       ?shared_symbols_iterate@constantPoolOopDesc@@QAEXPAVOopClosure@@@Z 0807a100 f   constantPoolOop.obj
 0001:00079230       ?shared_strings_iterate@constantPoolOopDesc@@QAEXPAVOopClosure@@@Z 0807a230 f   constantPoolOop.obj
 0001:00079320       ?cpool_entry_size@constantPoolOopDesc@@AAEHH@Z 0807a320 f   constantPoolOop.obj
 0001:00079410       ?hash_entries_to@constantPoolOopDesc@@AAEHPAVSymbolHashMap@@0@Z 0807a410 f   constantPoolOop.obj
 0001:00079540       ?klass_at_impl@constantPoolOopDesc@@CAPAVklassOopDesc@@VconstantPoolHandle@@HPAVThread@@@Z 0807a540 f   constantPoolOop.obj
 0001:000799a0       ?impl_name_ref_at@constantPoolOopDesc@@AAEPAVsymbolOopDesc@@H_N@Z 0807a9a0 f   constantPoolOop.obj
 0001:000799d0       ?impl_signature_ref_at@constantPoolOopDesc@@AAEPAVsymbolOopDesc@@H_N@Z 0807a9d0 f   constantPoolOop.obj
 0001:000799f0       ?resolve_string_constants_impl@constantPoolOopDesc@@CAXVconstantPoolHandle@@PAVThread@@@Z 0807a9f0 f   constantPoolOop.obj
 0001:00079a50       ?copy_cpool_bytes@constantPoolOopDesc@@AAEHHPAVSymbolHashMap@@PAE@Z 0807aa50 f   constantPoolOop.obj
 0001:00079e70       ?klass_ref_at@constantPoolOopDesc@@QAEPAVklassOopDesc@@HPAVThread@@@Z 0807ae70 f   constantPoolOop.obj
 0001:00079eb0       ?resolve_constant_at_impl@constantPoolOopDesc@@CAPAVoopDesc@@VconstantPoolHandle@@HHPAVThread@@@Z 0807aeb0 f   constantPoolOop.obj
 0001:0007a330       ?compare_entry_to@constantPoolOopDesc@@QAE_NHVconstantPoolHandle@@HPAVThread@@@Z 0807b330 f   constantPoolOop.obj
 0001:0007a7e0       ?copy_entry_to@constantPoolOopDesc@@SAXVconstantPoolHandle@@H0HPAVThread@@@Z 0807b7e0 f   constantPoolOop.obj
 0001:0007abb0       ?find_matching_entry@constantPoolOopDesc@@QAEHHVconstantPoolHandle@@PAVThread@@@Z 0807bbb0 f   constantPoolOop.obj
 0001:0007ac10       ?copy_cp_to_impl@constantPoolOopDesc@@SAXVconstantPoolHandle@@HH0HPAVThread@@@Z 0807bc10 f   constantPoolOop.obj
 0001:0007ae30       ?internal_name@constMethodKlass@@UBEPBDXZ 0807be30 f   constMethodKlass.obj
 0001:0007ae40       ?oop_size@constMethodKlass@@UBEHPAVoopDesc@@@Z 0807be40 f   constMethodKlass.obj
 0001:0007ae50       ?oop_is_parsable@constMethodKlass@@UBE_NPAVoopDesc@@@Z 0807be50 f   constMethodKlass.obj
 0001:0007ae70       ?oop_is_conc_safe@constMethodKlass@@UBE_NPAVoopDesc@@@Z 0807be70 f   constMethodKlass.obj
 0001:0007ae70       ?oop_is_conc_safe@constantPoolCacheKlass@@UBE_NPAVoopDesc@@@Z 0807be70 f   cpCacheKlass.obj
 0001:0007ae80       ?oop_oop_iterate@constMethodKlass@@UAEHPAVoopDesc@@PAVOopClosure@@@Z 0807be80 f   constMethodKlass.obj
 0001:0007aec0       ?oop_oop_iterate_m@constMethodKlass@@UAEHPAVoopDesc@@PAVOopClosure@@VMemRegion@@@Z 0807bec0 f   constMethodKlass.obj
 0001:0007af30       ?oop_print_value_on@constMethodKlass@@UAEXPAVoopDesc@@PAVoutputStream@@@Z 0807bf30 f   constMethodKlass.obj
 0001:0007af60       ?oop_partially_loaded@constMethodKlass@@UBE_NPAVoopDesc@@@Z 0807bf60 f   constMethodKlass.obj
 0001:0007af80       ?create_klass@constMethodKlass@@SAPAVklassOopDesc@@PAVThread@@@Z 0807bf80 f   constMethodKlass.obj
 0001:0007afe0       ?oop_adjust_pointers@constMethodKlass@@UAEHPAVoopDesc@@@Z 0807bfe0 f   constMethodKlass.obj
 0001:0007b060       ?oop_update_pointers@constMethodKlass@@UAEHPAVParCompactionManager@@PAVoopDesc@@@Z 0807c060 f   constMethodKlass.obj
 0001:0007b0a0       ?oop_update_pointers@constMethodKlass@@UAEHPAVParCompactionManager@@PAVoopDesc@@PAVHeapWord@@2@Z 0807c0a0 f   constMethodKlass.obj
 0001:0007b100       ?oop_print_on@constMethodKlass@@UAEXPAVoopDesc@@PAVoutputStream@@@Z 0807c100 f   constMethodKlass.obj
 0001:0007b1c0       ?oop_verify_on@constMethodKlass@@UAEXPAVoopDesc@@PAVoutputStream@@@Z 0807c1c0 f   constMethodKlass.obj
 0001:0007b4e0       ?oop_follow_contents@constMethodKlass@@UAEXPAVoopDesc@@@Z 0807c4e0 f   constMethodKlass.obj
 0001:0007b510       ?oop_set_partially_loaded@constMethodKlass@@UAEXPAVoopDesc@@@Z 0807c510 f   constMethodKlass.obj
 0001:0007b540       ?allocate@constMethodKlass@@QAEPAVconstMethodOopDesc@@HHHH_NPAVThread@@@Z 0807c540 f   constMethodKlass.obj
 0001:0007b640       ?oop_follow_contents@constMethodKlass@@UAEXPAVParCompactionManager@@PAVoopDesc@@@Z 0807c640 f   constMethodKlass.obj
 0001:0007b680       ?object_size@constMethodOopDesc@@SAHHHHH@Z 0807c680 f   constMethodOop.obj
 0001:0007b6d0       ?compressed_linenumber_table@constMethodOopDesc@@QBEPAEXZ 0807c6d0 f   constMethodOop.obj
 0001:0007b6e0       ?checked_exceptions_length_addr@constMethodOopDesc@@QBEPAGXZ 0807c6e0 f   constMethodOop.obj
 0001:0007b6f0       ?checked_exceptions_length@constMethodOopDesc@@QBEHXZ 0807c6f0 f   constMethodOop.obj
 0001:0007b710       ?checked_exceptions_start@constMethodOopDesc@@QBEPAVCheckedExceptionElement@@XZ 0807c710 f   constMethodOop.obj
 0001:0007b730       ?localvariable_table_length_addr@constMethodOopDesc@@QBEPAGXZ 0807c730 f   constMethodOop.obj
 0001:0007b760       ?set_inlined_tables_length@constMethodOopDesc@@QAEXHHH@Z 0807c760 f   constMethodOop.obj
 0001:0007b7c0       ?localvariable_table_length@constMethodOopDesc@@QBEHXZ 0807c7c0 f   constMethodOop.obj
 0001:0007b7f0       ?localvariable_table_start@constMethodOopDesc@@QBEPAVLocalVariableTableElement@@XZ 0807c7f0 f   constMethodOop.obj
 0001:0007b840       ?internal_name@constantPoolCacheKlass@@UBEPBDXZ 0807c840 f   cpCacheKlass.obj
 0001:0007b850       ?oop_size@constantPoolCacheKlass@@UBEHPAVoopDesc@@@Z 0807c850 f   cpCacheKlass.obj
 0001:0007b870       ?oop_print_value_on@constantPoolCacheKlass@@UAEXPAVoopDesc@@PAVoutputStream@@@Z 0807c870 f   cpCacheKlass.obj
 0001:0007b8c0       ?create_klass@constantPoolCacheKlass@@SAPAVklassOopDesc@@PAVThread@@@Z 0807c8c0 f   cpCacheKlass.obj
 0001:0007b930       ?oop_oop_iterate@constantPoolCacheKlass@@UAEHPAVoopDesc@@PAVOopClosure@@@Z 0807c930 f   cpCacheKlass.obj
 0001:0007b990       ?oop_oop_iterate_m@constantPoolCacheKlass@@UAEHPAVoopDesc@@PAVOopClosure@@VMemRegion@@@Z 0807c990 f   cpCacheKlass.obj
 0001:0007ba10       ?oop_adjust_pointers@constantPoolCacheKlass@@UAEHPAVoopDesc@@@Z 0807ca10 f   cpCacheKlass.obj
 0001:0007ba80       ?oop_update_pointers@constantPoolCacheKlass@@UAEHPAVParCompactionManager@@PAVoopDesc@@@Z 0807ca80 f   cpCacheKlass.obj
 0001:0007bae0       ?oop_print_on@constantPoolCacheKlass@@UAEXPAVoopDesc@@PAVoutputStream@@@Z 0807cae0 f   cpCacheKlass.obj
 0001:0007bb20       ?oop_verify_on@constantPoolCacheKlass@@UAEXPAVoopDesc@@PAVoutputStream@@@Z 0807cb20 f   cpCacheKlass.obj
 0001:0007bb90       ?oop_update_pointers@constantPoolCacheKlass@@UAEHPAVParCompactionManager@@PAVoopDesc@@PAVHeapWord@@2@Z 0807cb90 f   cpCacheKlass.obj
 0001:0007bc10       ?oop_follow_contents@constantPoolCacheKlass@@UAEXPAVoopDesc@@@Z 0807cc10 f   cpCacheKlass.obj
 0001:0007bc50       ?oop_follow_contents@constantPoolCacheKlass@@UAEXPAVParCompactionManager@@PAVoopDesc@@@Z 0807cc50 f   cpCacheKlass.obj
 0001:0007bca0       ?allocate@constantPoolCacheKlass@@QAEPAVconstantPoolCacheOopDesc@@H_NPAVThread@@@Z 0807cca0 f   cpCacheKlass.obj
 0001:0007bd50       ?oop_push_contents@constantPoolCacheKlass@@UAEXPAVPSPromotionManager@@PAVoopDesc@@@Z 0807cd50 f   cpCacheKlass.obj
 0001:0007bdc0       ?field_index@ConstantPoolCacheEntry@@QBEHXZ 0807cdc0 f   cpCacheOop.obj
 0001:0007bdd0       ?initialize_bootstrap_method_index_in_cache@ConstantPoolCacheEntry@@QAEXH@Z 0807cdd0 f   cpCacheOop.obj
 0001:0007bdd0       ?set_end@MutableSpace@@UAEXPAVHeapWord@@@Z 0807cdd0 f   mutableNUMASpace.obj
 0001:0007bdd0       ?set_end@Space@@UAEXPAVHeapWord@@@Z 0807cdd0 f   space.obj
 0001:0007bde0       ?do_oop@LocalOopClosure@@UAEXPAPAVoopDesc@@@Z 0807cde0 f i cpCacheOop.obj
 0001:0007be00       ?do_oop@LocalOopClosure@@UAEXPAI@Z 0807ce00 f i cpCacheOop.obj
 0001:0007be20       ?oop_iterate@ConstantPoolCacheEntry@@QAEXPAVOopClosure@@@Z 0807ce20 f   cpCacheOop.obj
 0001:0007be50       ?oop_iterate_m@ConstantPoolCacheEntry@@QAEXPAVOopClosure@@VMemRegion@@@Z 0807ce50 f   cpCacheOop.obj
 0001:0007bea0       ?print@ConstantPoolCacheEntry@@QBEXPAVoutputStream@@H@Z 0807cea0 f   cpCacheOop.obj
 0001:0007bf90       ?adjust_pointers@ConstantPoolCacheEntry@@QAEXXZ 0807cf90 f   cpCacheOop.obj
 0001:0007bff0       ?update_pointers@ConstantPoolCacheEntry@@QAEXXZ 0807cff0 f   cpCacheOop.obj
 0001:0007c030       ?adjust_method_entry@ConstantPoolCacheEntry@@QAE_NPAVmethodOopDesc@@0PA_N@Z 0807d030 f   cpCacheOop.obj
 0001:0007c220       ?is_interesting_method_entry@ConstantPoolCacheEntry@@QAE_NPAVklassOopDesc@@@Z 0807d220 f   cpCacheOop.obj
 0001:0007c290       ?initialize@constantPoolCacheOopDesc@@QAEXAAVintArray@@@Z 0807d290 f   cpCacheOop.obj
 0001:0007c2d0       ?adjust_method_entries@constantPoolCacheOopDesc@@QAEXPAPAVmethodOopDesc@@0HPA_N@Z 0807d2d0 f   cpCacheOop.obj
 0001:0007c380       ?set_f1_if_null_atomic@ConstantPoolCacheEntry@@AAEXPAVoopDesc@@@Z 0807d380 f   cpCacheOop.obj
 0001:0007c400       ?update_pointers@ConstantPoolCacheEntry@@QAEXPAVHeapWord@@0@Z 0807d400 f   cpCacheOop.obj
 0001:0007c470       ?set_field@ConstantPoolCacheEntry@@QAEXW4Code@Bytecodes@@0VKlassHandle@@HHW4TosState@@_N3@Z 0807d470 f   cpCacheOop.obj
 0001:0007c530       ?set_method@ConstantPoolCacheEntry@@QAEXW4Code@Bytecodes@@VmethodHandle@@H@Z 0807d530 f   cpCacheOop.obj
 0001:0007c710       ?set_interface_call@ConstantPoolCacheEntry@@QAEXVmethodHandle@@H@Z 0807d710 f   cpCacheOop.obj
 0001:0007c7c0       ?set_dynamic_call@ConstantPoolCacheEntry@@QAEXVHandle@@VmethodHandle@@@Z 0807d7c0 f   cpCacheOop.obj
 0001:0007c860       ?follow_contents@ConstantPoolCacheEntry@@QAEXXZ 0807d860 f   cpCacheOop.obj
 0001:0007c890       ?follow_contents@ConstantPoolCacheEntry@@QAEXPAVParCompactionManager@@@Z 0807d890 f   cpCacheOop.obj
 0001:0007c8d0       ?do_bool@ComputeEntryStack@@EAEXXZ 0807d8d0 f i generateOopMap.obj
 0001:0007c8d0       ?do_int@ComputeEntryStack@@EAEXXZ 0807d8d0 f i generateOopMap.obj
 0001:0007c8d0       ?do_char@ComputeEntryStack@@EAEXXZ 0807d8d0 f i generateOopMap.obj
 0001:0007c8d0       ?do_float@ComputeEntryStack@@EAEXXZ 0807d8d0 f i generateOopMap.obj
 0001:0007c8d0       ?do_byte@ComputeCallStack@@EAEXXZ 0807d8d0 f i generateOopMap.obj
 0001:0007c8d0       ?do_short@ComputeCallStack@@EAEXXZ 0807d8d0 f i generateOopMap.obj
 0001:0007c8d0       ?do_short@ComputeEntryStack@@EAEXXZ 0807d8d0 f i generateOopMap.obj
 0001:0007c8d0       ?do_float@ComputeCallStack@@EAEXXZ 0807d8d0 f i generateOopMap.obj
 0001:0007c8d0       ?do_int@ComputeCallStack@@EAEXXZ 0807d8d0 f i generateOopMap.obj
 0001:0007c8d0       ?do_bool@ComputeCallStack@@EAEXXZ 0807d8d0 f i generateOopMap.obj
 0001:0007c8d0       ?do_byte@ComputeEntryStack@@EAEXXZ 0807d8d0 f i generateOopMap.obj
 0001:0007c8d0       ?do_char@ComputeCallStack@@EAEXXZ 0807d8d0 f i generateOopMap.obj
 0001:0007c8f0       ?do_void@ComputeEntryStack@@EAEXXZ 0807d8f0 f i generateOopMap.obj
 0001:0007c8f0       ?do_void@ComputeCallStack@@EAEXXZ 0807d8f0 f i generateOopMap.obj
 0001:0007c910       ?do_object@ComputeCallStack@@EAEXHH@Z 0807d910 f i generateOopMap.obj
 0001:0007c910       ?do_array@ComputeCallStack@@EAEXHH@Z 0807d910 f i generateOopMap.obj
 0001:0007c930       ?do_array@ComputeEntryStack@@EAEXHH@Z 0807d930 f i generateOopMap.obj
 0001:0007c930       ?do_object@ComputeEntryStack@@EAEXHH@Z 0807d930 f i generateOopMap.obj
 0001:0007c950       ?do_double@ComputeCallStack@@EAEXXZ 0807d950 f i generateOopMap.obj
 0001:0007c950       ?do_double@ComputeEntryStack@@EAEXXZ 0807d950 f i generateOopMap.obj
 0001:0007c950       ?do_long@ComputeEntryStack@@EAEXXZ 0807d950 f i generateOopMap.obj
 0001:0007c950       ?do_long@ComputeCallStack@@EAEXXZ 0807d950 f i generateOopMap.obj
 0001:0007c980       ?to_char@CellTypeState@@QBEDXZ 0807d980 f   generateOopMap.obj
 0001:0007c9d0       ?get_basic_block_containing@GenerateOopMap@@IBEPAVBasicBlock@@H@Z 0807d9d0 f   generateOopMap.obj
 0001:0007ca60       ?merge_local_state_vectors@GenerateOopMap@@IAE_NPAVCellTypeState@@0@Z 0807da60 f   generateOopMap.obj
 0001:0007cb00       ?merge_monitor_state_vectors@GenerateOopMap@@IAE_NPAVCellTypeState@@0@Z 0807db00 f   generateOopMap.obj
 0001:0007cbc0       ?copy_state@GenerateOopMap@@IAEXPAVCellTypeState@@0@Z 0807dbc0 f   generateOopMap.obj
 0001:0007cc60       ?replace_all_CTS_matches@GenerateOopMap@@IAEXVCellTypeState@@0@Z 0807dc60 f   generateOopMap.obj
 0001:0007ccc0       ?sigchar_to_effect@GenerateOopMap@@IAEPAVCellTypeState@@DHPAV2@@Z 0807dcc0 f   generateOopMap.obj
 0001:0007cd20       ?next@BytecodeStream@@QAE?AW4Code@Bytecodes@@XZ 0807dd20 f i generateOopMap.obj
 0001:0007cdd0       ?update_ret_table@RetTable@@QAEXHH@Z 0807ddd0 f   generateOopMap.obj
 0001:0007ce30       ?initialize_bb@GenerateOopMap@@IAEXXZ 0807de30 f   generateOopMap.obj
 0001:0007ce90       ?bb_mark_fct@GenerateOopMap@@KAXPAV1@HPAH@Z 0807de90 f   generateOopMap.obj
 0001:0007ced0       ?monitor_push@GenerateOopMap@@IAEXVCellTypeState@@@Z 0807ded0 f   generateOopMap.obj
 0001:0007cf10       ?update_basic_blocks@GenerateOopMap@@IAEXHHH@Z 0807df10 f   generateOopMap.obj
 0001:0007cfb0       ?initialize_vars@GenerateOopMap@@IAEXXZ 0807dfb0 f   generateOopMap.obj
 0001:0007cff0       ??0GenerateOopMap@@QAE@VmethodHandle@@@Z 0807dff0 f   generateOopMap.obj
 0001:0007d020       ?possible_gc_point@GenerateOopMap@@UAE_NPAVBytecodeStream@@@Z 0807e020 f i generateOopMap.obj
 0001:0007d040       ?fill_stackmap_prolog@GenerateOopMap@@UAEXH@Z 0807e040 f i generateOopMap.obj
 0001:0007d060       ?fill_stackmap_epilog@GenerateOopMap@@UAEXXZ 0807e060 f i generateOopMap.obj
 0001:0007d080       ?fill_stackmap_for_opcodes@GenerateOopMap@@UAEXPAVBytecodeStream@@PAVCellTypeState@@1H@Z 0807e080 f i generateOopMap.obj
 0001:0007d0a0       ?fill_init_vars@GenerateOopMap@@UAEXPAV?$GrowableArray@H@@@Z 0807e0a0 f i generateOopMap.obj
 0001:0007d0c0       ?stack_top_holds_ret_addr@GenerateOopMap@@IAE_NH@Z 0807e0c0 f   generateOopMap.obj
 0001:0007d0f0       ?update_ret_adr_at_TOS@GenerateOopMap@@IAEXHH@Z 0807e0f0 f   generateOopMap.obj
 0001:0007d130       ?get_index_u2_cpcache@BytecodeStream@@QBEHXZ 0807e130 f i generateOopMap.obj
 0001:0007d160       ?get_index_u4@BytecodeStream@@QBEHXZ 0807e160 f i generateOopMap.obj
 0001:0007d190       ??0RetTableEntry@@QAE@HPAV0@@Z 0807e190 f i generateOopMap.obj
 0001:0007d220       ?add_jsr@RetTable@@AAEXHH@Z 0807e220 f   generateOopMap.obj
 0001:0007d290       ?reachable_basicblock@GenerateOopMap@@KAXPAV1@HPAH@Z 0807e290 f   generateOopMap.obj
 0001:0007d2c0       ?jump_targets_do@GenerateOopMap@@IAE_NPAVBytecodeStream@@P6AXPAV1@HPAH@Z2@Z 0807e2c0 f   generateOopMap.obj
 0001:0007d4d0       ?init_state@GenerateOopMap@@IAEXXZ 0807e4d0 f   generateOopMap.obj
 0001:0007d540       ?add_to_ref_init_set@GenerateOopMap@@IAEXH@Z 0807e540 f   generateOopMap.obj
 0001:0007d590       ?error_work@GenerateOopMap@@IAEXPBDPAD@Z 0807e590 f   generateOopMap.obj
 0001:0007d640       ?report_error@GenerateOopMap@@IAAXPBDZZ 0807e640 f   generateOopMap.obj
 0001:0007d660       ?verify_error@GenerateOopMap@@IAAXPBDZZ 0807e660 f   generateOopMap.obj
 0001:0007d6e0       ?record_refval_conflict@GenerateOopMap@@IAEXH@Z 0807e6e0 f   generateOopMap.obj
 0001:0007d760       ?relocated@RelocCallback@@UAEXHHH@Z 0807e760 f i generateOopMap.obj
 0001:0007d7a0       ?expand_current_instr@GenerateOopMap@@IAEXHHHQAE@Z 0807e7a0 f   generateOopMap.obj
 0001:0007d820       ?get_index@BytecodeStream@@QBEHXZ 0807e820 f i generateOopMap.obj
 0001:0007d880       ?compute_ret_table@RetTable@@QAEXVmethodHandle@@@Z 0807e880 f   generateOopMap.obj
 0001:0007d960       ?merge_state_into_bb@GenerateOopMap@@IAEXPAVBasicBlock@@@Z 0807e960 f   generateOopMap.obj
 0001:0007da00       ?merge_state@GenerateOopMap@@KAXPAV1@HPAH@Z 0807ea00 f   generateOopMap.obj
 0001:0007da20       ?setup_method_entry_state@GenerateOopMap@@IAEXXZ 0807ea20 f   generateOopMap.obj
 0001:0007dae0       ?check_type@GenerateOopMap@@IAEXVCellTypeState@@0@Z 0807eae0 f   generateOopMap.obj
 0001:0007db20       ?ppstore@GenerateOopMap@@IAEXPAVCellTypeState@@H@Z 0807eb20 f   generateOopMap.obj
 0001:0007dc70       ?ppload@GenerateOopMap@@IAEXPAVCellTypeState@@H@Z 0807ec70 f   generateOopMap.obj
 0001:0007dd50       ?ppdupswap@GenerateOopMap@@IAEXHPBD@Z 0807ed50 f   generateOopMap.obj
 0001:0007ddf0       ?ppop1@GenerateOopMap@@IAEXVCellTypeState@@@Z 0807edf0 f   generateOopMap.obj
 0001:0007de70       ?ppop@GenerateOopMap@@IAEXPAVCellTypeState@@@Z 0807ee70 f   generateOopMap.obj
 0001:0007dea0       ?ppush1@GenerateOopMap@@IAEXVCellTypeState@@@Z 0807eea0 f   generateOopMap.obj
 0001:0007dee0       ?ppush@GenerateOopMap@@IAEXPAVCellTypeState@@@Z 0807eee0 f   generateOopMap.obj
 0001:0007df30       ?pp@GenerateOopMap@@IAEXPAVCellTypeState@@0@Z 0807ef30 f   generateOopMap.obj
 0001:0007df70       ?pp_new_ref@GenerateOopMap@@IAEXPAVCellTypeState@@H@Z 0807ef70 f   generateOopMap.obj
 0001:0007dfe0       ?ppop_any@GenerateOopMap@@IAEXH@Z 0807efe0 f   generateOopMap.obj
 0001:0007e010       ?do_checkcast@GenerateOopMap@@IAEXXZ 0807f010 f   generateOopMap.obj
 0001:0007e0c0       ?do_monitorenter@GenerateOopMap@@IAEXH@Z 0807f0c0 f   generateOopMap.obj
 0001:0007e160       ?do_monitorexit@GenerateOopMap@@IAEXH@Z 0807f160 f   generateOopMap.obj
 0001:0007e260       ?do_jsr@GenerateOopMap@@IAEXH@Z 0807f260 f   generateOopMap.obj
 0001:0007e2b0       ?do_ldc@GenerateOopMap@@IAEXH@Z 0807f2b0 f   generateOopMap.obj
 0001:0007e370       ?do_multianewarray@GenerateOopMap@@IAEXHH@Z 0807f370 f   generateOopMap.obj
 0001:0007e3d0       ?do_astore@GenerateOopMap@@IAEXH@Z 0807f3d0 f   generateOopMap.obj
 0001:0007e470       ?do_field@GenerateOopMap@@IAEXHHHH@Z 0807f470 f   generateOopMap.obj
 0001:0007e540       ?do_method@GenerateOopMap@@IAEXHHHH@Z 0807f540 f   generateOopMap.obj
 0001:0007e640       ?ret_jump_targets_do@GenerateOopMap@@IAEXPAVBytecodeStream@@P6AXPAV1@HPAH@ZH2@Z 0807f640 f   generateOopMap.obj
 0001:0007e700       ?rewrite_load_or_store@GenerateOopMap@@IAE_NPAVBytecodeStream@@W4Code@Bytecodes@@1I@Z 0807f700 f   generateOopMap.obj
 0001:0007e800       ?mark_bbheaders_and_count_gc_points@GenerateOopMap@@IAEXXZ 0807f800 f   generateOopMap.obj
 0001:0007e990       ?mark_reachable_code@GenerateOopMap@@IAEXXZ 0807f990 f   generateOopMap.obj
 0001:0007eb00       ?init_basic_blocks@GenerateOopMap@@IAEXXZ 0807fb00 f   generateOopMap.obj
 0001:0007eca0       ?do_exception_edge@GenerateOopMap@@IAEXPAVBytecodeStream@@@Z 0807fca0 f   generateOopMap.obj
 0001:0007ee60       ?interp1@GenerateOopMap@@IAEXPAVBytecodeStream@@@Z 0807fe60 f   generateOopMap.obj
 0001:0007f7e0       ?rewrite_refval_conflict_inst@GenerateOopMap@@IAE_NPAVBytecodeStream@@HH@Z 080807e0 f   generateOopMap.obj
 0001:0007f880       ?compute_ret_adr_at_TOS@GenerateOopMap@@IAEXXZ 08080880 f   generateOopMap.obj
 0001:0007f9d0       ?interp_bb@GenerateOopMap@@IAEXPAVBasicBlock@@@Z 080809d0 f   generateOopMap.obj
 0001:0007fb50       ?report_result@GenerateOopMap@@IAEXXZ 08080b50 f   generateOopMap.obj
 0001:0007fbc0       ?result_for_basicblock@GenerateOopMap@@QAEXH@Z 08080bc0 f   generateOopMap.obj
 0001:0007fbf0       ?rewrite_refval_conflict@GenerateOopMap@@IAEXHH@Z 08080bf0 f   generateOopMap.obj
 0001:0007fc70       ?interp_all@GenerateOopMap@@IAEXXZ 08080c70 f   generateOopMap.obj
 0001:0007fce0       ?rewrite_refval_conflicts@GenerateOopMap@@IAEXXZ 08080ce0 f   generateOopMap.obj
 0001:0007fd90       ?do_interpretation@GenerateOopMap@@IAEXXZ 08080d90 f   generateOopMap.obj
 0001:0007fdf0       ?compute_map@GenerateOopMap@@QAEXPAVThread@@@Z 08080df0 f   generateOopMap.obj
 0001:0007ffd0       ?do_potential_rewrite@ResolveOopMapConflicts@@QAE?AVmethodHandle@@PAVThread@@@Z 08080fd0 f   generateOopMap.obj
 0001:00080030       ?unlink_class@instanceKlass@@QAEXXZ 08081030 f   instanceKlass.obj
 0001:00080040       ?can_be_primary_super_slow@instanceKlass@@UBE_NXZ 08081040 f   instanceKlass.obj
 0001:00080060       ?array_klass_impl@instanceKlass@@EAEPAVklassOopDesc@@_NPAVThread@@@Z 08081060 f   instanceKlass.obj
 0001:00080090       ?with_array_klasses_do@instanceKlass@@UAEXP6AXPAVklassOopDesc@@@Z@Z 08081090 f   instanceKlass.obj
 0001:000800c0       ?get_jmethod_id_length_value@instanceKlass@@SAXPAPAU_jmethodID@@IPAI0@Z 080810c0 f   instanceKlass.obj
 0001:000800f0       ?add_dependent_nmethod@instanceKlass@@QAEXPAVnmethod@@@Z 080810f0 f   instanceKlass.obj
 0001:00080160       ?remove_dependent_nmethod@instanceKlass@@QAEXPAVnmethod@@@Z 08081160 f   instanceKlass.obj
 0001:000801e0       ?signature_name@instanceKlass@@UBEPBDXZ 080811e0 f   instanceKlass.obj
 0001:00080240       ?internal_name@instanceKlass@@UBEPBDXZ 08081240 f   instanceKlass.obj
 0001:00080240       ?internal_name@objArrayKlass@@UBEPBDXZ 08081240 f   objArrayKlass.obj
 0001:00080240       ?internal_name@typeArrayKlass@@UBEPBDXZ 08081240 f   typeArrayKlass.obj
 0001:00080250       ?print@java_lang_boxing_object@@SAXPAVoopDesc@@PAVoutputStream@@@Z 08081250 f i instanceKlass.obj
 0001:00080280       ?addr_to_region@HeapRegionSeq@@QAEPAVHeapRegion@@PBX@Z 08081280 f i instanceKlass.obj
 0001:000802b0       ?heap_region_containing@G1CollectedHeap@@QBEPAVHeapRegion@@PBX@Z 080812b0 f i instanceKlass.obj
 0001:00080300       ?obj_in_cs@G1CollectedHeap@@QAE_NPAVoopDesc@@@Z 08081300 f i instanceKlass.obj
 0001:00080350       ?should_be_initialized@instanceKlass@@UBE_NXZ 08081350 f   instanceKlass.obj
 0001:00080360       ?verify_code@instanceKlass@@CA_NVinstanceKlassHandle@@_NPAVThread@@@Z 08081360 f   instanceKlass.obj
 0001:000803a0       ?rewrite_class@instanceKlass@@QAEXPAVThread@@@Z 080813a0 f   instanceKlass.obj
 0001:00080400       ?mask_for@instanceKlass@@QAEXVmethodHandle@@HPAVInterpreterOopMap@@@Z 08081400 f   instanceKlass.obj
 0001:00080470       ?array_klasses_do@instanceKlass@@UAEXP6AXPAVklassOopDesc@@@Z@Z 08081470 f   instanceKlass.obj
 0001:00080490       ?get_jmethod_id_fetch_or_update@instanceKlass@@SAPAU_jmethodID@@VinstanceKlassHandle@@IPAU2@PAPAU2@2PAPAPAU2@@Z 08081490 f   instanceKlass.obj
 0001:00080540       ?jmethod_id_or_null@instanceKlass@@QAEPAU_jmethodID@@PAVmethodOopDesc@@@Z 08081540 f   instanceKlass.obj
 0001:00080570       ?set_cached_itable_index@instanceKlass@@QAEXIH@Z 08081570 f   instanceKlass.obj
 0001:000806b0       ?cached_itable_index@instanceKlass@@QAEHI@Z 080816b0 f   instanceKlass.obj
 0001:000806e0       ?oop_oop_iterate_v@instanceKlass@@UAEHPAVoopDesc@@PAVOopClosure@@@Z 080816e0 f   instanceKlass.obj
 0001:00080790       ?oop_oop_iterate_nv@instanceKlass@@UAEHPAVoopDesc@@PAVFilteringClosure@@@Z 08081790 f   instanceKlass.obj
 0001:00080820       ?oop_oop_iterate_nv@instanceKlass@@UAEHPAVoopDesc@@PAVMarkRefsIntoAndScanClosure@@@Z 08081820 f   instanceKlass.obj
 0001:000808c0       ?oop_oop_iterate_nv@instanceKlass@@UAEHPAVoopDesc@@PAVPar_MarkRefsIntoAndScanClosure@@@Z 080818c0 f   instanceKlass.obj
 0001:00080960       ?oop_oop_iterate_nv@instanceKlass@@UAEHPAVoopDesc@@PAVPushAndMarkClosure@@@Z 08081960 f   instanceKlass.obj
 0001:00080a00       ?oop_oop_iterate_nv@instanceKlass@@UAEHPAVoopDesc@@PAVPar_PushAndMarkClosure@@@Z 08081a00 f   instanceKlass.obj
 0001:00080aa0       ?oop_oop_iterate_nv@instanceKlass@@UAEHPAVoopDesc@@PAVPushOrMarkClosure@@@Z 08081aa0 f   instanceKlass.obj
 0001:00080b40       ?oop_oop_iterate_nv@instanceKlass@@UAEHPAVoopDesc@@PAVPar_PushOrMarkClosure@@@Z 08081b40 f   instanceKlass.obj
 0001:00080be0       ?oop_oop_iterate_nv@instanceKlass@@UAEHPAVoopDesc@@PAVCMSKeepAliveClosure@@@Z 08081be0 f   instanceKlass.obj
 0001:00080c80       ?oop_oop_iterate_nv@instanceKlass@@UAEHPAVoopDesc@@PAVCMSInnerParMarkAndPushClosure@@@Z 08081c80 f   instanceKlass.obj
 0001:00080d20       ?oop_oop_iterate_nv@instanceKlass@@UAEHPAVoopDesc@@PAV?$G1ParCopyClosure@$0A@$01$0A@@@@Z 08081d20 f   instanceKlass.obj
 0001:00080dc0       ?oop_oop_iterate_v_m@instanceKlass@@UAEHPAVoopDesc@@PAVOopClosure@@VMemRegion@@@Z 08081dc0 f   instanceKlass.obj
 0001:00080e80       ?oop_oop_iterate_nv_m@instanceKlass@@UAEHPAVoopDesc@@PAVFilteringClosure@@VMemRegion@@@Z 08081e80 f   instanceKlass.obj
 0001:00080f30       ?oop_oop_iterate_nv_m@instanceKlass@@UAEHPAVoopDesc@@PAVMarkRefsIntoAndScanClosure@@VMemRegion@@@Z 08081f30 f   instanceKlass.obj
 0001:00081000       ?oop_oop_iterate_nv_m@instanceKlass@@UAEHPAVoopDesc@@PAVPar_MarkRefsIntoAndScanClosure@@VMemRegion@@@Z 08082000 f   instanceKlass.obj
 0001:000810d0       ?oop_oop_iterate_nv_m@instanceKlass@@UAEHPAVoopDesc@@PAVPushAndMarkClosure@@VMemRegion@@@Z 080820d0 f   instanceKlass.obj
 0001:000811a0       ?oop_oop_iterate_nv_m@instanceKlass@@UAEHPAVoopDesc@@PAVPar_PushAndMarkClosure@@VMemRegion@@@Z 080821a0 f   instanceKlass.obj
 0001:00081270       ?oop_oop_iterate_nv_m@instanceKlass@@UAEHPAVoopDesc@@PAVPushOrMarkClosure@@VMemRegion@@@Z 08082270 f   instanceKlass.obj
 0001:00081340       ?oop_oop_iterate_nv_m@instanceKlass@@UAEHPAVoopDesc@@PAVPar_PushOrMarkClosure@@VMemRegion@@@Z 08082340 f   instanceKlass.obj
 0001:00081410       ?oop_oop_iterate_nv_m@instanceKlass@@UAEHPAVoopDesc@@PAVCMSKeepAliveClosure@@VMemRegion@@@Z 08082410 f   instanceKlass.obj
 0001:000814e0       ?oop_oop_iterate_nv_m@instanceKlass@@UAEHPAVoopDesc@@PAVCMSInnerParMarkAndPushClosure@@VMemRegion@@@Z 080824e0 f   instanceKlass.obj
 0001:000815b0       ?oop_oop_iterate_nv_m@instanceKlass@@UAEHPAVoopDesc@@PAV?$G1ParCopyClosure@$0A@$01$0A@@@VMemRegion@@@Z 080825b0 f   instanceKlass.obj
 0001:00081670       ?oop_oop_iterate_backwards_v@instanceKlass@@UAEHPAVoopDesc@@PAVOopClosure@@@Z 08082670 f   instanceKlass.obj
 0001:00081710       ?oop_oop_iterate_backwards_nv@instanceKlass@@UAEHPAVoopDesc@@PAVFilteringClosure@@@Z 08082710 f   instanceKlass.obj
 0001:000817b0       ?oop_oop_iterate_backwards_nv@instanceKlass@@UAEHPAVoopDesc@@PAVMarkRefsIntoAndScanClosure@@@Z 080827b0 f   instanceKlass.obj
 0001:00081850       ?oop_oop_iterate_backwards_nv@instanceKlass@@UAEHPAVoopDesc@@PAVPar_MarkRefsIntoAndScanClosure@@@Z 08082850 f   instanceKlass.obj
 0001:000818f0       ?oop_oop_iterate_backwards_nv@instanceKlass@@UAEHPAVoopDesc@@PAVPushAndMarkClosure@@@Z 080828f0 f   instanceKlass.obj
 0001:00081990       ?oop_oop_iterate_backwards_nv@instanceKlass@@UAEHPAVoopDesc@@PAVPar_PushAndMarkClosure@@@Z 08082990 f   instanceKlass.obj
 0001:00081a30       ?oop_oop_iterate_backwards_nv@instanceKlass@@UAEHPAVoopDesc@@PAVPushOrMarkClosure@@@Z 08082a30 f   instanceKlass.obj
 0001:00081ad0       ?oop_oop_iterate_backwards_nv@instanceKlass@@UAEHPAVoopDesc@@PAVPar_PushOrMarkClosure@@@Z 08082ad0 f   instanceKlass.obj
 0001:00081b70       ?oop_oop_iterate_backwards_nv@instanceKlass@@UAEHPAVoopDesc@@PAVCMSKeepAliveClosure@@@Z 08082b70 f   instanceKlass.obj
 0001:00081c10       ?oop_oop_iterate_backwards_nv@instanceKlass@@UAEHPAVoopDesc@@PAVCMSInnerParMarkAndPushClosure@@@Z 08082c10 f   instanceKlass.obj
 0001:00081cb0       ?oop_oop_iterate_backwards_nv@instanceKlass@@UAEHPAVoopDesc@@PAV?$G1ParCopyClosure@$0A@$01$0A@@@@Z 08082cb0 f   instanceKlass.obj
 0001:00081d50       ?iterate_static_fields@instanceKlass@@QAEXPAVOopClosure@@@Z 08082d50 f   instanceKlass.obj
 0001:00081da0       ?iterate_static_fields@instanceKlass@@QAEXPAVOopClosure@@VMemRegion@@@Z 08082da0 f   instanceKlass.obj
 0001:00081e00       ?follow_weak_klass_links@instanceKlass@@UAEXPAVBoolObjectClosure@@PAVOopClosure@@@Z 08082e00 f   instanceKlass.obj
 0001:00081ea0       ?jvmti_class_status@instanceKlass@@UBEHXZ 08082ea0 f   instanceKlass.obj
 0001:00081ed0       ?method_at_itable@instanceKlass@@QAEPAVmethodOopDesc@@PAVklassOopDesc@@HPAVThread@@@Z 08082ed0 f   instanceKlass.obj
 0001:00081f60       ?remove_osr_nmethod@instanceKlass@@QAEXPAVnmethod@@@Z 08082f60 f   instanceKlass.obj
 0001:00082010       ?lookup_osr_nmethod@instanceKlass@@QBEPAVnmethod@@QAVmethodOopDesc@@HH_N@Z 08083010 f   instanceKlass.obj
 0001:000820c0       ?oop_verify_on@instanceKlass@@UAEXPAVoopDesc@@PAVoutputStream@@@Z 080830c0 f   instanceKlass.obj
 0001:00082100       ?oops_do@JNIid@@QAEXPAVOopClosure@@@Z 08083100 f   instanceKlass.obj
 0001:00082130       ?verify@JNIid@@QAEXPAVklassOopDesc@@@Z 08083130 f   instanceKlass.obj
 0001:00082170       ??1PreviousVersionWalker@@QAE@XZ 08083170 f   instanceKlass.obj
 0001:00082190       ??$do_oop_nv@I@FilterIntoCSClosure@@QAEXPAI@Z 08083190 f i instanceKlass.obj
 0001:000821d0       ??$do_oop_nv@PAVoopDesc@@@FilterIntoCSClosure@@QAEXPAPAVoopDesc@@@Z 080831d0 f i instanceKlass.obj
 0001:00082200       ??$do_oop_nv@I@FilterOutOfRegionClosure@@QAEXPAI@Z 08083200 f i instanceKlass.obj
 0001:00082240       ??$do_oop_nv@PAVoopDesc@@@FilterOutOfRegionClosure@@QAEXPAPAVoopDesc@@@Z 08083240 f i instanceKlass.obj
 0001:00082270       ??$do_oop_nv@PAVoopDesc@@@FilterInHeapRegionAndIntoCSClosure@@QAEXPAPAVoopDesc@@@Z 08083270 f i instanceKlass.obj
 0001:000822a0       ??$do_oop_nv@PAVoopDesc@@@FilterAndMarkInHeapRegionAndIntoCSClosure@@QAEXPAPAVoopDesc@@@Z 080832a0 f i instanceKlass.obj
 0001:00082300       ??$should_scavenge@I@PSScavenge@@SA_NPAI@Z 08083300 f i instanceKlass.obj
 0001:00082330       ??$par_write_ref@I@G1RemSet@@QAEXPAVHeapRegion@@PAIH@Z 08083330 f i instanceKlass.obj
 0001:000823b0       ??$par_write_ref@PAVoopDesc@@@G1RemSet@@QAEXPAVHeapRegion@@PAPAVoopDesc@@H@Z 080833b0 f i instanceKlass.obj
 0001:00082420       ??$par_do_barrier@I@ParScanClosure@@IAEXPAI@Z 08083420 f i instanceKlass.obj
 0001:00082450       ??$deferred_rs_update@I@G1ParScanThreadState@@IAEXPAVHeapRegion@@PAIH@Z 08083450 f i instanceKlass.obj
 0001:000824c0       ??$deferred_rs_update@PAVoopDesc@@@G1ParScanThreadState@@IAEXPAVHeapRegion@@PAPAVoopDesc@@H@Z 080834c0 f i instanceKlass.obj
 0001:00082520       ?vtable@instanceKlass@@UBEPAVklassVtable@@XZ 08083520 f   instanceKlass.obj
 0001:00082580       ?itable@instanceKlass@@QBEPAVklassItable@@XZ 08083580 f   instanceKlass.obj
 0001:000825b0       ?set_initialization_state_and_notify@instanceKlass@@QAEXW4ClassState@1@PAVThread@@@Z 080835b0 f   instanceKlass.obj
 0001:00082610       ?register_finalizer@instanceKlass@@SAPAVinstanceOopDesc@@PAV2@PAVThread@@@Z 08083610 f   instanceKlass.obj
 0001:000826a0       ?check_valid_for_instantiation@instanceKlass@@UAEX_NPAVThread@@@Z 080836a0 f   instanceKlass.obj
 0001:000827a0       ?do_local_static_fields_impl@instanceKlass@@CAXVinstanceKlassHandle@@P6AXPAVfieldDescriptor@@PAVThread@@@Z2@Z 080837a0 f   instanceKlass.obj
 0001:00082810       ?do_nonstatic_fields@instanceKlass@@QAEXPAVFieldClosure@@@Z 08083810 f   instanceKlass.obj
 0001:00082920       ?jni_id_for_impl@instanceKlass@@CAPAVJNIid@@VinstanceKlassHandle@@H@Z 08083920 f   instanceKlass.obj
 0001:000829e0       ?jni_id_for@instanceKlass@@QAEPAVJNIid@@H@Z 080839e0 f   instanceKlass.obj
 0001:00082a20       ?mark_dependent_nmethods@instanceKlass@@QAEHAAVDepChange@@@Z 08083a20 f   instanceKlass.obj
 0001:00082a70       ?adjust_static_fields@instanceKlass@@QAEXXZ 08083a70 f   instanceKlass.obj
 0001:00082ad0       ?update_static_fields@instanceKlass@@QAEXXZ 08083ad0 f   instanceKlass.obj
 0001:00082b30       ?update_static_fields@instanceKlass@@QAEXPAVHeapWord@@0@Z 08083b30 f   instanceKlass.obj
 0001:00082ba0       ?oop_oop_iterate_nv@instanceKlass@@UAEHPAVoopDesc@@PAVFilterIntoCSClosure@@@Z 08083ba0 f   instanceKlass.obj
 0001:00082c70       ?oop_oop_iterate_nv@instanceKlass@@UAEHPAVoopDesc@@PAVFilterOutOfRegionClosure@@@Z 08083c70 f   instanceKlass.obj
 0001:00082d10       ?oop_oop_iterate_nv@instanceKlass@@UAEHPAVoopDesc@@PAVFilterInHeapRegionAndIntoCSClosure@@@Z 08083d10 f   instanceKlass.obj
 0001:00082de0       ?oop_oop_iterate_nv@instanceKlass@@UAEHPAVoopDesc@@PAVFilterAndMarkInHeapRegionAndIntoCSClosure@@@Z 08083de0 f   instanceKlass.obj
 0001:00082ef0       ?oop_oop_iterate_nv_m@instanceKlass@@UAEHPAVoopDesc@@PAVFilterIntoCSClosure@@VMemRegion@@@Z 08083ef0 f   instanceKlass.obj
 0001:00082fe0       ?oop_oop_iterate_nv_m@instanceKlass@@UAEHPAVoopDesc@@PAVFilterOutOfRegionClosure@@VMemRegion@@@Z 08083fe0 f   instanceKlass.obj
 0001:000830a0       ?oop_oop_iterate_nv_m@instanceKlass@@UAEHPAVoopDesc@@PAVFilterInHeapRegionAndIntoCSClosure@@VMemRegion@@@Z 080840a0 f   instanceKlass.obj
 0001:00083190       ?oop_oop_iterate_nv_m@instanceKlass@@UAEHPAVoopDesc@@PAVFilterAndMarkInHeapRegionAndIntoCSClosure@@VMemRegion@@@Z 08084190 f   instanceKlass.obj
 0001:000832d0       ?oop_oop_iterate_backwards_nv@instanceKlass@@UAEHPAVoopDesc@@PAVFilterIntoCSClosure@@@Z 080842d0 f   instanceKlass.obj
 0001:000833a0       ?oop_oop_iterate_backwards_nv@instanceKlass@@UAEHPAVoopDesc@@PAVFilterOutOfRegionClosure@@@Z 080843a0 f   instanceKlass.obj
 0001:00083440       ?oop_oop_iterate_backwards_nv@instanceKlass@@UAEHPAVoopDesc@@PAVFilterInHeapRegionAndIntoCSClosure@@@Z 08084440 f   instanceKlass.obj
 0001:00083510       ?oop_oop_iterate_backwards_nv@instanceKlass@@UAEHPAVoopDesc@@PAVFilterAndMarkInHeapRegionAndIntoCSClosure@@@Z 08084510 f   instanceKlass.obj
 0001:00083620       ?oop_adjust_pointers@instanceKlass@@UAEHPAVoopDesc@@@Z 08084620 f   instanceKlass.obj
 0001:000836e0       ?oop_update_pointers@instanceKlass@@UAEHPAVParCompactionManager@@PAVoopDesc@@@Z 080846e0 f   instanceKlass.obj
 0001:00083770       ?oop_update_pointers@instanceKlass@@UAEHPAVParCompactionManager@@PAVoopDesc@@PAVHeapWord@@2@Z 08084770 f   instanceKlass.obj
 0001:00083820       ?is_same_class_package@instanceKlass@@SA_NPAVoopDesc@@PAVsymbolOopDesc@@01@Z 08084820 f   instanceKlass.obj
 0001:00083940       ?add_osr_nmethod@instanceKlass@@QAEXPAVnmethod@@@Z 08084940 f   instanceKlass.obj
 0001:000839f0       ?oop_print_value_on@instanceKlass@@UAEXPAVoopDesc@@PAVoutputStream@@@Z 080849f0 f   instanceKlass.obj
 0001:00083ba0       ??0PreviousVersionInfo@@QAE@PAVPreviousVersionNode@@@Z 08084ba0 f   instanceKlass.obj
 0001:00083c70       ??0PreviousVersionWalker@@QAE@PAVinstanceKlass@@@Z 08084c70 f   instanceKlass.obj
 0001:00083cb0       ?next_previous_version@PreviousVersionWalker@@QAEPAVPreviousVersionInfo@@XZ 08084cb0 f   instanceKlass.obj
 0001:00083d30       ??$do_oop_work@PAVoopDesc@@@ParScanClosure@@IAEXPAPAVoopDesc@@_N1@Z 08084d30 f i instanceKlass.obj
 0001:00083de0       ??$do_oop_work@I@ParScanClosure@@IAEXPAI_N1@Z 08084de0 f i instanceKlass.obj
 0001:00083eb0       ?do_local_static_fields@instanceKlass@@QAEXP6AXPAVfieldDescriptor@@PAVThread@@@Z1@Z 08084eb0 f   instanceKlass.obj
 0001:00083ee0       ?oop_oop_iterate_nv@instanceKlass@@UAEHPAVoopDesc@@PAVScanClosure@@@Z 08084ee0 f   instanceKlass.obj
 0001:00083fd0       ?oop_oop_iterate_nv@instanceKlass@@UAEHPAVoopDesc@@PAVFastScanClosure@@@Z 08084fd0 f   instanceKlass.obj
 0001:000840c0       ?oop_oop_iterate_nv@instanceKlass@@UAEHPAVoopDesc@@PAVParScanWithBarrierClosure@@@Z 080850c0 f   instanceKlass.obj
 0001:00084160       ?oop_oop_iterate_nv@instanceKlass@@UAEHPAVoopDesc@@PAVParScanWithoutBarrierClosure@@@Z 08085160 f   instanceKlass.obj
 0001:00084200       ?oop_oop_iterate_nv_m@instanceKlass@@UAEHPAVoopDesc@@PAVScanClosure@@VMemRegion@@@Z 08085200 f   instanceKlass.obj
 0001:00084310       ?oop_oop_iterate_nv_m@instanceKlass@@UAEHPAVoopDesc@@PAVFastScanClosure@@VMemRegion@@@Z 08085310 f   instanceKlass.obj
 0001:00084420       ?oop_oop_iterate_nv_m@instanceKlass@@UAEHPAVoopDesc@@PAVParScanWithBarrierClosure@@VMemRegion@@@Z 08085420 f   instanceKlass.obj
 0001:000844e0       ?oop_oop_iterate_nv_m@instanceKlass@@UAEHPAVoopDesc@@PAVParScanWithoutBarrierClosure@@VMemRegion@@@Z 080854e0 f   instanceKlass.obj
 0001:000845a0       ?oop_oop_iterate_backwards_nv@instanceKlass@@UAEHPAVoopDesc@@PAVScanClosure@@@Z 080855a0 f   instanceKlass.obj
 0001:00084690       ?oop_oop_iterate_backwards_nv@instanceKlass@@UAEHPAVoopDesc@@PAVFastScanClosure@@@Z 08085690 f   instanceKlass.obj
 0001:00084780       ?oop_oop_iterate_backwards_nv@instanceKlass@@UAEHPAVoopDesc@@PAVParScanWithBarrierClosure@@@Z 08085780 f   instanceKlass.obj
 0001:00084820       ?oop_oop_iterate_backwards_nv@instanceKlass@@UAEHPAVoopDesc@@PAVParScanWithoutBarrierClosure@@@Z 08085820 f   instanceKlass.obj
 0001:000848c0       ?is_same_class_package@instanceKlass@@QAE_NPAVklassOopDesc@@@Z 080858c0 f   instanceKlass.obj
 0001:00084910       ?is_override@instanceKlass@@QAE_NVmethodHandle@@VHandle@@VsymbolHandle@@PAVThread@@@Z 08085910 f   instanceKlass.obj
 0001:00084980       ?is_same_package_member_impl@instanceKlass@@SA_NVinstanceKlassHandle@@PAVklassOopDesc@@PAVThread@@@Z 08085980 f   instanceKlass.obj
 0001:00084ad0       ?do_oop@VerifyFieldClosure@@UAEXPAPAVoopDesc@@@Z 08085ad0 f i instanceKlass.obj
 0001:00084ae0       ??$do_oop_work@PAVoopDesc@@@VerifyFieldClosure@@IAEXPAPAVoopDesc@@@Z 08085ae0 f i instanceKlass.obj
 0001:00084b70       ?do_oop@VerifyFieldClosure@@UAEXPAI@Z 08085b70 f i instanceKlass.obj
 0001:00084b80       ??$do_oop_work@I@VerifyFieldClosure@@IAEXPAI@Z 08085b80 f i instanceKlass.obj
 0001:00084c20       ?find_local_field@instanceKlass@@QBE_NPAVsymbolOopDesc@@0PAVfieldDescriptor@@@Z 08085c20 f   instanceKlass.obj
 0001:00084c90       ?field_names_and_sigs_iterate@instanceKlass@@QAEXPAVOopClosure@@@Z 08085c90 f   instanceKlass.obj
 0001:00084d30       ?find_local_field_from_offset@instanceKlass@@QBE_NH_NPAVfieldDescriptor@@@Z 08085d30 f   instanceKlass.obj
 0001:00084db0       ?find_field_from_offset@instanceKlass@@QBE_NH_NPAVfieldDescriptor@@@Z 08085db0 f   instanceKlass.obj
 0001:00084df0       ?compute_modifier_flags@instanceKlass@@UBEHPAVThread@@@Z 08085df0 f   instanceKlass.obj
 0001:00084ec0       ??1PreviousVersionNode@@QAE@XZ 08085ec0 f   instanceKlass.obj
 0001:00084f40       ?link_class_impl@instanceKlass@@CA_NVinstanceKlassHandle@@_NPAVThread@@@Z 08085f40 f   instanceKlass.obj
 0001:00085340       ?init_implementor@instanceKlass@@QAEXXZ 08086340 f   instanceKlass.obj
 0001:000853d0       ?compute_secondary_supers@instanceKlass@@UAEPAVobjArrayOopDesc@@HPAVThread@@@Z 080863d0 f   instanceKlass.obj
 0001:00085460       ?implements_interface@instanceKlass@@QBE_NPAVklassOopDesc@@@Z 08086460 f   instanceKlass.obj
 0001:000854b0       ?find_interface_field@instanceKlass@@QBEPAVklassOopDesc@@PAVsymbolOopDesc@@0PAVfieldDescriptor@@@Z 080864b0 f   instanceKlass.obj
 0001:00085550       ?find_field@instanceKlass@@QBEPAVklassOopDesc@@PAVsymbolOopDesc@@0PAVfieldDescriptor@@@Z 08086550 f   instanceKlass.obj
 0001:000855b0       ?find_field@instanceKlass@@QBEPAVklassOopDesc@@PAVsymbolOopDesc@@0_NPAVfieldDescriptor@@@Z 080865b0 f   instanceKlass.obj
 0001:00085620       ?methods_do@instanceKlass@@QAEXP6AXPAVmethodOopDesc@@@Z@Z 08086620 f   instanceKlass.obj
 0001:00085660       ?find_method@instanceKlass@@SAPAVmethodOopDesc@@PAVobjArrayOopDesc@@PAVsymbolOopDesc@@1@Z 08086660 f   instanceKlass.obj
 0001:00085790       ?lookup_method_in_all_interfaces@instanceKlass@@QBEPAVmethodOopDesc@@PAVsymbolOopDesc@@0@Z 08086790 f   instanceKlass.obj
 0001:000857e0       ?follow_static_fields@instanceKlass@@QAEXXZ 080867e0 f   instanceKlass.obj
 0001:000858c0       ?remove_unshareable_info@instanceKlass@@UAEXXZ 080868c0 f   instanceKlass.obj
 0001:000858d0       ?add_previous_version@instanceKlass@@QAEXVinstanceKlassHandle@@PAVBitMap@@H@Z 080868d0 f   instanceKlass.obj
 0001:00086260       ?method_with_idnum@instanceKlass@@QAEPAVmethodOopDesc@@H@Z 08087260 f   instanceKlass.obj
 0001:000862b0       ??$push_on_queue@I@G1ParScanThreadState@@QAEXPAI@Z 080872b0 f i instanceKlass.obj
 0001:000862f0       ??$push_on_queue@PAVoopDesc@@@G1ParScanThreadState@@QAEXPAPAVoopDesc@@@Z 080872f0 f i instanceKlass.obj
 0001:00086330       ?set_array_klasses@instanceKlass@@QAEXPAVklassOopDesc@@@Z 08087330 f i instanceKlass.obj
 0001:00086360       ?link_class@instanceKlass@@QAEXPAVThread@@@Z 08087360 f   instanceKlass.obj
 0001:000863a0       ?link_class_or_fail@instanceKlass@@QAE_NPAVThread@@@Z 080873a0 f   instanceKlass.obj
 0001:00086400       ?add_implementor@instanceKlass@@QAEXPAVklassOopDesc@@@Z 08087400 f   instanceKlass.obj
 0001:000864d0       ?process_interfaces@instanceKlass@@QAEXPAVThread@@@Z 080874d0 f   instanceKlass.obj
 0001:00086530       ?compute_is_subtype_of@instanceKlass@@UAE_NPAVklassOopDesc@@@Z 08087530 f   instanceKlass.obj
 0001:00086560       ?array_klass_impl@instanceKlass@@CAPAVklassOopDesc@@VinstanceKlassHandle@@_NHPAVThread@@@Z 08087560 f   instanceKlass.obj
 0001:000866a0       ?find_method@instanceKlass@@QBEPAVmethodOopDesc@@PAVsymbolOopDesc@@0@Z 080876a0 f   instanceKlass.obj
 0001:000866c0       ?uncached_lookup_method@instanceKlass@@UBEPAVmethodOopDesc@@PAVsymbolOopDesc@@0@Z 080876c0 f   instanceKlass.obj
 0001:00086700       ?get_jmethod_id@instanceKlass@@SAPAU_jmethodID@@VinstanceKlassHandle@@VmethodHandle@@@Z 08087700 f   instanceKlass.obj
 0001:00086910       ?follow_static_fields@instanceKlass@@QAEXPAVParCompactionManager@@@Z 08087910 f   instanceKlass.obj
 0001:00086a00       ?oop_follow_contents@instanceKlass@@UAEXPAVoopDesc@@@Z 08087a00 f   instanceKlass.obj
 0001:00086b30       ?oop_follow_contents@instanceKlass@@UAEXPAVParCompactionManager@@PAVoopDesc@@@Z 08087b30 f   instanceKlass.obj
 0001:00086cb0       ?release_C_heap_structures@instanceKlass@@QAEXXZ 08087cb0 f   instanceKlass.obj
 0001:00086e30       ?set_methods_annotations_of@instanceKlass@@AAEXHPAVtypeArrayOopDesc@@PAPAVobjArrayOopDesc@@@Z 08087e30 f   instanceKlass.obj
 0001:00086f00       ??$do_oop_nv@I@G1ParScanClosure@@QAEXPAI@Z 08087f00 f i instanceKlass.obj
 0001:00086f80       ??$do_oop_nv@PAVoopDesc@@@G1ParScanClosure@@QAEXPAPAVoopDesc@@@Z 08087f80 f i instanceKlass.obj
 0001:00086ff0       ??$do_oop_nv@I@G1ParPushHeapRSClosure@@QAEXPAI@Z 08087ff0 f i instanceKlass.obj
 0001:00087050       ??$do_oop_nv@PAVoopDesc@@@G1ParPushHeapRSClosure@@QAEXPAPAVoopDesc@@@Z 08088050 f i instanceKlass.obj
 0001:000870a0       ?allocate_permanent_instance@instanceKlass@@QAEPAVinstanceOopDesc@@PAVThread@@@Z 080880a0 f   instanceKlass.obj
 0001:000870e0       ?array_klass_impl@instanceKlass@@EAEPAVklassOopDesc@@_NHPAVThread@@@Z 080880e0 f   instanceKlass.obj
 0001:00087110       ?call_class_initializer_impl@instanceKlass@@CAXVinstanceKlassHandle@@PAVThread@@@Z 08088110 f   instanceKlass.obj
 0001:00087190       ?oop_oop_iterate_nv@instanceKlass@@UAEHPAVoopDesc@@PAVG1ParScanClosure@@@Z 08088190 f   instanceKlass.obj
 0001:00087360       ?oop_oop_iterate_nv@instanceKlass@@UAEHPAVoopDesc@@PAVG1ParPushHeapRSClosure@@@Z 08088360 f   instanceKlass.obj
 0001:000874e0       ?oop_oop_iterate_nv_m@instanceKlass@@UAEHPAVoopDesc@@PAVG1ParScanClosure@@VMemRegion@@@Z 080884e0 f   instanceKlass.obj
 0001:000876e0       ?oop_oop_iterate_nv_m@instanceKlass@@UAEHPAVoopDesc@@PAVG1ParPushHeapRSClosure@@VMemRegion@@@Z 080886e0 f   instanceKlass.obj
 0001:00087880       ?oop_oop_iterate_backwards_nv@instanceKlass@@UAEHPAVoopDesc@@PAVG1ParScanClosure@@@Z 08088880 f   instanceKlass.obj
 0001:00087a50       ?oop_oop_iterate_backwards_nv@instanceKlass@@UAEHPAVoopDesc@@PAVG1ParPushHeapRSClosure@@@Z 08088a50 f   instanceKlass.obj
 0001:00087bc0       ?oop_push_contents@instanceKlass@@UAEXPAVPSPromotionManager@@PAVoopDesc@@@Z 08088bc0 f   instanceKlass.obj
 0001:00087d30       ?push_static_fields@instanceKlass@@QAEXPAVPSPromotionManager@@@Z 08088d30 f   instanceKlass.obj
 0001:00087d90       ?post_allocation_setup_obj@CollectedHeap@@KAXVKlassHandle@@PAVHeapWord@@I@Z 08088d90 f i instanceKlass.obj
 0001:00087df0       ?obj_allocate@CollectedHeap@@SAPAVoopDesc@@VKlassHandle@@HPAVThread@@@Z 08088df0 f i instanceKlass.obj
 0001:00087e50       ?allocate_objArray@instanceKlass@@QAEPAVobjArrayOopDesc@@HHPAVThread@@@Z 08088e50 f   instanceKlass.obj
 0001:00087f60       ?allocate_instance@instanceKlass@@QAEPAVinstanceOopDesc@@PAVThread@@@Z 08088f60 f   instanceKlass.obj
 0001:00087fd0       ?call_class_initializer@instanceKlass@@QAEXPAVThread@@@Z 08088fd0 f   instanceKlass.obj
 0001:00088000       ?initialize_impl@instanceKlass@@CAXVinstanceKlassHandle@@PAVThread@@@Z 08089000 f   instanceKlass.obj
 0001:000883c0       ?initialize@instanceKlass@@UAEXPAVThread@@@Z 080893c0 f   instanceKlass.obj
 0001:00088410       ?internal_name@instanceKlassKlass@@UBEPBDXZ 08089410 f   instanceKlassKlass.obj
 0001:00088420       ?oop_is_parsable@instanceKlassKlass@@UBE_NPAVoopDesc@@@Z 08089420 f   instanceKlassKlass.obj
 0001:00088450       ?oop_print_value_on@instanceKlassKlass@@UAEXPAVoopDesc@@PAVoutputStream@@@Z 08089450 f   instanceKlassKlass.obj
 0001:00088470       ?oop_partially_loaded@instanceKlassKlass@@UBE_NPAVoopDesc@@@Z 08089470 f   instanceKlassKlass.obj
 0001:00088490       ?create_klass@instanceKlassKlass@@SAPAVklassOopDesc@@PAVThread@@@Z 08089490 f   instanceKlassKlass.obj
 0001:00088500       ?oop_size@instanceKlassKlass@@UBEHPAVoopDesc@@@Z 08089500 f   instanceKlassKlass.obj
 0001:00088540       ?oop_oop_iterate@instanceKlassKlass@@UAEHPAVoopDesc@@PAVOopClosure@@@Z 08089540 f   instanceKlassKlass.obj
 0001:00088720       ?oop_oop_iterate_m@instanceKlassKlass@@UAEHPAVoopDesc@@PAVOopClosure@@VMemRegion@@@Z 08089720 f   instanceKlassKlass.obj
 0001:00088a80       ?oop_adjust_pointers@instanceKlassKlass@@UAEHPAVoopDesc@@@Z 08089a80 f   instanceKlassKlass.obj
 0001:00088e90       ?oop_update_pointers@instanceKlassKlass@@UAEHPAVParCompactionManager@@PAVoopDesc@@@Z 08089e90 f   instanceKlassKlass.obj
 0001:00088f70       ?oop_update_pointers@instanceKlassKlass@@UAEHPAVParCompactionManager@@PAVoopDesc@@PAVHeapWord@@2@Z 08089f70 f   instanceKlassKlass.obj
 0001:00089090       ?set_signers@instanceKlass@@QAEXPAVobjArrayOopDesc@@@Z 0808a090 f i instanceKlassKlass.obj
 0001:000890f0       ?set_bootstrap_method@instanceKlass@@QAEXPAVoopDesc@@@Z 0808a0f0 f i instanceKlassKlass.obj
 0001:00089150       ?oop_follow_contents@instanceKlassKlass@@UAEXPAVoopDesc@@@Z 0808a150 f   instanceKlassKlass.obj
 0001:000892d0       ?oop_verify_on@instanceKlassKlass@@UAEXPAVoopDesc@@PAVoutputStream@@@Z 0808a2d0 f   instanceKlassKlass.obj
 0001:00089e80       ?oop_follow_contents@instanceKlassKlass@@UAEXPAVParCompactionManager@@PAVoopDesc@@@Z 0808ae80 f   instanceKlassKlass.obj
 0001:0008a020       ?oop_set_partially_loaded@instanceKlassKlass@@UAEXPAVoopDesc@@@Z 0808b020 f   instanceKlassKlass.obj
 0001:0008a060       ?allocate_instance_klass@instanceKlassKlass@@QAEPAVklassOopDesc@@HHHIW4ReferenceType@@PAVThread@@@Z 0808b060 f   instanceKlassKlass.obj
 0001:0008a410       ?oop_push_contents@instanceKlassKlass@@UAEXPAVPSPromotionManager@@PAVoopDesc@@@Z 0808b410 f   instanceKlassKlass.obj
 0001:0008a500       ?update_nonstatic_oop_maps@instanceRefKlass@@SAXPAVklassOopDesc@@@Z 0808b500 f   instanceRefKlass.obj
 0001:0008a550       ?owns_pending_list_lock@instanceRefKlass@@SA_NPAVJavaThread@@@Z 0808b550 f   instanceRefKlass.obj
 0001:0008a590       ?acquire_pending_list_lock@instanceRefKlass@@SAXPAVBasicLock@@@Z 0808b590 f   instanceRefKlass.obj
 0001:0008a5f0       ?release_and_notify_pending_list_lock@instanceRefKlass@@SAXPAVBasicLock@@@Z 0808b5f0 f   instanceRefKlass.obj
 0001:0008a670       ?oop_oop_iterate_v@instanceRefKlass@@UAEHPAVoopDesc@@PAVOopClosure@@@Z 0808b670 f   instanceRefKlass.obj
 0001:0008a700       ?oop_oop_iterate_nv@instanceRefKlass@@UAEHPAVoopDesc@@PAVFilteringClosure@@@Z 0808b700 f   instanceRefKlass.obj
 0001:0008a7c0       ?oop_oop_iterate_nv@instanceRefKlass@@UAEHPAVoopDesc@@PAVMarkRefsIntoAndScanClosure@@@Z 0808b7c0 f   instanceRefKlass.obj
 0001:0008a860       ?oop_oop_iterate_nv@instanceRefKlass@@UAEHPAVoopDesc@@PAVPar_MarkRefsIntoAndScanClosure@@@Z 0808b860 f   instanceRefKlass.obj
 0001:0008a900       ?oop_oop_iterate_nv@instanceRefKlass@@UAEHPAVoopDesc@@PAVPushAndMarkClosure@@@Z 0808b900 f   instanceRefKlass.obj
 0001:0008a9a0       ?oop_oop_iterate_nv@instanceRefKlass@@UAEHPAVoopDesc@@PAVPar_PushAndMarkClosure@@@Z 0808b9a0 f   instanceRefKlass.obj
 0001:0008aa40       ?oop_oop_iterate_nv@instanceRefKlass@@UAEHPAVoopDesc@@PAVPushOrMarkClosure@@@Z 0808ba40 f   instanceRefKlass.obj
 0001:0008aae0       ?oop_oop_iterate_nv@instanceRefKlass@@UAEHPAVoopDesc@@PAVPar_PushOrMarkClosure@@@Z 0808bae0 f   instanceRefKlass.obj
 0001:0008ab80       ?oop_oop_iterate_nv@instanceRefKlass@@UAEHPAVoopDesc@@PAVCMSKeepAliveClosure@@@Z 0808bb80 f   instanceRefKlass.obj
 0001:0008ac20       ?oop_oop_iterate_nv@instanceRefKlass@@UAEHPAVoopDesc@@PAVCMSInnerParMarkAndPushClosure@@@Z 0808bc20 f   instanceRefKlass.obj
 0001:0008acc0       ?oop_oop_iterate_nv@instanceRefKlass@@UAEHPAVoopDesc@@PAV?$G1ParCopyClosure@$0A@$01$0A@@@@Z 0808bcc0 f   instanceRefKlass.obj
 0001:0008ad50       ?oop_oop_iterate_nv@instanceRefKlass@@UAEHPAVoopDesc@@PAVFilterIntoCSClosure@@@Z 0808bd50 f   instanceRefKlass.obj
 0001:0008ae10       ?oop_oop_iterate_nv@instanceRefKlass@@UAEHPAVoopDesc@@PAVFilterOutOfRegionClosure@@@Z 0808be10 f   instanceRefKlass.obj
 0001:0008aee0       ?oop_oop_iterate_nv@instanceRefKlass@@UAEHPAVoopDesc@@PAVFilterInHeapRegionAndIntoCSClosure@@@Z 0808bee0 f   instanceRefKlass.obj
 0001:0008afa0       ?oop_oop_iterate_nv@instanceRefKlass@@UAEHPAVoopDesc@@PAVFilterAndMarkInHeapRegionAndIntoCSClosure@@@Z 0808bfa0 f   instanceRefKlass.obj
 0001:0008b030       ?oop_oop_iterate_backwards_v@instanceRefKlass@@UAEHPAVoopDesc@@PAVOopClosure@@@Z 0808c030 f   instanceRefKlass.obj
 0001:0008b0c0       ?oop_oop_iterate_backwards_nv@instanceRefKlass@@UAEHPAVoopDesc@@PAVFilteringClosure@@@Z 0808c0c0 f   instanceRefKlass.obj
 0001:0008b180       ?oop_oop_iterate_backwards_nv@instanceRefKlass@@UAEHPAVoopDesc@@PAVMarkRefsIntoAndScanClosure@@@Z 0808c180 f   instanceRefKlass.obj
 0001:0008b220       ?oop_oop_iterate_backwards_nv@instanceRefKlass@@UAEHPAVoopDesc@@PAVPar_MarkRefsIntoAndScanClosure@@@Z 0808c220 f   instanceRefKlass.obj
 0001:0008b2c0       ?oop_oop_iterate_backwards_nv@instanceRefKlass@@UAEHPAVoopDesc@@PAVPushAndMarkClosure@@@Z 0808c2c0 f   instanceRefKlass.obj
 0001:0008b360       ?oop_oop_iterate_backwards_nv@instanceRefKlass@@UAEHPAVoopDesc@@PAVPar_PushAndMarkClosure@@@Z 0808c360 f   instanceRefKlass.obj
 0001:0008b400       ?oop_oop_iterate_backwards_nv@instanceRefKlass@@UAEHPAVoopDesc@@PAVPushOrMarkClosure@@@Z 0808c400 f   instanceRefKlass.obj
 0001:0008b4a0       ?oop_oop_iterate_backwards_nv@instanceRefKlass@@UAEHPAVoopDesc@@PAVPar_PushOrMarkClosure@@@Z 0808c4a0 f   instanceRefKlass.obj
 0001:0008b540       ?oop_oop_iterate_backwards_nv@instanceRefKlass@@UAEHPAVoopDesc@@PAVCMSKeepAliveClosure@@@Z 0808c540 f   instanceRefKlass.obj
 0001:0008b5e0       ?oop_oop_iterate_backwards_nv@instanceRefKlass@@UAEHPAVoopDesc@@PAVCMSInnerParMarkAndPushClosure@@@Z 0808c5e0 f   instanceRefKlass.obj
 0001:0008b680       ?oop_oop_iterate_backwards_nv@instanceRefKlass@@UAEHPAVoopDesc@@PAV?$G1ParCopyClosure@$0A@$01$0A@@@@Z 0808c680 f   instanceRefKlass.obj
 0001:0008b710       ?oop_oop_iterate_backwards_nv@instanceRefKlass@@UAEHPAVoopDesc@@PAVFilterIntoCSClosure@@@Z 0808c710 f   instanceRefKlass.obj
 0001:0008b7d0       ?oop_oop_iterate_backwards_nv@instanceRefKlass@@UAEHPAVoopDesc@@PAVFilterOutOfRegionClosure@@@Z 0808c7d0 f   instanceRefKlass.obj
 0001:0008b8a0       ?oop_oop_iterate_backwards_nv@instanceRefKlass@@UAEHPAVoopDesc@@PAVFilterInHeapRegionAndIntoCSClosure@@@Z 0808c8a0 f   instanceRefKlass.obj
 0001:0008b960       ?oop_oop_iterate_backwards_nv@instanceRefKlass@@UAEHPAVoopDesc@@PAVFilterAndMarkInHeapRegionAndIntoCSClosure@@@Z 0808c960 f   instanceRefKlass.obj
 0001:0008b9f0       ?oop_oop_iterate_v_m@instanceRefKlass@@UAEHPAVoopDesc@@PAVOopClosure@@VMemRegion@@@Z 0808c9f0 f   instanceRefKlass.obj
 0001:0008bab0       ?oop_oop_iterate_nv_m@instanceRefKlass@@UAEHPAVoopDesc@@PAVFilteringClosure@@VMemRegion@@@Z 0808cab0 f   instanceRefKlass.obj
 0001:0008bba0       ?oop_oop_iterate_nv_m@instanceRefKlass@@UAEHPAVoopDesc@@PAVMarkRefsIntoAndScanClosure@@VMemRegion@@@Z 0808cba0 f   instanceRefKlass.obj
 0001:0008bc80       ?oop_oop_iterate_nv_m@instanceRefKlass@@UAEHPAVoopDesc@@PAVPar_MarkRefsIntoAndScanClosure@@VMemRegion@@@Z 0808cc80 f   instanceRefKlass.obj
 0001:0008bd60       ?oop_oop_iterate_nv_m@instanceRefKlass@@UAEHPAVoopDesc@@PAVPushAndMarkClosure@@VMemRegion@@@Z 0808cd60 f   instanceRefKlass.obj
 0001:0008be40       ?oop_oop_iterate_nv_m@instanceRefKlass@@UAEHPAVoopDesc@@PAVPar_PushAndMarkClosure@@VMemRegion@@@Z 0808ce40 f   instanceRefKlass.obj
 0001:0008bf20       ?oop_oop_iterate_nv_m@instanceRefKlass@@UAEHPAVoopDesc@@PAVPushOrMarkClosure@@VMemRegion@@@Z 0808cf20 f   instanceRefKlass.obj
 0001:0008c000       ?oop_oop_iterate_nv_m@instanceRefKlass@@UAEHPAVoopDesc@@PAVPar_PushOrMarkClosure@@VMemRegion@@@Z 0808d000 f   instanceRefKlass.obj
 0001:0008c0e0       ?oop_oop_iterate_nv_m@instanceRefKlass@@UAEHPAVoopDesc@@PAVCMSKeepAliveClosure@@VMemRegion@@@Z 0808d0e0 f   instanceRefKlass.obj
 0001:0008c1c0       ?oop_oop_iterate_nv_m@instanceRefKlass@@UAEHPAVoopDesc@@PAVCMSInnerParMarkAndPushClosure@@VMemRegion@@@Z 0808d1c0 f   instanceRefKlass.obj
 0001:0008c2a0       ?oop_oop_iterate_nv_m@instanceRefKlass@@UAEHPAVoopDesc@@PAV?$G1ParCopyClosure@$0A@$01$0A@@@VMemRegion@@@Z 0808d2a0 f   instanceRefKlass.obj
 0001:0008c360       ?oop_oop_iterate_nv_m@instanceRefKlass@@UAEHPAVoopDesc@@PAVFilterIntoCSClosure@@VMemRegion@@@Z 0808d360 f   instanceRefKlass.obj
 0001:0008c450       ?oop_oop_iterate_nv_m@instanceRefKlass@@UAEHPAVoopDesc@@PAVFilterOutOfRegionClosure@@VMemRegion@@@Z 0808d450 f   instanceRefKlass.obj
 0001:0008c550       ?oop_oop_iterate_nv_m@instanceRefKlass@@UAEHPAVoopDesc@@PAVFilterInHeapRegionAndIntoCSClosure@@VMemRegion@@@Z 0808d550 f   instanceRefKlass.obj
 0001:0008c640       ?oop_oop_iterate_nv_m@instanceRefKlass@@UAEHPAVoopDesc@@PAVFilterAndMarkInHeapRegionAndIntoCSClosure@@VMemRegion@@@Z 0808d640 f   instanceRefKlass.obj
 0001:0008c700       ?oop_verify_on@instanceRefKlass@@UAEXPAVoopDesc@@PAVoutputStream@@@Z 0808d700 f   instanceRefKlass.obj
 0001:0008c810       ??$specialized_oop_adjust_pointers@PAVoopDesc@@@@YAXPAVinstanceRefKlass@@PAVoopDesc@@@Z 0808d810 f i instanceRefKlass.obj
 0001:0008c8a0       ??$specialized_oop_update_pointers@PAVoopDesc@@@@YAXPAVinstanceRefKlass@@PAVParCompactionManager@@PAVoopDesc@@@Z 0808d8a0 f i instanceRefKlass.obj
 0001:0008c910       ??$specialized_oop_update_pointers@PAVoopDesc@@@@YAXPAVParCompactionManager@@PAVoopDesc@@PAVHeapWord@@2@Z 0808d910 f i instanceRefKlass.obj
 0001:0008c9a0       ?oop_adjust_pointers@instanceRefKlass@@UAEHPAVoopDesc@@@Z 0808d9a0 f   instanceRefKlass.obj
 0001:0008c9d0       ?oop_oop_iterate_nv@instanceRefKlass@@UAEHPAVoopDesc@@PAVScanClosure@@@Z 0808d9d0 f   instanceRefKlass.obj
 0001:0008ca60       ?oop_oop_iterate_nv@instanceRefKlass@@UAEHPAVoopDesc@@PAVFastScanClosure@@@Z 0808da60 f   instanceRefKlass.obj
 0001:0008caf0       ?oop_oop_iterate_nv@instanceRefKlass@@UAEHPAVoopDesc@@PAVParScanWithBarrierClosure@@@Z 0808daf0 f   instanceRefKlass.obj
 0001:0008cb80       ?oop_oop_iterate_nv@instanceRefKlass@@UAEHPAVoopDesc@@PAVParScanWithoutBarrierClosure@@@Z 0808db80 f   instanceRefKlass.obj
 0001:0008cc10       ?oop_oop_iterate_backwards_nv@instanceRefKlass@@UAEHPAVoopDesc@@PAVScanClosure@@@Z 0808dc10 f   instanceRefKlass.obj
 0001:0008cca0       ?oop_oop_iterate_backwards_nv@instanceRefKlass@@UAEHPAVoopDesc@@PAVFastScanClosure@@@Z 0808dca0 f   instanceRefKlass.obj
 0001:0008cd30       ?oop_oop_iterate_backwards_nv@instanceRefKlass@@UAEHPAVoopDesc@@PAVParScanWithBarrierClosure@@@Z 0808dd30 f   instanceRefKlass.obj
 0001:0008cdc0       ?oop_oop_iterate_backwards_nv@instanceRefKlass@@UAEHPAVoopDesc@@PAVParScanWithoutBarrierClosure@@@Z 0808ddc0 f   instanceRefKlass.obj
 0001:0008ce50       ?oop_oop_iterate_nv_m@instanceRefKlass@@UAEHPAVoopDesc@@PAVScanClosure@@VMemRegion@@@Z 0808de50 f   instanceRefKlass.obj
 0001:0008cf10       ?oop_oop_iterate_nv_m@instanceRefKlass@@UAEHPAVoopDesc@@PAVFastScanClosure@@VMemRegion@@@Z 0808df10 f   instanceRefKlass.obj
 0001:0008cfd0       ?oop_oop_iterate_nv_m@instanceRefKlass@@UAEHPAVoopDesc@@PAVParScanWithBarrierClosure@@VMemRegion@@@Z 0808dfd0 f   instanceRefKlass.obj
 0001:0008d090       ?oop_oop_iterate_nv_m@instanceRefKlass@@UAEHPAVoopDesc@@PAVParScanWithoutBarrierClosure@@VMemRegion@@@Z 0808e090 f   instanceRefKlass.obj
 0001:0008d150       ?oop_update_pointers@instanceRefKlass@@UAEHPAVParCompactionManager@@PAVoopDesc@@@Z 0808e150 f   instanceRefKlass.obj
 0001:0008d180       ?oop_update_pointers@instanceRefKlass@@UAEHPAVParCompactionManager@@PAVoopDesc@@PAVHeapWord@@2@Z 0808e180 f   instanceRefKlass.obj
 0001:0008d220       ??$specialized_oop_follow_contents@PAVoopDesc@@@@YAXPAVinstanceRefKlass@@PAVParCompactionManager@@PAVoopDesc@@@Z 0808e220 f i instanceRefKlass.obj
 0001:0008d2c0       ?oop_follow_contents@instanceRefKlass@@UAEXPAVoopDesc@@@Z 0808e2c0 f   instanceRefKlass.obj
 0001:0008d2e0       ?oop_follow_contents@instanceRefKlass@@UAEXPAVParCompactionManager@@PAVoopDesc@@@Z 0808e2e0 f   instanceRefKlass.obj
 0001:0008d300       ?oop_oop_iterate_nv@instanceRefKlass@@UAEHPAVoopDesc@@PAVG1ParScanClosure@@@Z 0808e300 f   instanceRefKlass.obj
 0001:0008d390       ?oop_oop_iterate_nv@instanceRefKlass@@UAEHPAVoopDesc@@PAVG1ParPushHeapRSClosure@@@Z 0808e390 f   instanceRefKlass.obj
 0001:0008d420       ?oop_oop_iterate_backwards_nv@instanceRefKlass@@UAEHPAVoopDesc@@PAVG1ParScanClosure@@@Z 0808e420 f   instanceRefKlass.obj
 0001:0008d4b0       ?oop_oop_iterate_backwards_nv@instanceRefKlass@@UAEHPAVoopDesc@@PAVG1ParPushHeapRSClosure@@@Z 0808e4b0 f   instanceRefKlass.obj
 0001:0008d540       ?oop_oop_iterate_nv_m@instanceRefKlass@@UAEHPAVoopDesc@@PAVG1ParScanClosure@@VMemRegion@@@Z 0808e540 f   instanceRefKlass.obj
 0001:0008d600       ?oop_oop_iterate_nv_m@instanceRefKlass@@UAEHPAVoopDesc@@PAVG1ParPushHeapRSClosure@@VMemRegion@@@Z 0808e600 f   instanceRefKlass.obj
 0001:0008d6c0       ??$specialized_oop_push_contents@PAVoopDesc@@@@YAXPAVinstanceRefKlass@@PAVPSPromotionManager@@PAVoopDesc@@@Z 0808e6c0 f i instanceRefKlass.obj
 0001:0008d760       ?oop_push_contents@instanceRefKlass@@UAEXPAVPSPromotionManager@@PAVoopDesc@@@Z 0808e760 f   instanceRefKlass.obj
 0001:0008d780       ?initialize@Klass@@UAEXPAVThread@@@Z 0808e780 f   klass.obj
 0001:0008d7a0       ?uncached_lookup_method@Klass@@UBEPAVmethodOopDesc@@PAVsymbolOopDesc@@0@Z 0808e7a0 f   klass.obj
 0001:0008d7c0       ?array_klass_or_null@Klass@@QAEPAVklassOopDesc@@H@Z 0808e7c0 f   klass.obj
 0001:0008d800       ?array_klass_or_null@Klass@@QAEPAVklassOopDesc@@XZ 0808e800 f   klass.obj
 0001:0008d840       ?array_klass_impl@Klass@@MAEPAVklassOopDesc@@_NHPAVThread@@@Z 0808e840 f   klass.obj
 0001:0008d860       ?array_klass_impl@Klass@@MAEPAVklassOopDesc@@_NPAVThread@@@Z 0808e860 f   klass.obj
 0001:0008d880       ?verify_region_extra@HeapRegionSetBase@@MAEPBDPAVHeapRegion@@@Z 0808e880 f   concurrentMark.obj
 0001:0008d880       ?match_edge@ReturnNode@@UBEII@Z 0808e880 f   callnode.obj
 0001:0008d880       ?match_edge@HaltNode@@UBEII@Z 0808e880 f   rootnode.obj
 0001:0008d880       ?size@membar_acquireNode@@EBEIPAVPhaseRegAlloc@@@Z 0808e880 f   ad_x86_32.obj
 0001:0008d880       ?match_edge@MemBarNode@@UBEII@Z 0808e880 f   memnode.obj
 0001:0008d880       ?transform@PhaseIdealLoop@@UAEPAVNode@@PAV2@@Z 0808e880 f   compile.obj
 0001:0008d880       ?size@MachConstantBaseNode@@UBEIPAVPhaseRegAlloc@@@Z 0808e880 f   ad_x86_32.obj
 0001:0008d880       ?size@prefetchw0Node@@EBEIPAVPhaseRegAlloc@@@Z 0808e880 f   ad_x86_32.obj
 0001:0008d880       ?size@membar_acquire_lockNode@@EBEIPAVPhaseRegAlloc@@@Z 0808e880 f   ad_x86_32.obj
 0001:0008d880       ?get_data_recorder@Generation@@UAEPAXH@Z 0808e880 f   compactingPermGenGen.obj
 0001:0008d880       ?size@Node@@UBEIPAVPhaseRegAlloc@@@Z 0808e880 f   node.obj
 0001:0008d880       ?Ideal_DU_postCCP@Node@@UAEPAV1@PAVPhaseCCP@@@Z 0808e880 f   node.obj
 0001:0008d880       ?size@unnecessary_membar_volatileNode@@EBEIPAVPhaseRegAlloc@@@Z 0808e880 f   ad_x86_32.obj
 0001:0008d880       ?size@CreateExceptionNode@@EBEIPAVPhaseRegAlloc@@@Z 0808e880 f   ad_x86_32.obj
 0001:0008d880       ?compute_modifier_flags@Klass@@UBEHPAVThread@@@Z 0808e880 f   klass.obj
 0001:0008d880       ?match_edge@SafePointScalarObjectNode@@UBEII@Z 0808e880 f   callnode.obj
 0001:0008d880       ?size@prefetchr0Node@@EBEIPAVPhaseRegAlloc@@@Z 0808e880 f   ad_x86_32.obj
 0001:0008d880       ?match_edge@CallNode@@UBEII@Z 0808e880 f   callnode.obj
 0001:0008d880       ?compute_padding@MachNode@@UBEHH@Z 0808e880 f   chaitin.obj
 0001:0008d880       ?match_edge@CreateExNode@@UBEII@Z 0808e880 f   doCall.obj
 0001:0008d880       ?match_edge@MergeMemNode@@UBEII@Z 0808e880 f   memnode.obj
 0001:0008d880       ?size@membar_releaseNode@@EBEIPAVPhaseRegAlloc@@@Z 0808e880 f   ad_x86_32.obj
 0001:0008d880       ?match_edge@RethrowNode@@UBEII@Z 0808e880 f   callnode.obj
 0001:0008d880       ?size@membar_release_lockNode@@EBEIPAVPhaseRegAlloc@@@Z 0808e880 f   ad_x86_32.obj
 0001:0008d880       ?short_branch_version@MachNode@@UAEPAV1@PAVCompile@@@Z 0808e880 f   chaitin.obj
 0001:0008d880       ?size@NeverBranchNode@@UBEIPAVPhaseRegAlloc@@@Z 0808e880 f   loopnode.obj
 0001:0008d880       ?size@checkCastPPNode@@EBEIPAVPhaseRegAlloc@@@Z 0808e880 f   ad_x86_32.obj
 0001:0008d880       ?match_edge@BoolNode@@UBEII@Z 0808e880 f   callGenerator.obj
 0001:0008d890       ?copy_array@Klass@@UAEXPAVarrayOopDesc@@H0HHPAVThread@@@Z 0808e890 f   klass.obj
 0001:0008d8c0       ?compute_is_subtype_of@Klass@@MAE_NPAVklassOopDesc@@@Z 0808e8c0 f   klass.obj
 0001:0008d8c0       ?is_subclass_of@Klass@@QBE_NPAVklassOopDesc@@@Z 0808e8c0 f   klass.obj
 0001:0008d8f0       ?compute_secondary_supers@Klass@@UAEPAVobjArrayOopDesc@@HPAVThread@@@Z 0808e8f0 f   klass.obj
 0001:0008d900       ?subklass@Klass@@QBEPAV1@XZ 0808e900 f   klass.obj
 0001:0008d910       ?superklass@Klass@@QBEPAVinstanceKlass@@XZ 0808e910 f   klass.obj
 0001:0008d920       ?next_sibling@Klass@@QBEPAV1@XZ 0808e920 f   klass.obj
 0001:0008d930       ?with_array_klasses_do@Klass@@UAEXP6AXPAVklassOopDesc@@@Z@Z 0808e930 f   klass.obj
 0001:0008d950       ?external_name@Klass@@QBEPBDXZ 0808e950 f   klass.obj
 0001:0008da30       ?signature_name@Klass@@UBEPBDXZ 0808ea30 f   klass.obj
 0001:0008da50       ?atomic_incr_biased_lock_revocation_count@Klass@@QAEHXZ 0808ea50 f   klass.obj
 0001:0008da90       ?up_cast_abstract@Klass@@QAEPAV1@XZ 0808ea90 f   klass.obj
 0001:0008dad0       ?check_valid_for_instantiation@Klass@@UAEX_NPAVThread@@@Z 0808ead0 f   klass.obj
 0001:0008db50       ?can_be_primary_super_slow@Klass@@UBE_NXZ 0808eb50 f   klass.obj
 0001:0008db70       ?oop_print_on@Klass@@UAEXPAVoopDesc@@PAVoutputStream@@@Z 0808eb70 f   klass.obj
 0001:0008dc10       ?oop_print_value_on@Klass@@UAEXPAVoopDesc@@PAVoutputStream@@@Z 0808ec10 f   klass.obj
 0001:0008dc90       ?oop_verify_on@Klass@@UAEXPAVoopDesc@@PAVoutputStream@@@Z 0808ec90 f   klass.obj
 0001:0008dd30       ??2Klass_vtbl@@KAPAXIAAVKlassHandle@@HPAVThread@@@Z 0808ed30 f   klass.obj
 0001:0008dd60       ?array_layout_helper@Klass@@SAHW4BasicType@@@Z 0808ed60 f   klass.obj
 0001:0008ddc0       ?set_subklass@Klass@@IAEXPAVklassOopDesc@@@Z 0808edc0 f   klass.obj
 0001:0008ddf0       ?append_to_sibling_list@Klass@@QAEXXZ 0808edf0 f   klass.obj
 0001:0008de50       ?follow_weak_klass_links@Klass@@UAEXPAVBoolObjectClosure@@PAVOopClosure@@@Z 0808ee50 f   klass.obj
 0001:0008df10       ?remove_unshareable_info@Klass@@UAEXXZ 0808ef10 f   klass.obj
 0001:0008df70       ?search_secondary_supers@Klass@@QBE_NPAVklassOopDesc@@@Z 0808ef70 f   klass.obj
 0001:0008dfe0       ?base_create_klass_oop@Klass@@SAPAVklassOopDesc@@AAVKlassHandle@@HABVKlass_vtbl@@PAVThread@@@Z 0808efe0 f   klass.obj
 0001:0008e290       ?base_create_klass@Klass@@SA?AVKlassHandle@@AAV2@HABVKlass_vtbl@@PAVThread@@@Z 0808f290 f   klass.obj
 0001:0008e2c0       ?initialize_supers@Klass@@QAEXPAVklassOopDesc@@PAVThread@@@Z 0808f2c0 f   klass.obj
 0001:0008e680       ?LCA@Klass@@QAEPAV1@PAV1@@Z 0808f680 f   klass.obj
 0001:0008e6f0       ?post_new_init_klass@Klass_vtbl@@QBEXAAVKlassHandle@@PAVklassOopDesc@@H@Z 0808f6f0 f   klass.obj
 0001:0008e730       ?oop_print_on@klassKlass@@UAEXPAVoopDesc@@PAVoutputStream@@@Z 0808f730 f   klassKlass.obj
 0001:0008e740       ?oop_print_value_on@compiledICHolderKlass@@UAEXPAVoopDesc@@PAVoutputStream@@@Z 0808f740 f   compiledICHolderKlass.obj
 0001:0008e740       ?oop_print_value_on@klassKlass@@UAEXPAVoopDesc@@PAVoutputStream@@@Z 0808f740 f   klassKlass.obj
 0001:0008e750       ?internal_name@klassKlass@@UBEPBDXZ 0808f750 f   klassKlass.obj
 0001:0008e760       ?oop_size@klassKlass@@UBEHPAVoopDesc@@@Z 0808f760 f   klassKlass.obj
 0001:0008e780       ?oop_oop_iterate@klassKlass@@UAEHPAVoopDesc@@PAVOopClosure@@@Z 0808f780 f   klassKlass.obj
 0001:0008e820       ?oop_oop_iterate_m@klassKlass@@UAEHPAVoopDesc@@PAVOopClosure@@VMemRegion@@@Z 0808f820 f   klassKlass.obj
 0001:0008e950       ?oop_adjust_pointers@klassKlass@@UAEHPAVoopDesc@@@Z 0808f950 f   klassKlass.obj
 0001:0008eac0       ?oop_update_pointers@klassKlass@@UAEHPAVParCompactionManager@@PAVoopDesc@@@Z 0808fac0 f   klassKlass.obj
 0001:0008eb10       ?oop_update_pointers@klassKlass@@UAEHPAVParCompactionManager@@PAVoopDesc@@PAVHeapWord@@2@Z 0808fb10 f   klassKlass.obj
 0001:0008eb70       ?oop_verify_on@klassKlass@@UAEXPAVoopDesc@@PAVoutputStream@@@Z 0808fb70 f   klassKlass.obj
 0001:0008ee30       ?create_klass@klassKlass@@SAPAVklassOopDesc@@PAVThread@@@Z 0808fe30 f   klassKlass.obj
 0001:0008eea0       ?oop_follow_contents@klassKlass@@UAEXPAVoopDesc@@@Z 0808fea0 f   klassKlass.obj
 0001:0008f1f0       ?oop_follow_contents@klassKlass@@UAEXPAVParCompactionManager@@PAVoopDesc@@@Z 080901f0 f   klassKlass.obj
 0001:0008f700       ?put_method_at@klassVtable@@AAEXPAVmethodOopDesc@@H@Z 08090700 f   klassVtable.obj
 0001:0008f740       ?oop_oop_iterate@klassVtable@@QAEXPAVOopClosure@@@Z 08090740 f   klassVtable.obj
 0001:0008f790       ?oop_oop_iterate_m@klassVtable@@QAEXPAVOopClosure@@VMemRegion@@@Z 08090790 f   klassVtable.obj
 0001:0008f820       ??0klassItable@@QAE@VinstanceKlassHandle@@@Z 08090820 f   klassVtable.obj
 0001:0008f8d0       ?doit@CountInterfacesClosure@@UAEXPAVklassOopDesc@@H@Z 080908d0 f i klassVtable.obj
 0001:0008f8f0       ?doit@SetupItableClosure@@UAEXPAVklassOopDesc@@H@Z 080908f0 f i klassVtable.obj
 0001:0008f920       ?index_of_miranda@klassVtable@@QAEHPAVsymbolOopDesc@@0@Z 08090920 f   klassVtable.obj
 0001:0008f9b0       ?adjust_method_entries@klassVtable@@QAEXPAPAVmethodOopDesc@@0HPA_N@Z 080909b0 f   klassVtable.obj
 0001:0008fba0       ?oop_adjust_pointers@klassVtable@@QAEXXZ 08090ba0 f   klassVtable.obj
 0001:0008fbf0       ?oop_update_pointers@klassVtable@@QAEXPAVParCompactionManager@@@Z 08090bf0 f   klassVtable.obj
 0001:0008fc40       ?oop_update_pointers@klassVtable@@QAEXPAVParCompactionManager@@PAVHeapWord@@1@Z 08090c40 f   klassVtable.obj
 0001:0008fcc0       ?oop_adjust_pointers@klassItable@@QAEXXZ 08090cc0 f   klassVtable.obj
 0001:0008fd70       ?oop_update_pointers@klassItable@@QAEXPAVParCompactionManager@@@Z 08090d70 f   klassVtable.obj
 0001:0008fe00       ?oop_oop_iterate@klassItable@@QAEXPAVOopClosure@@@Z 08090e00 f   klassVtable.obj
 0001:0008fea0       ?oop_oop_iterate_m@klassItable@@QAEXPAVOopClosure@@VMemRegion@@@Z 08090ea0 f   klassVtable.obj
 0001:0008ff40       ?adjust_method_entries@klassItable@@QAEXPAPAVmethodOopDesc@@0HPA_N@Z 08090f40 f   klassVtable.obj
 0001:00090110       ?verify_against@klassVtable@@AAEXPAVoutputStream@@PAV1@H@Z 08091110 f   klassVtable.obj
 0001:000901b0       ?verify@vtableEntry@@AAEXPAVklassVtable@@PAVoutputStream@@@Z 080911b0 f   klassVtable.obj
 0001:00090220       ?initialize_from_super@klassVtable@@AAEHVKlassHandle@@@Z 08091220 f   klassVtable.obj
 0001:00090280       ?find_transitive_override@klassVtable@@AAEPAVinstanceKlass@@PAV2@VmethodHandle@@HVHandle@@VsymbolHandle@@PAVThread@@@Z 08091280 f   klassVtable.obj
 0001:00090310       ?update_inherited_vtable@klassVtable@@AAE_NPAVinstanceKlass@@VmethodHandle@@H_NPAVThread@@@Z 08091310 f   klassVtable.obj
 0001:00090780       ?needs_new_vtable_entry@klassVtable@@CA_NVmethodHandle@@PAVklassOopDesc@@VHandle@@VsymbolHandle@@VAccessFlags@@PAVThread@@@Z 08091780 f   klassVtable.obj
 0001:000908f0       ?oop_update_pointers@klassItable@@QAEXPAVParCompactionManager@@PAVHeapWord@@1@Z 080918f0 f   klassVtable.obj
 0001:000909a0       ?verify@klassVtable@@QAEXPAVoutputStream@@_N@Z 080919a0 f   klassVtable.obj
 0001:00090aa0       ?add_new_mirandas_to_list@klassVtable@@CAXPAV?$GrowableArray@PAVmethodOopDesc@@@@PAVobjArrayOopDesc@@1PAVklassOopDesc@@@Z 08091aa0 f   klassVtable.obj
 0001:00090be0       ?get_mirandas@klassVtable@@CAXPAV?$GrowableArray@PAVmethodOopDesc@@@@PAVklassOopDesc@@PAVobjArrayOopDesc@@2@Z 08091be0 f   klassVtable.obj
 0001:00090c70       ?get_num_mirandas@klassVtable@@CAHPAVklassOopDesc@@PAVobjArrayOopDesc@@1@Z 08091c70 f   klassVtable.obj
 0001:00090d30       ?fill_in_mirandas@klassVtable@@AAEXAAH@Z 08091d30 f   klassVtable.obj
 0001:00090e50       ?oop_follow_contents@klassVtable@@QAEXXZ 08091e50 f   klassVtable.obj
 0001:00090f30       ?oop_follow_contents@klassItable@@QAEXXZ 08091f30 f   klassVtable.obj
 0001:000910f0       ?initialize_itable_for_interface@klassItable@@AAEXHVKlassHandle@@_NPAVThread@@@Z 080920f0 f   klassVtable.obj
 0001:000914a0       ?visit_all_interfaces@@YAXPAVobjArrayOopDesc@@PAVInterfaceVisiterClosure@@@Z 080924a0 f   klassVtable.obj
 0001:00091510       ?compute_itable_size@klassItable@@SAHVobjArrayHandle@@@Z 08092510 f   klassVtable.obj
 0001:00091550       ?setup_itable_offset_table@klassItable@@SAXVinstanceKlassHandle@@@Z 08092550 f   klassVtable.obj
 0001:00091600       ?compute_itable_index@klassItable@@SAHPAVmethodOopDesc@@@Z 08092600 f   klassVtable.obj
 0001:00091650       ?method_for_itable_index@klassItable@@SAPAVmethodOopDesc@@PAVklassOopDesc@@H@Z 08092650 f   klassVtable.obj
 0001:000916a0       ?compute_vtable_size_and_num_mirandas@klassVtable@@SAXAAH0PAVklassOopDesc@@PAVobjArrayOopDesc@@VAccessFlags@@VHandle@@VsymbolHandle@@2PAVThread@@@Z 080926a0 f   klassVtable.obj
 0001:000917c0       ?initialize_vtable@klassVtable@@QAEX_NPAVThread@@@Z 080927c0 f   klassVtable.obj
 0001:00091980       ?initialize_itable@klassItable@@QAEX_NPAVThread@@@Z 08092980 f   klassVtable.obj
 0001:00091aa0       ?oop_follow_contents@klassVtable@@QAEXPAVParCompactionManager@@@Z 08092aa0 f   klassVtable.obj
 0001:00091bc0       ?oop_follow_contents@klassItable@@QAEXPAVParCompactionManager@@@Z 08092bc0 f   klassVtable.obj
 0001:00091df0       ?should_not_be_cached@markOopDesc@@QBE_NXZ 08092df0 f   markOop.obj
 0001:00091e30       ?internal_name@methodDataKlass@@UBEPBDXZ 08092e30 f   methodDataKlass.obj
 0001:00091e40       ?oop_size@methodDataKlass@@UBEHPAVoopDesc@@@Z 08092e40 f   methodDataKlass.obj
 0001:00091e70       ?oop_is_parsable@methodDataKlass@@UBE_NPAVoopDesc@@@Z 08092e70 f   methodDataKlass.obj
 0001:00091e90       ?oop_print_value_on@methodDataKlass@@UAEXPAVoopDesc@@PAVoutputStream@@@Z 08092e90 f   methodDataKlass.obj
 0001:00091ec0       ?create_klass@methodDataKlass@@SAPAVklassOopDesc@@PAVThread@@@Z 08092ec0 f   methodDataKlass.obj
 0001:00091f20       ?oop_oop_iterate@methodDataKlass@@UAEHPAVoopDesc@@PAVOopClosure@@@Z 08092f20 f   methodDataKlass.obj
 0001:00091ff0       ?oop_oop_iterate_m@methodDataKlass@@UAEHPAVoopDesc@@PAVOopClosure@@VMemRegion@@@Z 08092ff0 f   methodDataKlass.obj
 0001:000920f0       ?oop_adjust_pointers@methodDataKlass@@UAEHPAVoopDesc@@@Z 080930f0 f   methodDataKlass.obj
 0001:000921e0       ?oop_update_pointers@methodDataKlass@@UAEHPAVParCompactionManager@@PAVoopDesc@@@Z 080931e0 f   methodDataKlass.obj
 0001:000922a0       ?oop_verify_on@methodDataKlass@@UAEXPAVoopDesc@@PAVoutputStream@@@Z 080932a0 f   methodDataKlass.obj
 0001:00092320       ?oop_update_pointers@methodDataKlass@@UAEHPAVParCompactionManager@@PAVoopDesc@@PAVHeapWord@@2@Z 08093320 f   methodDataKlass.obj
 0001:000923f0       ?oop_follow_contents@methodDataKlass@@UAEXPAVoopDesc@@@Z 080933f0 f   methodDataKlass.obj
 0001:00092490       ?allocate@methodDataKlass@@QAEPAVmethodDataOopDesc@@VmethodHandle@@PAVThread@@@Z 08093490 f   methodDataKlass.obj
 0001:000924f0       ?oop_follow_contents@methodDataKlass@@UAEXPAVParCompactionManager@@PAVoopDesc@@@Z 080934f0 f   methodDataKlass.obj
 0001:00092590       ?is_mature@methodDataOopDesc@@QBE_NXZ 08093590 f   methodDataOop.obj
 0001:000925b0       ?follow_contents@ReceiverTypeData@@UAEXXZ 080935b0 f   methodDataOop.obj
 0001:000925c0       ?follow_contents@ReceiverTypeData@@UAEXPAVParCompactionManager@@@Z 080935c0 f   methodDataOop.obj
 0001:000925e0       ?oop_iterate@ReceiverTypeData@@UAEXPAVOopClosure@@@Z 080935e0 f   methodDataOop.obj
 0001:00092640       ?follow_weak_refs@ReceiverTypeData@@UAEXPAVBoolObjectClosure@@@Z 08093640 f   methodDataOop.obj
 0001:000926a0       ?post_initialize@RetData@@UAEXPAVBytecodeStream@@PAVmethodDataOopDesc@@@Z 080936a0 f   methodDataOop.obj
 0001:000926d0       ?bytecode_cell_count@methodDataOopDesc@@CAHW4Code@Bytecodes@@@Z 080936d0 f   methodDataOop.obj
 0001:000927c0       ?data_in@DataLayout@@QAEPAVProfileData@@XZ 080937c0 f   methodDataOop.obj
 0001:00092910       ?mileage_of@methodDataOopDesc@@SAHPAVmethodOopDesc@@@Z 08093910 f   methodDataOop.obj
 0001:00092990       ?follow_weak_refs@DataLayout@@QAEXPAVBoolObjectClosure@@@Z 08093990 f   methodDataOop.obj
 0001:00092a00       ?adjust_pointers@ReceiverTypeData@@UAEXXZ 08093a00 f   methodDataOop.obj
 0001:00092a50       ?update_pointers@ReceiverTypeData@@UAEXXZ 08093a50 f   methodDataOop.obj
 0001:00092a90       ?compute_cell_count@MultiBranchData@@SAHPAVBytecodeStream@@@Z 08093a90 f   methodDataOop.obj
 0001:00092b30       ?compute_allocation_size_in_bytes@methodDataOopDesc@@SAHVmethodHandle@@@Z 08093b30 f   methodDataOop.obj
 0001:00092be0       ?compute_allocation_size_in_words@methodDataOopDesc@@SAHVmethodHandle@@@Z 08093be0 f   methodDataOop.obj
 0001:00092c10       ?initialize_data@methodDataOopDesc@@AAEHPAVBytecodeStream@@H@Z 08093c10 f   methodDataOop.obj
 0001:00092d90       ?data_at@methodDataOopDesc@@QAEPAVProfileData@@H@Z 08093d90 f   methodDataOop.obj
 0001:00092db0       ?next_data@methodDataOopDesc@@QAEPAVProfileData@@PAV2@@Z 08093db0 f   methodDataOop.obj
 0001:00092df0       ?bci_to_extra_data@methodDataOopDesc@@AAEPAVProfileData@@H_N@Z 08093df0 f   methodDataOop.obj
 0001:00092e80       ?arg_info@methodDataOopDesc@@AAEPAVArgInfoData@@XZ 08093e80 f   methodDataOop.obj
 0001:00092ec0       ?update_pointers@ReceiverTypeData@@UAEXPAVHeapWord@@0@Z 08093ec0 f   methodDataOop.obj
 0001:00092f20       ?post_initialize@methodDataOopDesc@@AAEXPAVBytecodeStream@@@Z 08093f20 f   methodDataOop.obj
 0001:00093000       ?initialize@methodDataOopDesc@@QAEXVmethodHandle@@@Z 08094000 f   methodDataOop.obj
 0001:00093190       ?bci_to_dp@methodDataOopDesc@@QAEPAEH@Z 08094190 f   methodDataOop.obj
 0001:000932a0       ?bci_to_data@methodDataOopDesc@@QAEPAVProfileData@@H@Z 080942a0 f   methodDataOop.obj
 0001:00093380       ?post_initialize@JumpData@@UAEXPAVBytecodeStream@@PAVmethodDataOopDesc@@@Z 08094380 f   methodDataOop.obj
 0001:000933f0       ?fixup_ret@RetData@@QAEPAEHVmethodDataHandle@@@Z 080943f0 f   methodDataOop.obj
 0001:00093450       ?post_initialize@BranchData@@UAEXPAVBytecodeStream@@PAVmethodDataOopDesc@@@Z 08094450 f   methodDataOop.obj
 0001:000934b0       ?post_initialize@MultiBranchData@@UAEXPAVBytecodeStream@@PAVmethodDataOopDesc@@@Z 080944b0 f   methodDataOop.obj
 0001:00093640       ?internal_name@methodKlass@@UBEPBDXZ 08094640 f   methodKlass.obj
 0001:00093650       ?oop_size@methodKlass@@UBEHPAVoopDesc@@@Z 08094650 f   methodKlass.obj
 0001:00093660       ?oop_is_parsable@methodKlass@@UBE_NPAVoopDesc@@@Z 08094660 f   methodKlass.obj
 0001:00093680       ?oop_oop_iterate@methodKlass@@UAEHPAVoopDesc@@PAVOopClosure@@@Z 08094680 f   methodKlass.obj
 0001:000936d0       ?oop_oop_iterate_m@methodKlass@@UAEHPAVoopDesc@@PAVOopClosure@@VMemRegion@@@Z 080946d0 f   methodKlass.obj
 0001:00093760       ?create_klass@methodKlass@@SAPAVklassOopDesc@@PAVThread@@@Z 08094760 f   methodKlass.obj
 0001:000937d0       ?oop_adjust_pointers@methodKlass@@UAEHPAVoopDesc@@@Z 080947d0 f   methodKlass.obj
 0001:00093860       ?oop_update_pointers@methodKlass@@UAEHPAVParCompactionManager@@PAVoopDesc@@@Z 08094860 f   methodKlass.obj
 0001:000938c0       ?oop_print_value_on@methodKlass@@UAEXPAVoopDesc@@PAVoutputStream@@@Z 080948c0 f   methodKlass.obj
 0001:00093940       ?oop_verify_on@methodKlass@@UAEXPAVoopDesc@@PAVoutputStream@@@Z 08094940 f   methodKlass.obj
 0001:00093be0       ?oop_partially_loaded@methodKlass@@UBE_NPAVoopDesc@@@Z 08094be0 f   methodKlass.obj
 0001:00093c00       ?oop_set_partially_loaded@methodKlass@@UAEXPAVoopDesc@@@Z 08094c00 f   methodKlass.obj
 0001:00093c20       ?oop_update_pointers@methodKlass@@UAEHPAVParCompactionManager@@PAVoopDesc@@PAVHeapWord@@2@Z 08094c20 f   methodKlass.obj
 0001:00093cb0       ?oop_follow_contents@methodKlass@@UAEXPAVoopDesc@@@Z 08094cb0 f   methodKlass.obj
 0001:00093cf0       ?set_method_data@methodOopDesc@@QAEXPAVmethodDataOopDesc@@@Z 08094cf0 f i methodKlass.obj
 0001:00093cf0       ?set_pool_holder@constantPoolOopDesc@@QAEXPAVklassOopDesc@@@Z 08094cf0 f i classFileParser.obj
 0001:00093d20       ?allocate@methodKlass@@QAEPAVmethodOopDesc@@VconstMethodHandle@@VAccessFlags@@PAVThread@@@Z 08094d20 f   methodKlass.obj
 0001:00093e80       ?oop_follow_contents@methodKlass@@UAEXPAVParCompactionManager@@PAVoopDesc@@@Z 08094e80 f   methodKlass.obj
 0001:00093ec0       ?is_method_handle_invoke_name@methodOopDesc@@SA_NW4SID@vmSymbols@@@Z 08094ec0 f   methodOop.obj
 0001:00093ef0       ?contains@constMethodOopDesc@@QBE_NPAE@Z 08094ef0 f i methodOop.obj
 0001:00093f20       ?is_zero_const@Bytecodes@@SA_NW4Code@1@@Z 08094f20 f i methodOop.obj
 0001:00093f50       ?contains@methodOopDesc@@QBE_NPAE@Z 08094f50 f i methodOop.obj
 0001:00093f80       ?get_c2i_entry@methodOopDesc@@QAEPAEXZ 08094f80 f   methodOop.obj
 0001:00093f90       ?get_c2i_unverified_entry@methodOopDesc@@QAEPAEXZ 08094f90 f   methodOop.obj
 0001:00093fa0       ?name_and_sig_as_C_string@methodOopDesc@@SAPADPAVKlass@@PAVsymbolOopDesc@@1@Z 08094fa0 f   methodOop.obj
 0001:00094050       ?name_and_sig_as_C_string@methodOopDesc@@SAPADPAVKlass@@PAVsymbolOopDesc@@1PADH@Z 08095050 f   methodOop.obj
 0001:000940c0       ?bci_from@methodOopDesc@@QBEHPAE@Z 080950c0 f   methodOop.obj
 0001:000940d0       ?validate_bci_from_bcx@methodOopDesc@@QBEHH@Z 080950d0 f   methodOop.obj
 0001:00094140       ?bcp_from@methodOopDesc@@QBEPAEH@Z 08095140 f   methodOop.obj
 0001:00094160       ?object_size@methodOopDesc@@SAH_N@Z 08095160 f   methodOop.obj
 0001:00094190       ?klass_name@methodOopDesc@@QBEPAVsymbolOopDesc@@XZ 08095190 f   methodOop.obj
 0001:000941a0       ?is_empty_method@methodOopDesc@@QBE_NXZ 080951a0 f   methodOop.obj
 0001:000941c0       ?is_vanilla_constructor@methodOopDesc@@QBE_NXZ 080951c0 f   methodOop.obj
 0001:00094240       ?is_final_method@methodOopDesc@@QBE_NXZ 08095240 f   methodOop.obj
 0001:00094270       ?can_be_statically_bound@methodOopDesc@@QBE_NXZ 08095270 f   methodOop.obj
 0001:000942a0       ?set_native_function@methodOopDesc@@QAEXPAE_N@Z 080952a0 f   methodOop.obj
 0001:000942f0       ?set_signature_handler@methodOopDesc@@QAEXPAE@Z 080952f0 f   methodOop.obj
 0001:00094300       ?is_not_compilable@methodOopDesc@@QBE_NH@Z 08095300 f   methodOop.obj
 0001:00094380       ?should_not_be_cached@methodOopDesc@@QBE_NXZ 08095380 f   methodOop.obj
 0001:000943a0       ?method_handle_type@methodOopDesc@@QBEPAVoopDesc@@XZ 080953a0 f   methodOop.obj
 0001:000943c0       ?method_type_offsets_chain@methodOopDesc@@SAPAHXZ 080953c0 f   methodOop.obj
 0001:000943f0       ?klass_id_for_intrinsics@methodOopDesc@@SA?AW4SID@vmSymbols@@PAVklassOopDesc@@@Z 080953f0 f   methodOop.obj
 0001:00094420       ?write_pair_regular@CompressedLineNumberWriteStream@@QAEXHH@Z 08095420 f   methodOop.obj
 0001:00094460       ??0CompressedLineNumberReadStream@@QAE@PAE@Z 08095460 f   methodOop.obj
 0001:00094480       ?read_pair@CompressedLineNumberReadStream@@QAE_NXZ 08095480 f   methodOop.obj
 0001:000944e0       ?invocation_count@methodOopDesc@@QAEHXZ 080954e0 f   methodOop.obj
 0001:00094530       ?backedge_count@methodOopDesc@@QAEHXZ 08095530 f   methodOop.obj
 0001:00094580       ?highest_comp_level@methodOopDesc@@QBEHXZ 08095580 f   methodOop.obj
 0001:00094590       ?highest_osr_comp_level@methodOopDesc@@QBEHXZ 08095590 f   methodOop.obj
 0001:000945a0       ?set_highest_osr_comp_level@methodOopDesc@@QAEXH@Z 080955a0 f   methodOop.obj
 0001:000945c0       ?name_and_sig_as_C_string@methodOopDesc@@QAEPADXZ 080955c0 f   methodOop.obj
 0001:000945f0       ?name_and_sig_as_C_string@methodOopDesc@@QAEPADPADH@Z 080955f0 f   methodOop.obj
 0001:00094630       ?mask_for@methodOopDesc@@QAEXHPAVInterpreterOopMap@@@Z 08095630 f   methodOop.obj
 0001:00094670       ?compute_size_of_parameters@methodOopDesc@@QAEXPAVThread@@@Z 08095670 f   methodOop.obj
 0001:000946e0       ?is_accessor@methodOopDesc@@QBE_NXZ 080956e0 f   methodOop.obj
 0001:00094760       ?is_initializer@methodOopDesc@@QBE_NXZ 08095760 f   methodOop.obj
 0001:00094790       ?line_number_from_bci@methodOopDesc@@QBEHH@Z 08095790 f   methodOop.obj
 0001:00094850       ?has_native_function@methodOopDesc@@QBE_NXZ 08095850 f   methodOop.obj
 0001:00094870       ?clear_code@methodOopDesc@@QAEXXZ 08095870 f   methodOop.obj
 0001:000948b0       ?link_method@methodOopDesc@@QAEXVmethodHandle@@PAVThread@@@Z 080958b0 f   methodOop.obj
 0001:00094950       ?set_code@methodOopDesc@@SAXVmethodHandle@@PAVnmethod@@@Z 08095950 f   methodOop.obj
 0001:000949d0       ?is_overridden_in@methodOopDesc@@QBE_NPAVklassOopDesc@@@Z 080959d0 f   methodOop.obj
 0001:00094a50       ?is_method_handle_adapter@methodOopDesc@@QBE_NXZ 08095a50 f   methodOop.obj
 0001:00094ac0       ?init_intrinsic_id@methodOopDesc@@QAEXXZ 08095ac0 f   methodOop.obj
 0001:00094c30       ?load_signature_classes@methodOopDesc@@SA_NVmethodHandle@@PAVThread@@@Z 08095c30 f   methodOop.obj
 0001:00094d90       ?has_unloaded_classes_in_signature@methodOopDesc@@SA_NVmethodHandle@@PAVThread@@@Z 08095d90 f   methodOop.obj
 0001:00094e80       ?print_short_name@methodOopDesc@@QAEXPAVoutputStream@@@Z 08095e80 f   methodOop.obj
 0001:00094fb0       ?orig_bytecode_at@methodOopDesc@@QBE?AW4Code@Bytecodes@@H@Z 08095fb0 f   methodOop.obj
 0001:00095020       ?set_orig_bytecode_at@methodOopDesc@@QAEXHW4Code@Bytecodes@@@Z 08096020 f   methodOop.obj
 0001:00095120       ?clear_breakpoint@methodOopDesc@@QAEXH@Z 08096120 f   methodOop.obj
 0001:00095140       ?clear_all_breakpoints@methodOopDesc@@QAEXXZ 08096140 f   methodOop.obj
 0001:00095150       ??0BreakpointInfo@@QAE@PAVmethodOopDesc@@H@Z 08096150 f   methodOop.obj
 0001:000951a0       ?set@BreakpointInfo@@QAEXPAVmethodOopDesc@@@Z 080961a0 f   methodOop.obj
 0001:00095210       ?was_executed_more_than@methodOopDesc@@QAE_NH@Z 08096210 f   methodOop.obj
 0001:00095280       ?result_type@methodOopDesc@@QBE?AW4BasicType@@XZ 08096280 f   methodOop.obj
 0001:000952e0       ?compute_has_loops_flag@methodOopDesc@@QAE_NXZ 080962e0 f   methodOop.obj
 0001:00095430       ?clear_native_function@methodOopDesc@@QAEXXZ 08096430 f   methodOop.obj
 0001:00095490       ?set_not_compilable@methodOopDesc@@QAEXH_N@Z 08096490 f   methodOop.obj
 0001:000955c0       ?verified_code_entry@methodOopDesc@@QAEPAEXZ 080965c0 f   methodOop.obj
 0001:00095610       ?set_breakpoint@methodOopDesc@@QAEXH@Z 08096610 f   methodOop.obj
 0001:00095660       ?fast_exception_handler_bci_for@methodOopDesc@@QAEHVKlassHandle@@HPAVThread@@@Z 08096660 f   methodOop.obj
 0001:00095770       ?is_klass_loaded_by_klass_index@methodOopDesc@@QBE_NH@Z 08096770 f   methodOop.obj
 0001:00095820       ?is_klass_loaded@methodOopDesc@@QBE_NH_N@Z 08096820 f   methodOop.obj
 0001:00095870       ?resolved_checked_exceptions_impl@methodOopDesc@@SA?AVobjArrayHandle@@PAV1@PAVThread@@@Z 08096870 f   methodOop.obj
 0001:00095a90       ?sort_methods@methodOopDesc@@SAXPAVobjArrayOopDesc@@000_N@Z 08096a90 f   methodOop.obj
 0001:00095d40       ?build_interpreter_method_data@methodOopDesc@@SAXVmethodHandle@@PAVThread@@@Z 08096d40 f   methodOop.obj
 0001:00095db0       ?unlink_method@methodOopDesc@@QAEXXZ 08096db0 f   methodOop.obj
 0001:00095e10       ?make_invoke_method@methodOopDesc@@SA?AVmethodHandle@@VKlassHandle@@VsymbolHandle@@1VHandle@@PAVThread@@@Z 08096e10 f   methodOop.obj
 0001:00095fe0       ?clone_with_new_data@methodOopDesc@@SA?AVmethodHandle@@V2@PAEH1HPAVThread@@@Z 08096fe0 f   methodOop.obj
 0001:000961d0       ?remove_unshareable_info@methodOopDesc@@QAEXXZ 080971d0 f   methodOop.obj
 0001:00096200       ?can_be_primary_super_slow@objArrayKlass@@UBE_NXZ 08097200 f   objArrayKlass.obj
 0001:00096220       ?compute_is_subtype_of@objArrayKlass@@UAE_NPAVklassOopDesc@@@Z 08097220 f   objArrayKlass.obj
 0001:00096270       ?initialize@objArrayKlass@@UAEXPAVThread@@@Z 08097270 f   objArrayKlass.obj
 0001:00096290       ?compute_modifier_flags@objArrayKlass@@UBEHPAVThread@@@Z 08097290 f   objArrayKlass.obj
 0001:000962e0       ?conjoint_oops_atomic@Copy@@SAXPAPAVoopDesc@@0I@Z 080972e0 f i objArrayKlass.obj
 0001:00096330       ?push_segment@?$Stack@VObjArrayTask@@@@IAEXXZ 08097330 f i objArrayKlass.obj
 0001:000963b0       ??$do_copy@PAVoopDesc@@@objArrayKlass@@AAEXPAVarrayOopDesc@@PAPAVoopDesc@@01HPAVThread@@@Z 080973b0 f i objArrayKlass.obj
 0001:00096540       ?push@?$GenericTaskQueue@VObjArrayTask@@$0BAAA@@@QAE_NVObjArrayTask@@@Z 08097540 f i objArrayKlass.obj
 0001:000965d0       ?oop_size@objArrayKlass@@UBEHPAVoopDesc@@@Z 080975d0 f   objArrayKlass.obj
 0001:00096610       ?copy_array@objArrayKlass@@UAEXPAVarrayOopDesc@@H0HHPAVThread@@@Z 08097610 f   objArrayKlass.obj
 0001:000966f0       ?oop_oop_iterate_v@objArrayKlass@@UAEHPAVoopDesc@@PAVOopClosure@@@Z 080976f0 f   objArrayKlass.obj
 0001:00096760       ?oop_oop_iterate_nv@objArrayKlass@@UAEHPAVoopDesc@@PAVScanClosure@@@Z 08097760 f   objArrayKlass.obj
 0001:000967c0       ?oop_oop_iterate_nv@objArrayKlass@@UAEHPAVoopDesc@@PAVFastScanClosure@@@Z 080977c0 f   objArrayKlass.obj
 0001:00096820       ?oop_oop_iterate_nv@objArrayKlass@@UAEHPAVoopDesc@@PAVFilteringClosure@@@Z 08097820 f   objArrayKlass.obj
 0001:00096890       ?oop_oop_iterate_nv@objArrayKlass@@UAEHPAVoopDesc@@PAVParScanWithBarrierClosure@@@Z 08097890 f   objArrayKlass.obj
 0001:00096900       ?oop_oop_iterate_nv@objArrayKlass@@UAEHPAVoopDesc@@PAVParScanWithoutBarrierClosure@@@Z 08097900 f   objArrayKlass.obj
 0001:00096970       ?oop_oop_iterate_nv@objArrayKlass@@UAEHPAVoopDesc@@PAVMarkRefsIntoAndScanClosure@@@Z 08097970 f   objArrayKlass.obj
 0001:000969e0       ?oop_oop_iterate_nv@objArrayKlass@@UAEHPAVoopDesc@@PAVPar_MarkRefsIntoAndScanClosure@@@Z 080979e0 f   objArrayKlass.obj
 0001:00096a50       ?oop_oop_iterate_nv@objArrayKlass@@UAEHPAVoopDesc@@PAVPushAndMarkClosure@@@Z 08097a50 f   objArrayKlass.obj
 0001:00096ac0       ?oop_oop_iterate_nv@objArrayKlass@@UAEHPAVoopDesc@@PAVPar_PushAndMarkClosure@@@Z 08097ac0 f   objArrayKlass.obj
 0001:00096b30       ?oop_oop_iterate_nv@objArrayKlass@@UAEHPAVoopDesc@@PAVPushOrMarkClosure@@@Z 08097b30 f   objArrayKlass.obj
 0001:00096ba0       ?oop_oop_iterate_nv@objArrayKlass@@UAEHPAVoopDesc@@PAVPar_PushOrMarkClosure@@@Z 08097ba0 f   objArrayKlass.obj
 0001:00096c10       ?oop_oop_iterate_nv@objArrayKlass@@UAEHPAVoopDesc@@PAVCMSKeepAliveClosure@@@Z 08097c10 f   objArrayKlass.obj
 0001:00096c80       ?oop_oop_iterate_nv@objArrayKlass@@UAEHPAVoopDesc@@PAVCMSInnerParMarkAndPushClosure@@@Z 08097c80 f   objArrayKlass.obj
 0001:00096cf0       ?oop_oop_iterate_nv@objArrayKlass@@UAEHPAVoopDesc@@PAV?$G1ParCopyClosure@$0A@$01$0A@@@@Z 08097cf0 f   objArrayKlass.obj
 0001:00096d60       ?oop_oop_iterate_nv@objArrayKlass@@UAEHPAVoopDesc@@PAVFilterIntoCSClosure@@@Z 08097d60 f   objArrayKlass.obj
 0001:00096e00       ?oop_oop_iterate_nv@objArrayKlass@@UAEHPAVoopDesc@@PAVFilterOutOfRegionClosure@@@Z 08097e00 f   objArrayKlass.obj
 0001:00096e70       ?oop_oop_iterate_nv@objArrayKlass@@UAEHPAVoopDesc@@PAVFilterInHeapRegionAndIntoCSClosure@@@Z 08097e70 f   objArrayKlass.obj
 0001:00096f10       ?oop_oop_iterate_nv@objArrayKlass@@UAEHPAVoopDesc@@PAVFilterAndMarkInHeapRegionAndIntoCSClosure@@@Z 08097f10 f   objArrayKlass.obj
 0001:00096ff0       ?oop_oop_iterate_v_m@objArrayKlass@@UAEHPAVoopDesc@@PAVOopClosure@@VMemRegion@@@Z 08097ff0 f   objArrayKlass.obj
 0001:00097080       ?oop_oop_iterate_nv_m@objArrayKlass@@UAEHPAVoopDesc@@PAVScanClosure@@VMemRegion@@@Z 08098080 f   objArrayKlass.obj
 0001:000970f0       ?oop_oop_iterate_nv_m@objArrayKlass@@UAEHPAVoopDesc@@PAVFastScanClosure@@VMemRegion@@@Z 080980f0 f   objArrayKlass.obj
 0001:00097160       ?oop_oop_iterate_nv_m@objArrayKlass@@UAEHPAVoopDesc@@PAVFilteringClosure@@VMemRegion@@@Z 08098160 f   objArrayKlass.obj
 0001:000971e0       ?oop_oop_iterate_nv_m@objArrayKlass@@UAEHPAVoopDesc@@PAVParScanWithBarrierClosure@@VMemRegion@@@Z 080981e0 f   objArrayKlass.obj
 0001:00097270       ?oop_oop_iterate_nv_m@objArrayKlass@@UAEHPAVoopDesc@@PAVParScanWithoutBarrierClosure@@VMemRegion@@@Z 08098270 f   objArrayKlass.obj
 0001:00097300       ?oop_oop_iterate_nv_m@objArrayKlass@@UAEHPAVoopDesc@@PAVMarkRefsIntoAndScanClosure@@VMemRegion@@@Z 08098300 f   objArrayKlass.obj
 0001:00097390       ?oop_oop_iterate_nv_m@objArrayKlass@@UAEHPAVoopDesc@@PAVPar_MarkRefsIntoAndScanClosure@@VMemRegion@@@Z 08098390 f   objArrayKlass.obj
 0001:00097420       ?oop_oop_iterate_nv_m@objArrayKlass@@UAEHPAVoopDesc@@PAVPushAndMarkClosure@@VMemRegion@@@Z 08098420 f   objArrayKlass.obj
 0001:000974b0       ?oop_oop_iterate_nv_m@objArrayKlass@@UAEHPAVoopDesc@@PAVPar_PushAndMarkClosure@@VMemRegion@@@Z 080984b0 f   objArrayKlass.obj
 0001:00097540       ?oop_oop_iterate_nv_m@objArrayKlass@@UAEHPAVoopDesc@@PAVPushOrMarkClosure@@VMemRegion@@@Z 08098540 f   objArrayKlass.obj
 0001:000975d0       ?oop_oop_iterate_nv_m@objArrayKlass@@UAEHPAVoopDesc@@PAVPar_PushOrMarkClosure@@VMemRegion@@@Z 080985d0 f   objArrayKlass.obj
 0001:00097660       ?oop_oop_iterate_nv_m@objArrayKlass@@UAEHPAVoopDesc@@PAVCMSKeepAliveClosure@@VMemRegion@@@Z 08098660 f   objArrayKlass.obj
 0001:000976f0       ?oop_oop_iterate_nv_m@objArrayKlass@@UAEHPAVoopDesc@@PAVCMSInnerParMarkAndPushClosure@@VMemRegion@@@Z 080986f0 f   objArrayKlass.obj
 0001:00097780       ?oop_oop_iterate_nv_m@objArrayKlass@@UAEHPAVoopDesc@@PAV?$G1ParCopyClosure@$0A@$01$0A@@@VMemRegion@@@Z 08098780 f   objArrayKlass.obj
 0001:00097810       ?oop_oop_iterate_nv_m@objArrayKlass@@UAEHPAVoopDesc@@PAVFilterIntoCSClosure@@VMemRegion@@@Z 08098810 f   objArrayKlass.obj
 0001:000978c0       ?oop_oop_iterate_nv_m@objArrayKlass@@UAEHPAVoopDesc@@PAVFilterOutOfRegionClosure@@VMemRegion@@@Z 080988c0 f   objArrayKlass.obj
 0001:00097940       ?oop_oop_iterate_nv_m@objArrayKlass@@UAEHPAVoopDesc@@PAVFilterInHeapRegionAndIntoCSClosure@@VMemRegion@@@Z 08098940 f   objArrayKlass.obj
 0001:000979f0       ?oop_oop_iterate_nv_m@objArrayKlass@@UAEHPAVoopDesc@@PAVFilterAndMarkInHeapRegionAndIntoCSClosure@@VMemRegion@@@Z 080989f0 f   objArrayKlass.obj
 0001:00097ae0       ?oop_oop_iterate_range_nv@objArrayKlass@@QAEHPAVoopDesc@@PAVParScanWithBarrierClosure@@HH@Z 08098ae0 f   objArrayKlass.obj
 0001:00097b80       ?oop_oop_iterate_range_nv@objArrayKlass@@QAEHPAVoopDesc@@PAVParScanWithoutBarrierClosure@@HH@Z 08098b80 f   objArrayKlass.obj
 0001:00097c20       ?oop_adjust_pointers@objArrayKlass@@UAEHPAVoopDesc@@@Z 08098c20 f   objArrayKlass.obj
 0001:00097cc0       ?oop_update_pointers@objArrayKlass@@UAEHPAVParCompactionManager@@PAVoopDesc@@@Z 08098cc0 f   objArrayKlass.obj
 0001:00097d30       ?oop_update_pointers@objArrayKlass@@UAEHPAVParCompactionManager@@PAVoopDesc@@PAVHeapWord@@2@Z 08098d30 f   objArrayKlass.obj
 0001:00097db0       ?compute_secondary_supers@objArrayKlass@@UAEPAVobjArrayOopDesc@@HPAVThread@@@Z 08098db0 f   objArrayKlass.obj
 0001:00097ea0       ?oop_print_value_on@objArrayKlass@@UAEXPAVoopDesc@@PAVoutputStream@@@Z 08098ea0 f   objArrayKlass.obj
 0001:00097ef0       ?oop_verify_on@objArrayKlass@@UAEXPAVoopDesc@@PAVoutputStream@@@Z 08098ef0 f   objArrayKlass.obj
 0001:00097f80       ??$objarray_follow_contents@PAVoopDesc@@@objArrayKlass@@QAEXPAVoopDesc@@H@Z 08098f80 f i objArrayKlass.obj
 0001:000980b0       ?array_klass_impl@typeArrayKlass@@CAPAVklassOopDesc@@VtypeArrayKlassHandle@@_NHPAVThread@@@Z 080990b0 f   typeArrayKlass.obj
 0001:000980b0       ?array_klass_impl@objArrayKlass@@CAPAVklassOopDesc@@VobjArrayKlassHandle@@_NHPAVThread@@@Z 080990b0 f   objArrayKlass.obj
 0001:00098230       ?oop_follow_contents@objArrayKlass@@UAEXPAVoopDesc@@@Z 08099230 f   objArrayKlass.obj
 0001:00098260       ??$objarray_follow_contents@PAVoopDesc@@@objArrayKlass@@QAEXPAVParCompactionManager@@PAVoopDesc@@H@Z 08099260 f i objArrayKlass.obj
 0001:000983e0       ?oop_follow_contents@objArrayKlass@@UAEXPAVParCompactionManager@@PAVoopDesc@@@Z 080993e0 f   objArrayKlass.obj
 0001:00098410       ?oop_oop_iterate_nv@objArrayKlass@@UAEHPAVoopDesc@@PAVG1ParScanClosure@@@Z 08099410 f   objArrayKlass.obj
 0001:00098480       ?oop_oop_iterate_nv@objArrayKlass@@UAEHPAVoopDesc@@PAVG1ParPushHeapRSClosure@@@Z 08099480 f   objArrayKlass.obj
 0001:00098550       ?oop_oop_iterate_nv_m@objArrayKlass@@UAEHPAVoopDesc@@PAVG1ParScanClosure@@VMemRegion@@@Z 08099550 f   objArrayKlass.obj
 0001:000985e0       ?oop_oop_iterate_nv_m@objArrayKlass@@UAEHPAVoopDesc@@PAVG1ParPushHeapRSClosure@@VMemRegion@@@Z 080995e0 f   objArrayKlass.obj
 0001:000986e0       ?oop_oop_iterate_range_nv@objArrayKlass@@QAEHPAVoopDesc@@PAVG1ParScanClosure@@HH@Z 080996e0 f   objArrayKlass.obj
 0001:00098780       ?oop_push_contents@objArrayKlass@@UAEXPAVPSPromotionManager@@PAVoopDesc@@@Z 08099780 f   objArrayKlass.obj
 0001:000987d0       ?allocate@objArrayKlass@@QAEPAVobjArrayOopDesc@@HPAVThread@@@Z 080997d0 f   objArrayKlass.obj
 0001:000988c0       ?multi_allocate@objArrayKlass@@UAEPAVoopDesc@@HPAHPAVThread@@@Z 080998c0 f   objArrayKlass.obj
 0001:000989c0       ?internal_name@objArrayKlassKlass@@UBEPBDXZ 080999c0 f   objArrayKlassKlass.obj
 0001:000989d0       ?oop_oop_iterate@objArrayKlassKlass@@UAEHPAVoopDesc@@PAVOopClosure@@@Z 080999d0 f   objArrayKlassKlass.obj
 0001:00098a10       ?oop_oop_iterate_m@objArrayKlassKlass@@UAEHPAVoopDesc@@PAVOopClosure@@VMemRegion@@@Z 08099a10 f   objArrayKlassKlass.obj
 0001:00098a70       ?oop_print_value_on@objArrayKlassKlass@@UAEXPAVoopDesc@@PAVoutputStream@@@Z 08099a70 f   objArrayKlassKlass.obj
